
gps_tracker.elf:     file format elf32-littlearm

Sections:
Idx Name          Size      VMA       LMA       File off  Algn
  0 .isr_vector   000000c0  08000000  08000000  00001000  2**0
                  CONTENTS, ALLOC, LOAD, READONLY, DATA
  1 .text         0000821c  080000c0  080000c0  000010c0  2**2
                  CONTENTS, ALLOC, LOAD, READONLY, CODE
  2 .rodata       00000724  080082e0  080082e0  000092e0  2**3
                  CONTENTS, ALLOC, LOAD, READONLY, DATA
  3 .ARM.extab    00000000  08008a04  08008a04  0000a1e4  2**0
                  CONTENTS, READONLY
  4 .ARM          00000000  08008a04  08008a04  0000a1e4  2**0
                  CONTENTS, READONLY
  5 .preinit_array 00000000  08008a04  08008a04  0000a1e4  2**0
                  CONTENTS, ALLOC, LOAD, DATA
  6 .init_array   00000004  08008a04  08008a04  00009a04  2**2
                  CONTENTS, ALLOC, LOAD, READONLY, DATA
  7 .fini_array   00000004  08008a08  08008a08  00009a08  2**2
                  CONTENTS, ALLOC, LOAD, READONLY, DATA
  8 .data         000001e4  20000000  08008a0c  0000a000  2**2
                  CONTENTS, ALLOC, LOAD, DATA
  9 .bss          00000428  200001e8  08008bf0  0000a1e8  2**3
                  ALLOC
 10 ._user_heap_stack 00000600  20000610  08008bf0  0000a610  2**0
                  ALLOC
 11 .ARM.attributes 00000028  00000000  00000000  0000a1e4  2**0
                  CONTENTS, READONLY
 12 .debug_info   000088b2  00000000  00000000  0000a20c  2**0
                  CONTENTS, READONLY, DEBUGGING, OCTETS
 13 .debug_abbrev 000018e2  00000000  00000000  00012abe  2**0
                  CONTENTS, READONLY, DEBUGGING, OCTETS
 14 .debug_aranges 000006a0  00000000  00000000  000143a0  2**3
                  CONTENTS, READONLY, DEBUGGING, OCTETS
 15 .debug_rnglists 00000513  00000000  00000000  00014a40  2**0
                  CONTENTS, READONLY, DEBUGGING, OCTETS
 16 .debug_line   00008713  00000000  00000000  00014f53  2**0
                  CONTENTS, READONLY, DEBUGGING, OCTETS
 17 .debug_str    00056956  00000000  00000000  0001d666  2**0
                  CONTENTS, READONLY, DEBUGGING, OCTETS
 18 .comment      00000043  00000000  00000000  00073fbc  2**0
                  CONTENTS, READONLY
 19 .debug_frame  000029c4  00000000  00000000  00074000  2**2
                  CONTENTS, READONLY, DEBUGGING, OCTETS
 20 .debug_macro  0000ddf1  00000000  00000000  000769c4  2**0
                  CONTENTS, READONLY, DEBUGGING, OCTETS
 21 .debug_line_str 00000074  00000000  00000000  000847b5  2**0
                  CONTENTS, READONLY, DEBUGGING, OCTETS

Disassembly of section .text:

080000c0 <__do_global_dtors_aux>:
 80000c0:	b510      	push	{r4, lr}
 80000c2:	4c06      	ldr	r4, [pc, #24]	@ (80000dc <__do_global_dtors_aux+0x1c>)
 80000c4:	7823      	ldrb	r3, [r4, #0]
 80000c6:	2b00      	cmp	r3, #0
 80000c8:	d107      	bne.n	80000da <__do_global_dtors_aux+0x1a>
 80000ca:	4b05      	ldr	r3, [pc, #20]	@ (80000e0 <__do_global_dtors_aux+0x20>)
 80000cc:	2b00      	cmp	r3, #0
 80000ce:	d002      	beq.n	80000d6 <__do_global_dtors_aux+0x16>
 80000d0:	4804      	ldr	r0, [pc, #16]	@ (80000e4 <__do_global_dtors_aux+0x24>)
 80000d2:	e000      	b.n	80000d6 <__do_global_dtors_aux+0x16>
 80000d4:	bf00      	nop
 80000d6:	2301      	movs	r3, #1
 80000d8:	7023      	strb	r3, [r4, #0]
 80000da:	bd10      	pop	{r4, pc}
 80000dc:	200001e8 	.word	0x200001e8
 80000e0:	00000000 	.word	0x00000000
 80000e4:	080082c4 	.word	0x080082c4

080000e8 <frame_dummy>:
 80000e8:	4b04      	ldr	r3, [pc, #16]	@ (80000fc <frame_dummy+0x14>)
 80000ea:	b510      	push	{r4, lr}
 80000ec:	2b00      	cmp	r3, #0
 80000ee:	d003      	beq.n	80000f8 <frame_dummy+0x10>
 80000f0:	4903      	ldr	r1, [pc, #12]	@ (8000100 <frame_dummy+0x18>)
 80000f2:	4804      	ldr	r0, [pc, #16]	@ (8000104 <frame_dummy+0x1c>)
 80000f4:	e000      	b.n	80000f8 <frame_dummy+0x10>
 80000f6:	bf00      	nop
 80000f8:	bd10      	pop	{r4, pc}
 80000fa:	46c0      	nop			@ (mov r8, r8)
 80000fc:	00000000 	.word	0x00000000
 8000100:	200001ec 	.word	0x200001ec
 8000104:	080082c4 	.word	0x080082c4

08000108 <strlen>:
 8000108:	2300      	movs	r3, #0
 800010a:	5cc2      	ldrb	r2, [r0, r3]
 800010c:	3301      	adds	r3, #1
 800010e:	2a00      	cmp	r2, #0
 8000110:	d1fb      	bne.n	800010a <strlen+0x2>
 8000112:	1e58      	subs	r0, r3, #1
 8000114:	4770      	bx	lr
	...

08000118 <__gnu_thumb1_case_uqi>:
 8000118:	b402      	push	{r1}
 800011a:	4671      	mov	r1, lr
 800011c:	0849      	lsrs	r1, r1, #1
 800011e:	0049      	lsls	r1, r1, #1
 8000120:	5c09      	ldrb	r1, [r1, r0]
 8000122:	0049      	lsls	r1, r1, #1
 8000124:	448e      	add	lr, r1
 8000126:	bc02      	pop	{r1}
 8000128:	4770      	bx	lr
 800012a:	46c0      	nop			@ (mov r8, r8)

0800012c <__gnu_thumb1_case_shi>:
 800012c:	b403      	push	{r0, r1}
 800012e:	4671      	mov	r1, lr
 8000130:	0849      	lsrs	r1, r1, #1
 8000132:	0040      	lsls	r0, r0, #1
 8000134:	0049      	lsls	r1, r1, #1
 8000136:	5e09      	ldrsh	r1, [r1, r0]
 8000138:	0049      	lsls	r1, r1, #1
 800013a:	448e      	add	lr, r1
 800013c:	bc03      	pop	{r0, r1}
 800013e:	4770      	bx	lr

08000140 <__udivsi3>:
 8000140:	2200      	movs	r2, #0
 8000142:	0843      	lsrs	r3, r0, #1
 8000144:	428b      	cmp	r3, r1
 8000146:	d374      	bcc.n	8000232 <__udivsi3+0xf2>
 8000148:	0903      	lsrs	r3, r0, #4
 800014a:	428b      	cmp	r3, r1
 800014c:	d35f      	bcc.n	800020e <__udivsi3+0xce>
 800014e:	0a03      	lsrs	r3, r0, #8
 8000150:	428b      	cmp	r3, r1
 8000152:	d344      	bcc.n	80001de <__udivsi3+0x9e>
 8000154:	0b03      	lsrs	r3, r0, #12
 8000156:	428b      	cmp	r3, r1
 8000158:	d328      	bcc.n	80001ac <__udivsi3+0x6c>
 800015a:	0c03      	lsrs	r3, r0, #16
 800015c:	428b      	cmp	r3, r1
 800015e:	d30d      	bcc.n	800017c <__udivsi3+0x3c>
 8000160:	22ff      	movs	r2, #255	@ 0xff
 8000162:	0209      	lsls	r1, r1, #8
 8000164:	ba12      	rev	r2, r2
 8000166:	0c03      	lsrs	r3, r0, #16
 8000168:	428b      	cmp	r3, r1
 800016a:	d302      	bcc.n	8000172 <__udivsi3+0x32>
 800016c:	1212      	asrs	r2, r2, #8
 800016e:	0209      	lsls	r1, r1, #8
 8000170:	d065      	beq.n	800023e <__udivsi3+0xfe>
 8000172:	0b03      	lsrs	r3, r0, #12
 8000174:	428b      	cmp	r3, r1
 8000176:	d319      	bcc.n	80001ac <__udivsi3+0x6c>
 8000178:	e000      	b.n	800017c <__udivsi3+0x3c>
 800017a:	0a09      	lsrs	r1, r1, #8
 800017c:	0bc3      	lsrs	r3, r0, #15
 800017e:	428b      	cmp	r3, r1
 8000180:	d301      	bcc.n	8000186 <__udivsi3+0x46>
 8000182:	03cb      	lsls	r3, r1, #15
 8000184:	1ac0      	subs	r0, r0, r3
 8000186:	4152      	adcs	r2, r2
 8000188:	0b83      	lsrs	r3, r0, #14
 800018a:	428b      	cmp	r3, r1
 800018c:	d301      	bcc.n	8000192 <__udivsi3+0x52>
 800018e:	038b      	lsls	r3, r1, #14
 8000190:	1ac0      	subs	r0, r0, r3
 8000192:	4152      	adcs	r2, r2
 8000194:	0b43      	lsrs	r3, r0, #13
 8000196:	428b      	cmp	r3, r1
 8000198:	d301      	bcc.n	800019e <__udivsi3+0x5e>
 800019a:	034b      	lsls	r3, r1, #13
 800019c:	1ac0      	subs	r0, r0, r3
 800019e:	4152      	adcs	r2, r2
 80001a0:	0b03      	lsrs	r3, r0, #12
 80001a2:	428b      	cmp	r3, r1
 80001a4:	d301      	bcc.n	80001aa <__udivsi3+0x6a>
 80001a6:	030b      	lsls	r3, r1, #12
 80001a8:	1ac0      	subs	r0, r0, r3
 80001aa:	4152      	adcs	r2, r2
 80001ac:	0ac3      	lsrs	r3, r0, #11
 80001ae:	428b      	cmp	r3, r1
 80001b0:	d301      	bcc.n	80001b6 <__udivsi3+0x76>
 80001b2:	02cb      	lsls	r3, r1, #11
 80001b4:	1ac0      	subs	r0, r0, r3
 80001b6:	4152      	adcs	r2, r2
 80001b8:	0a83      	lsrs	r3, r0, #10
 80001ba:	428b      	cmp	r3, r1
 80001bc:	d301      	bcc.n	80001c2 <__udivsi3+0x82>
 80001be:	028b      	lsls	r3, r1, #10
 80001c0:	1ac0      	subs	r0, r0, r3
 80001c2:	4152      	adcs	r2, r2
 80001c4:	0a43      	lsrs	r3, r0, #9
 80001c6:	428b      	cmp	r3, r1
 80001c8:	d301      	bcc.n	80001ce <__udivsi3+0x8e>
 80001ca:	024b      	lsls	r3, r1, #9
 80001cc:	1ac0      	subs	r0, r0, r3
 80001ce:	4152      	adcs	r2, r2
 80001d0:	0a03      	lsrs	r3, r0, #8
 80001d2:	428b      	cmp	r3, r1
 80001d4:	d301      	bcc.n	80001da <__udivsi3+0x9a>
 80001d6:	020b      	lsls	r3, r1, #8
 80001d8:	1ac0      	subs	r0, r0, r3
 80001da:	4152      	adcs	r2, r2
 80001dc:	d2cd      	bcs.n	800017a <__udivsi3+0x3a>
 80001de:	09c3      	lsrs	r3, r0, #7
 80001e0:	428b      	cmp	r3, r1
 80001e2:	d301      	bcc.n	80001e8 <__udivsi3+0xa8>
 80001e4:	01cb      	lsls	r3, r1, #7
 80001e6:	1ac0      	subs	r0, r0, r3
 80001e8:	4152      	adcs	r2, r2
 80001ea:	0983      	lsrs	r3, r0, #6
 80001ec:	428b      	cmp	r3, r1
 80001ee:	d301      	bcc.n	80001f4 <__udivsi3+0xb4>
 80001f0:	018b      	lsls	r3, r1, #6
 80001f2:	1ac0      	subs	r0, r0, r3
 80001f4:	4152      	adcs	r2, r2
 80001f6:	0943      	lsrs	r3, r0, #5
 80001f8:	428b      	cmp	r3, r1
 80001fa:	d301      	bcc.n	8000200 <__udivsi3+0xc0>
 80001fc:	014b      	lsls	r3, r1, #5
 80001fe:	1ac0      	subs	r0, r0, r3
 8000200:	4152      	adcs	r2, r2
 8000202:	0903      	lsrs	r3, r0, #4
 8000204:	428b      	cmp	r3, r1
 8000206:	d301      	bcc.n	800020c <__udivsi3+0xcc>
 8000208:	010b      	lsls	r3, r1, #4
 800020a:	1ac0      	subs	r0, r0, r3
 800020c:	4152      	adcs	r2, r2
 800020e:	08c3      	lsrs	r3, r0, #3
 8000210:	428b      	cmp	r3, r1
 8000212:	d301      	bcc.n	8000218 <__udivsi3+0xd8>
 8000214:	00cb      	lsls	r3, r1, #3
 8000216:	1ac0      	subs	r0, r0, r3
 8000218:	4152      	adcs	r2, r2
 800021a:	0883      	lsrs	r3, r0, #2
 800021c:	428b      	cmp	r3, r1
 800021e:	d301      	bcc.n	8000224 <__udivsi3+0xe4>
 8000220:	008b      	lsls	r3, r1, #2
 8000222:	1ac0      	subs	r0, r0, r3
 8000224:	4152      	adcs	r2, r2
 8000226:	0843      	lsrs	r3, r0, #1
 8000228:	428b      	cmp	r3, r1
 800022a:	d301      	bcc.n	8000230 <__udivsi3+0xf0>
 800022c:	004b      	lsls	r3, r1, #1
 800022e:	1ac0      	subs	r0, r0, r3
 8000230:	4152      	adcs	r2, r2
 8000232:	1a41      	subs	r1, r0, r1
 8000234:	d200      	bcs.n	8000238 <__udivsi3+0xf8>
 8000236:	4601      	mov	r1, r0
 8000238:	4152      	adcs	r2, r2
 800023a:	4610      	mov	r0, r2
 800023c:	4770      	bx	lr
 800023e:	e7ff      	b.n	8000240 <__udivsi3+0x100>
 8000240:	b501      	push	{r0, lr}
 8000242:	2000      	movs	r0, #0
 8000244:	f000 f8f0 	bl	8000428 <__aeabi_idiv0>
 8000248:	bd02      	pop	{r1, pc}
 800024a:	46c0      	nop			@ (mov r8, r8)

0800024c <__aeabi_uidivmod>:
 800024c:	2900      	cmp	r1, #0
 800024e:	d0f7      	beq.n	8000240 <__udivsi3+0x100>
 8000250:	e776      	b.n	8000140 <__udivsi3>
 8000252:	4770      	bx	lr

08000254 <__divsi3>:
 8000254:	4603      	mov	r3, r0
 8000256:	430b      	orrs	r3, r1
 8000258:	d47f      	bmi.n	800035a <__divsi3+0x106>
 800025a:	2200      	movs	r2, #0
 800025c:	0843      	lsrs	r3, r0, #1
 800025e:	428b      	cmp	r3, r1
 8000260:	d374      	bcc.n	800034c <__divsi3+0xf8>
 8000262:	0903      	lsrs	r3, r0, #4
 8000264:	428b      	cmp	r3, r1
 8000266:	d35f      	bcc.n	8000328 <__divsi3+0xd4>
 8000268:	0a03      	lsrs	r3, r0, #8
 800026a:	428b      	cmp	r3, r1
 800026c:	d344      	bcc.n	80002f8 <__divsi3+0xa4>
 800026e:	0b03      	lsrs	r3, r0, #12
 8000270:	428b      	cmp	r3, r1
 8000272:	d328      	bcc.n	80002c6 <__divsi3+0x72>
 8000274:	0c03      	lsrs	r3, r0, #16
 8000276:	428b      	cmp	r3, r1
 8000278:	d30d      	bcc.n	8000296 <__divsi3+0x42>
 800027a:	22ff      	movs	r2, #255	@ 0xff
 800027c:	0209      	lsls	r1, r1, #8
 800027e:	ba12      	rev	r2, r2
 8000280:	0c03      	lsrs	r3, r0, #16
 8000282:	428b      	cmp	r3, r1
 8000284:	d302      	bcc.n	800028c <__divsi3+0x38>
 8000286:	1212      	asrs	r2, r2, #8
 8000288:	0209      	lsls	r1, r1, #8
 800028a:	d065      	beq.n	8000358 <__divsi3+0x104>
 800028c:	0b03      	lsrs	r3, r0, #12
 800028e:	428b      	cmp	r3, r1
 8000290:	d319      	bcc.n	80002c6 <__divsi3+0x72>
 8000292:	e000      	b.n	8000296 <__divsi3+0x42>
 8000294:	0a09      	lsrs	r1, r1, #8
 8000296:	0bc3      	lsrs	r3, r0, #15
 8000298:	428b      	cmp	r3, r1
 800029a:	d301      	bcc.n	80002a0 <__divsi3+0x4c>
 800029c:	03cb      	lsls	r3, r1, #15
 800029e:	1ac0      	subs	r0, r0, r3
 80002a0:	4152      	adcs	r2, r2
 80002a2:	0b83      	lsrs	r3, r0, #14
 80002a4:	428b      	cmp	r3, r1
 80002a6:	d301      	bcc.n	80002ac <__divsi3+0x58>
 80002a8:	038b      	lsls	r3, r1, #14
 80002aa:	1ac0      	subs	r0, r0, r3
 80002ac:	4152      	adcs	r2, r2
 80002ae:	0b43      	lsrs	r3, r0, #13
 80002b0:	428b      	cmp	r3, r1
 80002b2:	d301      	bcc.n	80002b8 <__divsi3+0x64>
 80002b4:	034b      	lsls	r3, r1, #13
 80002b6:	1ac0      	subs	r0, r0, r3
 80002b8:	4152      	adcs	r2, r2
 80002ba:	0b03      	lsrs	r3, r0, #12
 80002bc:	428b      	cmp	r3, r1
 80002be:	d301      	bcc.n	80002c4 <__divsi3+0x70>
 80002c0:	030b      	lsls	r3, r1, #12
 80002c2:	1ac0      	subs	r0, r0, r3
 80002c4:	4152      	adcs	r2, r2
 80002c6:	0ac3      	lsrs	r3, r0, #11
 80002c8:	428b      	cmp	r3, r1
 80002ca:	d301      	bcc.n	80002d0 <__divsi3+0x7c>
 80002cc:	02cb      	lsls	r3, r1, #11
 80002ce:	1ac0      	subs	r0, r0, r3
 80002d0:	4152      	adcs	r2, r2
 80002d2:	0a83      	lsrs	r3, r0, #10
 80002d4:	428b      	cmp	r3, r1
 80002d6:	d301      	bcc.n	80002dc <__divsi3+0x88>
 80002d8:	028b      	lsls	r3, r1, #10
 80002da:	1ac0      	subs	r0, r0, r3
 80002dc:	4152      	adcs	r2, r2
 80002de:	0a43      	lsrs	r3, r0, #9
 80002e0:	428b      	cmp	r3, r1
 80002e2:	d301      	bcc.n	80002e8 <__divsi3+0x94>
 80002e4:	024b      	lsls	r3, r1, #9
 80002e6:	1ac0      	subs	r0, r0, r3
 80002e8:	4152      	adcs	r2, r2
 80002ea:	0a03      	lsrs	r3, r0, #8
 80002ec:	428b      	cmp	r3, r1
 80002ee:	d301      	bcc.n	80002f4 <__divsi3+0xa0>
 80002f0:	020b      	lsls	r3, r1, #8
 80002f2:	1ac0      	subs	r0, r0, r3
 80002f4:	4152      	adcs	r2, r2
 80002f6:	d2cd      	bcs.n	8000294 <__divsi3+0x40>
 80002f8:	09c3      	lsrs	r3, r0, #7
 80002fa:	428b      	cmp	r3, r1
 80002fc:	d301      	bcc.n	8000302 <__divsi3+0xae>
 80002fe:	01cb      	lsls	r3, r1, #7
 8000300:	1ac0      	subs	r0, r0, r3
 8000302:	4152      	adcs	r2, r2
 8000304:	0983      	lsrs	r3, r0, #6
 8000306:	428b      	cmp	r3, r1
 8000308:	d301      	bcc.n	800030e <__divsi3+0xba>
 800030a:	018b      	lsls	r3, r1, #6
 800030c:	1ac0      	subs	r0, r0, r3
 800030e:	4152      	adcs	r2, r2
 8000310:	0943      	lsrs	r3, r0, #5
 8000312:	428b      	cmp	r3, r1
 8000314:	d301      	bcc.n	800031a <__divsi3+0xc6>
 8000316:	014b      	lsls	r3, r1, #5
 8000318:	1ac0      	subs	r0, r0, r3
 800031a:	4152      	adcs	r2, r2
 800031c:	0903      	lsrs	r3, r0, #4
 800031e:	428b      	cmp	r3, r1
 8000320:	d301      	bcc.n	8000326 <__divsi3+0xd2>
 8000322:	010b      	lsls	r3, r1, #4
 8000324:	1ac0      	subs	r0, r0, r3
 8000326:	4152      	adcs	r2, r2
 8000328:	08c3      	lsrs	r3, r0, #3
 800032a:	428b      	cmp	r3, r1
 800032c:	d301      	bcc.n	8000332 <__divsi3+0xde>
 800032e:	00cb      	lsls	r3, r1, #3
 8000330:	1ac0      	subs	r0, r0, r3
 8000332:	4152      	adcs	r2, r2
 8000334:	0883      	lsrs	r3, r0, #2
 8000336:	428b      	cmp	r3, r1
 8000338:	d301      	bcc.n	800033e <__divsi3+0xea>
 800033a:	008b      	lsls	r3, r1, #2
 800033c:	1ac0      	subs	r0, r0, r3
 800033e:	4152      	adcs	r2, r2
 8000340:	0843      	lsrs	r3, r0, #1
 8000342:	428b      	cmp	r3, r1
 8000344:	d301      	bcc.n	800034a <__divsi3+0xf6>
 8000346:	004b      	lsls	r3, r1, #1
 8000348:	1ac0      	subs	r0, r0, r3
 800034a:	4152      	adcs	r2, r2
 800034c:	1a41      	subs	r1, r0, r1
 800034e:	d200      	bcs.n	8000352 <__divsi3+0xfe>
 8000350:	4601      	mov	r1, r0
 8000352:	4152      	adcs	r2, r2
 8000354:	4610      	mov	r0, r2
 8000356:	4770      	bx	lr
 8000358:	e05d      	b.n	8000416 <__divsi3+0x1c2>
 800035a:	0fca      	lsrs	r2, r1, #31
 800035c:	d000      	beq.n	8000360 <__divsi3+0x10c>
 800035e:	4249      	negs	r1, r1
 8000360:	1003      	asrs	r3, r0, #32
 8000362:	d300      	bcc.n	8000366 <__divsi3+0x112>
 8000364:	4240      	negs	r0, r0
 8000366:	4053      	eors	r3, r2
 8000368:	2200      	movs	r2, #0
 800036a:	469c      	mov	ip, r3
 800036c:	0903      	lsrs	r3, r0, #4
 800036e:	428b      	cmp	r3, r1
 8000370:	d32d      	bcc.n	80003ce <__divsi3+0x17a>
 8000372:	0a03      	lsrs	r3, r0, #8
 8000374:	428b      	cmp	r3, r1
 8000376:	d312      	bcc.n	800039e <__divsi3+0x14a>
 8000378:	22fc      	movs	r2, #252	@ 0xfc
 800037a:	0189      	lsls	r1, r1, #6
 800037c:	ba12      	rev	r2, r2
 800037e:	0a03      	lsrs	r3, r0, #8
 8000380:	428b      	cmp	r3, r1
 8000382:	d30c      	bcc.n	800039e <__divsi3+0x14a>
 8000384:	0189      	lsls	r1, r1, #6
 8000386:	1192      	asrs	r2, r2, #6
 8000388:	428b      	cmp	r3, r1
 800038a:	d308      	bcc.n	800039e <__divsi3+0x14a>
 800038c:	0189      	lsls	r1, r1, #6
 800038e:	1192      	asrs	r2, r2, #6
 8000390:	428b      	cmp	r3, r1
 8000392:	d304      	bcc.n	800039e <__divsi3+0x14a>
 8000394:	0189      	lsls	r1, r1, #6
 8000396:	d03a      	beq.n	800040e <__divsi3+0x1ba>
 8000398:	1192      	asrs	r2, r2, #6
 800039a:	e000      	b.n	800039e <__divsi3+0x14a>
 800039c:	0989      	lsrs	r1, r1, #6
 800039e:	09c3      	lsrs	r3, r0, #7
 80003a0:	428b      	cmp	r3, r1
 80003a2:	d301      	bcc.n	80003a8 <__divsi3+0x154>
 80003a4:	01cb      	lsls	r3, r1, #7
 80003a6:	1ac0      	subs	r0, r0, r3
 80003a8:	4152      	adcs	r2, r2
 80003aa:	0983      	lsrs	r3, r0, #6
 80003ac:	428b      	cmp	r3, r1
 80003ae:	d301      	bcc.n	80003b4 <__divsi3+0x160>
 80003b0:	018b      	lsls	r3, r1, #6
 80003b2:	1ac0      	subs	r0, r0, r3
 80003b4:	4152      	adcs	r2, r2
 80003b6:	0943      	lsrs	r3, r0, #5
 80003b8:	428b      	cmp	r3, r1
 80003ba:	d301      	bcc.n	80003c0 <__divsi3+0x16c>
 80003bc:	014b      	lsls	r3, r1, #5
 80003be:	1ac0      	subs	r0, r0, r3
 80003c0:	4152      	adcs	r2, r2
 80003c2:	0903      	lsrs	r3, r0, #4
 80003c4:	428b      	cmp	r3, r1
 80003c6:	d301      	bcc.n	80003cc <__divsi3+0x178>
 80003c8:	010b      	lsls	r3, r1, #4
 80003ca:	1ac0      	subs	r0, r0, r3
 80003cc:	4152      	adcs	r2, r2
 80003ce:	08c3      	lsrs	r3, r0, #3
 80003d0:	428b      	cmp	r3, r1
 80003d2:	d301      	bcc.n	80003d8 <__divsi3+0x184>
 80003d4:	00cb      	lsls	r3, r1, #3
 80003d6:	1ac0      	subs	r0, r0, r3
 80003d8:	4152      	adcs	r2, r2
 80003da:	0883      	lsrs	r3, r0, #2
 80003dc:	428b      	cmp	r3, r1
 80003de:	d301      	bcc.n	80003e4 <__divsi3+0x190>
 80003e0:	008b      	lsls	r3, r1, #2
 80003e2:	1ac0      	subs	r0, r0, r3
 80003e4:	4152      	adcs	r2, r2
 80003e6:	d2d9      	bcs.n	800039c <__divsi3+0x148>
 80003e8:	0843      	lsrs	r3, r0, #1
 80003ea:	428b      	cmp	r3, r1
 80003ec:	d301      	bcc.n	80003f2 <__divsi3+0x19e>
 80003ee:	004b      	lsls	r3, r1, #1
 80003f0:	1ac0      	subs	r0, r0, r3
 80003f2:	4152      	adcs	r2, r2
 80003f4:	1a41      	subs	r1, r0, r1
 80003f6:	d200      	bcs.n	80003fa <__divsi3+0x1a6>
 80003f8:	4601      	mov	r1, r0
 80003fa:	4663      	mov	r3, ip
 80003fc:	4152      	adcs	r2, r2
 80003fe:	105b      	asrs	r3, r3, #1
 8000400:	4610      	mov	r0, r2
 8000402:	d301      	bcc.n	8000408 <__divsi3+0x1b4>
 8000404:	4240      	negs	r0, r0
 8000406:	2b00      	cmp	r3, #0
 8000408:	d500      	bpl.n	800040c <__divsi3+0x1b8>
 800040a:	4249      	negs	r1, r1
 800040c:	4770      	bx	lr
 800040e:	4663      	mov	r3, ip
 8000410:	105b      	asrs	r3, r3, #1
 8000412:	d300      	bcc.n	8000416 <__divsi3+0x1c2>
 8000414:	4240      	negs	r0, r0
 8000416:	b501      	push	{r0, lr}
 8000418:	2000      	movs	r0, #0
 800041a:	f000 f805 	bl	8000428 <__aeabi_idiv0>
 800041e:	bd02      	pop	{r1, pc}

08000420 <__aeabi_idivmod>:
 8000420:	2900      	cmp	r1, #0
 8000422:	d0f8      	beq.n	8000416 <__divsi3+0x1c2>
 8000424:	e716      	b.n	8000254 <__divsi3>
 8000426:	4770      	bx	lr

08000428 <__aeabi_idiv0>:
 8000428:	4770      	bx	lr
 800042a:	46c0      	nop			@ (mov r8, r8)

0800042c <__aeabi_cdrcmple>:
 800042c:	4684      	mov	ip, r0
 800042e:	0010      	movs	r0, r2
 8000430:	4662      	mov	r2, ip
 8000432:	468c      	mov	ip, r1
 8000434:	0019      	movs	r1, r3
 8000436:	4663      	mov	r3, ip
 8000438:	e000      	b.n	800043c <__aeabi_cdcmpeq>
 800043a:	46c0      	nop			@ (mov r8, r8)

0800043c <__aeabi_cdcmpeq>:
 800043c:	b51f      	push	{r0, r1, r2, r3, r4, lr}
 800043e:	f001 f833 	bl	80014a8 <__ledf2>
 8000442:	2800      	cmp	r0, #0
 8000444:	d401      	bmi.n	800044a <__aeabi_cdcmpeq+0xe>
 8000446:	2100      	movs	r1, #0
 8000448:	42c8      	cmn	r0, r1
 800044a:	bd1f      	pop	{r0, r1, r2, r3, r4, pc}

0800044c <__aeabi_dcmpeq>:
 800044c:	b510      	push	{r4, lr}
 800044e:	f000 ff77 	bl	8001340 <__eqdf2>
 8000452:	4240      	negs	r0, r0
 8000454:	3001      	adds	r0, #1
 8000456:	bd10      	pop	{r4, pc}

08000458 <__aeabi_dcmplt>:
 8000458:	b510      	push	{r4, lr}
 800045a:	f001 f825 	bl	80014a8 <__ledf2>
 800045e:	2800      	cmp	r0, #0
 8000460:	db01      	blt.n	8000466 <__aeabi_dcmplt+0xe>
 8000462:	2000      	movs	r0, #0
 8000464:	bd10      	pop	{r4, pc}
 8000466:	2001      	movs	r0, #1
 8000468:	bd10      	pop	{r4, pc}
 800046a:	46c0      	nop			@ (mov r8, r8)

0800046c <__aeabi_dcmple>:
 800046c:	b510      	push	{r4, lr}
 800046e:	f001 f81b 	bl	80014a8 <__ledf2>
 8000472:	2800      	cmp	r0, #0
 8000474:	dd01      	ble.n	800047a <__aeabi_dcmple+0xe>
 8000476:	2000      	movs	r0, #0
 8000478:	bd10      	pop	{r4, pc}
 800047a:	2001      	movs	r0, #1
 800047c:	bd10      	pop	{r4, pc}
 800047e:	46c0      	nop			@ (mov r8, r8)

08000480 <__aeabi_dcmpgt>:
 8000480:	b510      	push	{r4, lr}
 8000482:	f000 ffa1 	bl	80013c8 <__gedf2>
 8000486:	2800      	cmp	r0, #0
 8000488:	dc01      	bgt.n	800048e <__aeabi_dcmpgt+0xe>
 800048a:	2000      	movs	r0, #0
 800048c:	bd10      	pop	{r4, pc}
 800048e:	2001      	movs	r0, #1
 8000490:	bd10      	pop	{r4, pc}
 8000492:	46c0      	nop			@ (mov r8, r8)

08000494 <__aeabi_dcmpge>:
 8000494:	b510      	push	{r4, lr}
 8000496:	f000 ff97 	bl	80013c8 <__gedf2>
 800049a:	2800      	cmp	r0, #0
 800049c:	da01      	bge.n	80004a2 <__aeabi_dcmpge+0xe>
 800049e:	2000      	movs	r0, #0
 80004a0:	bd10      	pop	{r4, pc}
 80004a2:	2001      	movs	r0, #1
 80004a4:	bd10      	pop	{r4, pc}
 80004a6:	46c0      	nop			@ (mov r8, r8)

080004a8 <__aeabi_d2uiz>:
 80004a8:	b570      	push	{r4, r5, r6, lr}
 80004aa:	2200      	movs	r2, #0
 80004ac:	4b0c      	ldr	r3, [pc, #48]	@ (80004e0 <__aeabi_d2uiz+0x38>)
 80004ae:	0004      	movs	r4, r0
 80004b0:	000d      	movs	r5, r1
 80004b2:	f7ff ffef 	bl	8000494 <__aeabi_dcmpge>
 80004b6:	2800      	cmp	r0, #0
 80004b8:	d104      	bne.n	80004c4 <__aeabi_d2uiz+0x1c>
 80004ba:	0020      	movs	r0, r4
 80004bc:	0029      	movs	r1, r5
 80004be:	f001 ff51 	bl	8002364 <__aeabi_d2iz>
 80004c2:	bd70      	pop	{r4, r5, r6, pc}
 80004c4:	4b06      	ldr	r3, [pc, #24]	@ (80004e0 <__aeabi_d2uiz+0x38>)
 80004c6:	2200      	movs	r2, #0
 80004c8:	0020      	movs	r0, r4
 80004ca:	0029      	movs	r1, r5
 80004cc:	f001 fb40 	bl	8001b50 <__aeabi_dsub>
 80004d0:	f001 ff48 	bl	8002364 <__aeabi_d2iz>
 80004d4:	2380      	movs	r3, #128	@ 0x80
 80004d6:	061b      	lsls	r3, r3, #24
 80004d8:	469c      	mov	ip, r3
 80004da:	4460      	add	r0, ip
 80004dc:	e7f1      	b.n	80004c2 <__aeabi_d2uiz+0x1a>
 80004de:	46c0      	nop			@ (mov r8, r8)
 80004e0:	41e00000 	.word	0x41e00000

080004e4 <__aeabi_d2lz>:
 80004e4:	b570      	push	{r4, r5, r6, lr}
 80004e6:	2200      	movs	r2, #0
 80004e8:	2300      	movs	r3, #0
 80004ea:	0004      	movs	r4, r0
 80004ec:	000d      	movs	r5, r1
 80004ee:	f7ff ffb3 	bl	8000458 <__aeabi_dcmplt>
 80004f2:	2800      	cmp	r0, #0
 80004f4:	d108      	bne.n	8000508 <__aeabi_d2lz+0x24>
 80004f6:	0020      	movs	r0, r4
 80004f8:	0029      	movs	r1, r5
 80004fa:	f000 f80f 	bl	800051c <__aeabi_d2ulz>
 80004fe:	0002      	movs	r2, r0
 8000500:	000b      	movs	r3, r1
 8000502:	0010      	movs	r0, r2
 8000504:	0019      	movs	r1, r3
 8000506:	bd70      	pop	{r4, r5, r6, pc}
 8000508:	2380      	movs	r3, #128	@ 0x80
 800050a:	061b      	lsls	r3, r3, #24
 800050c:	18e9      	adds	r1, r5, r3
 800050e:	0020      	movs	r0, r4
 8000510:	f000 f804 	bl	800051c <__aeabi_d2ulz>
 8000514:	2300      	movs	r3, #0
 8000516:	4242      	negs	r2, r0
 8000518:	418b      	sbcs	r3, r1
 800051a:	e7f2      	b.n	8000502 <__aeabi_d2lz+0x1e>

0800051c <__aeabi_d2ulz>:
 800051c:	b570      	push	{r4, r5, r6, lr}
 800051e:	2200      	movs	r2, #0
 8000520:	4b0b      	ldr	r3, [pc, #44]	@ (8000550 <__aeabi_d2ulz+0x34>)
 8000522:	000d      	movs	r5, r1
 8000524:	0004      	movs	r4, r0
 8000526:	f001 f82d 	bl	8001584 <__aeabi_dmul>
 800052a:	f7ff ffbd 	bl	80004a8 <__aeabi_d2uiz>
 800052e:	0006      	movs	r6, r0
 8000530:	f001 ff82 	bl	8002438 <__aeabi_ui2d>
 8000534:	2200      	movs	r2, #0
 8000536:	4b07      	ldr	r3, [pc, #28]	@ (8000554 <__aeabi_d2ulz+0x38>)
 8000538:	f001 f824 	bl	8001584 <__aeabi_dmul>
 800053c:	0002      	movs	r2, r0
 800053e:	000b      	movs	r3, r1
 8000540:	0020      	movs	r0, r4
 8000542:	0029      	movs	r1, r5
 8000544:	f001 fb04 	bl	8001b50 <__aeabi_dsub>
 8000548:	f7ff ffae 	bl	80004a8 <__aeabi_d2uiz>
 800054c:	0031      	movs	r1, r6
 800054e:	bd70      	pop	{r4, r5, r6, pc}
 8000550:	3df00000 	.word	0x3df00000
 8000554:	41f00000 	.word	0x41f00000

08000558 <__aeabi_l2d>:
 8000558:	b570      	push	{r4, r5, r6, lr}
 800055a:	0006      	movs	r6, r0
 800055c:	0008      	movs	r0, r1
 800055e:	f001 ff3d 	bl	80023dc <__aeabi_i2d>
 8000562:	2200      	movs	r2, #0
 8000564:	4b06      	ldr	r3, [pc, #24]	@ (8000580 <__aeabi_l2d+0x28>)
 8000566:	f001 f80d 	bl	8001584 <__aeabi_dmul>
 800056a:	000d      	movs	r5, r1
 800056c:	0004      	movs	r4, r0
 800056e:	0030      	movs	r0, r6
 8000570:	f001 ff62 	bl	8002438 <__aeabi_ui2d>
 8000574:	002b      	movs	r3, r5
 8000576:	0022      	movs	r2, r4
 8000578:	f000 f804 	bl	8000584 <__aeabi_dadd>
 800057c:	bd70      	pop	{r4, r5, r6, pc}
 800057e:	46c0      	nop			@ (mov r8, r8)
 8000580:	41f00000 	.word	0x41f00000

08000584 <__aeabi_dadd>:
 8000584:	b5f0      	push	{r4, r5, r6, r7, lr}
 8000586:	464f      	mov	r7, r9
 8000588:	4646      	mov	r6, r8
 800058a:	46d6      	mov	lr, sl
 800058c:	b5c0      	push	{r6, r7, lr}
 800058e:	b082      	sub	sp, #8
 8000590:	9000      	str	r0, [sp, #0]
 8000592:	9101      	str	r1, [sp, #4]
 8000594:	030e      	lsls	r6, r1, #12
 8000596:	004c      	lsls	r4, r1, #1
 8000598:	0fcd      	lsrs	r5, r1, #31
 800059a:	0a71      	lsrs	r1, r6, #9
 800059c:	9e00      	ldr	r6, [sp, #0]
 800059e:	005f      	lsls	r7, r3, #1
 80005a0:	0f76      	lsrs	r6, r6, #29
 80005a2:	430e      	orrs	r6, r1
 80005a4:	9900      	ldr	r1, [sp, #0]
 80005a6:	9200      	str	r2, [sp, #0]
 80005a8:	9301      	str	r3, [sp, #4]
 80005aa:	00c9      	lsls	r1, r1, #3
 80005ac:	4689      	mov	r9, r1
 80005ae:	0319      	lsls	r1, r3, #12
 80005b0:	0d7b      	lsrs	r3, r7, #21
 80005b2:	4698      	mov	r8, r3
 80005b4:	9b01      	ldr	r3, [sp, #4]
 80005b6:	0a49      	lsrs	r1, r1, #9
 80005b8:	0fdb      	lsrs	r3, r3, #31
 80005ba:	469c      	mov	ip, r3
 80005bc:	9b00      	ldr	r3, [sp, #0]
 80005be:	9a00      	ldr	r2, [sp, #0]
 80005c0:	0f5b      	lsrs	r3, r3, #29
 80005c2:	430b      	orrs	r3, r1
 80005c4:	4641      	mov	r1, r8
 80005c6:	0d64      	lsrs	r4, r4, #21
 80005c8:	00d2      	lsls	r2, r2, #3
 80005ca:	1a61      	subs	r1, r4, r1
 80005cc:	4565      	cmp	r5, ip
 80005ce:	d100      	bne.n	80005d2 <__aeabi_dadd+0x4e>
 80005d0:	e0a6      	b.n	8000720 <__aeabi_dadd+0x19c>
 80005d2:	2900      	cmp	r1, #0
 80005d4:	dd72      	ble.n	80006bc <__aeabi_dadd+0x138>
 80005d6:	4647      	mov	r7, r8
 80005d8:	2f00      	cmp	r7, #0
 80005da:	d100      	bne.n	80005de <__aeabi_dadd+0x5a>
 80005dc:	e0dd      	b.n	800079a <__aeabi_dadd+0x216>
 80005de:	4fcc      	ldr	r7, [pc, #816]	@ (8000910 <__aeabi_dadd+0x38c>)
 80005e0:	42bc      	cmp	r4, r7
 80005e2:	d100      	bne.n	80005e6 <__aeabi_dadd+0x62>
 80005e4:	e19a      	b.n	800091c <__aeabi_dadd+0x398>
 80005e6:	2701      	movs	r7, #1
 80005e8:	2938      	cmp	r1, #56	@ 0x38
 80005ea:	dc17      	bgt.n	800061c <__aeabi_dadd+0x98>
 80005ec:	2780      	movs	r7, #128	@ 0x80
 80005ee:	043f      	lsls	r7, r7, #16
 80005f0:	433b      	orrs	r3, r7
 80005f2:	291f      	cmp	r1, #31
 80005f4:	dd00      	ble.n	80005f8 <__aeabi_dadd+0x74>
 80005f6:	e1dd      	b.n	80009b4 <__aeabi_dadd+0x430>
 80005f8:	2720      	movs	r7, #32
 80005fa:	1a78      	subs	r0, r7, r1
 80005fc:	001f      	movs	r7, r3
 80005fe:	4087      	lsls	r7, r0
 8000600:	46ba      	mov	sl, r7
 8000602:	0017      	movs	r7, r2
 8000604:	40cf      	lsrs	r7, r1
 8000606:	4684      	mov	ip, r0
 8000608:	0038      	movs	r0, r7
 800060a:	4657      	mov	r7, sl
 800060c:	4307      	orrs	r7, r0
 800060e:	4660      	mov	r0, ip
 8000610:	4082      	lsls	r2, r0
 8000612:	40cb      	lsrs	r3, r1
 8000614:	1e50      	subs	r0, r2, #1
 8000616:	4182      	sbcs	r2, r0
 8000618:	1af6      	subs	r6, r6, r3
 800061a:	4317      	orrs	r7, r2
 800061c:	464b      	mov	r3, r9
 800061e:	1bdf      	subs	r7, r3, r7
 8000620:	45b9      	cmp	r9, r7
 8000622:	4180      	sbcs	r0, r0
 8000624:	4240      	negs	r0, r0
 8000626:	1a36      	subs	r6, r6, r0
 8000628:	0233      	lsls	r3, r6, #8
 800062a:	d400      	bmi.n	800062e <__aeabi_dadd+0xaa>
 800062c:	e0ff      	b.n	800082e <__aeabi_dadd+0x2aa>
 800062e:	0276      	lsls	r6, r6, #9
 8000630:	0a76      	lsrs	r6, r6, #9
 8000632:	2e00      	cmp	r6, #0
 8000634:	d100      	bne.n	8000638 <__aeabi_dadd+0xb4>
 8000636:	e13c      	b.n	80008b2 <__aeabi_dadd+0x32e>
 8000638:	0030      	movs	r0, r6
 800063a:	f001 ff21 	bl	8002480 <__clzsi2>
 800063e:	0003      	movs	r3, r0
 8000640:	3b08      	subs	r3, #8
 8000642:	2120      	movs	r1, #32
 8000644:	0038      	movs	r0, r7
 8000646:	1aca      	subs	r2, r1, r3
 8000648:	40d0      	lsrs	r0, r2
 800064a:	409e      	lsls	r6, r3
 800064c:	0002      	movs	r2, r0
 800064e:	409f      	lsls	r7, r3
 8000650:	4332      	orrs	r2, r6
 8000652:	429c      	cmp	r4, r3
 8000654:	dd00      	ble.n	8000658 <__aeabi_dadd+0xd4>
 8000656:	e1a6      	b.n	80009a6 <__aeabi_dadd+0x422>
 8000658:	1b18      	subs	r0, r3, r4
 800065a:	3001      	adds	r0, #1
 800065c:	1a09      	subs	r1, r1, r0
 800065e:	003e      	movs	r6, r7
 8000660:	408f      	lsls	r7, r1
 8000662:	40c6      	lsrs	r6, r0
 8000664:	1e7b      	subs	r3, r7, #1
 8000666:	419f      	sbcs	r7, r3
 8000668:	0013      	movs	r3, r2
 800066a:	408b      	lsls	r3, r1
 800066c:	4337      	orrs	r7, r6
 800066e:	431f      	orrs	r7, r3
 8000670:	40c2      	lsrs	r2, r0
 8000672:	003b      	movs	r3, r7
 8000674:	0016      	movs	r6, r2
 8000676:	2400      	movs	r4, #0
 8000678:	4313      	orrs	r3, r2
 800067a:	d100      	bne.n	800067e <__aeabi_dadd+0xfa>
 800067c:	e1df      	b.n	8000a3e <__aeabi_dadd+0x4ba>
 800067e:	077b      	lsls	r3, r7, #29
 8000680:	d100      	bne.n	8000684 <__aeabi_dadd+0x100>
 8000682:	e332      	b.n	8000cea <__aeabi_dadd+0x766>
 8000684:	230f      	movs	r3, #15
 8000686:	003a      	movs	r2, r7
 8000688:	403b      	ands	r3, r7
 800068a:	2b04      	cmp	r3, #4
 800068c:	d004      	beq.n	8000698 <__aeabi_dadd+0x114>
 800068e:	1d3a      	adds	r2, r7, #4
 8000690:	42ba      	cmp	r2, r7
 8000692:	41bf      	sbcs	r7, r7
 8000694:	427f      	negs	r7, r7
 8000696:	19f6      	adds	r6, r6, r7
 8000698:	0233      	lsls	r3, r6, #8
 800069a:	d400      	bmi.n	800069e <__aeabi_dadd+0x11a>
 800069c:	e323      	b.n	8000ce6 <__aeabi_dadd+0x762>
 800069e:	4b9c      	ldr	r3, [pc, #624]	@ (8000910 <__aeabi_dadd+0x38c>)
 80006a0:	3401      	adds	r4, #1
 80006a2:	429c      	cmp	r4, r3
 80006a4:	d100      	bne.n	80006a8 <__aeabi_dadd+0x124>
 80006a6:	e0b4      	b.n	8000812 <__aeabi_dadd+0x28e>
 80006a8:	4b9a      	ldr	r3, [pc, #616]	@ (8000914 <__aeabi_dadd+0x390>)
 80006aa:	0564      	lsls	r4, r4, #21
 80006ac:	401e      	ands	r6, r3
 80006ae:	0d64      	lsrs	r4, r4, #21
 80006b0:	0777      	lsls	r7, r6, #29
 80006b2:	08d2      	lsrs	r2, r2, #3
 80006b4:	0276      	lsls	r6, r6, #9
 80006b6:	4317      	orrs	r7, r2
 80006b8:	0b36      	lsrs	r6, r6, #12
 80006ba:	e0ac      	b.n	8000816 <__aeabi_dadd+0x292>
 80006bc:	2900      	cmp	r1, #0
 80006be:	d100      	bne.n	80006c2 <__aeabi_dadd+0x13e>
 80006c0:	e07e      	b.n	80007c0 <__aeabi_dadd+0x23c>
 80006c2:	4641      	mov	r1, r8
 80006c4:	1b09      	subs	r1, r1, r4
 80006c6:	2c00      	cmp	r4, #0
 80006c8:	d000      	beq.n	80006cc <__aeabi_dadd+0x148>
 80006ca:	e160      	b.n	800098e <__aeabi_dadd+0x40a>
 80006cc:	0034      	movs	r4, r6
 80006ce:	4648      	mov	r0, r9
 80006d0:	4304      	orrs	r4, r0
 80006d2:	d100      	bne.n	80006d6 <__aeabi_dadd+0x152>
 80006d4:	e1c9      	b.n	8000a6a <__aeabi_dadd+0x4e6>
 80006d6:	1e4c      	subs	r4, r1, #1
 80006d8:	2901      	cmp	r1, #1
 80006da:	d100      	bne.n	80006de <__aeabi_dadd+0x15a>
 80006dc:	e22e      	b.n	8000b3c <__aeabi_dadd+0x5b8>
 80006de:	4d8c      	ldr	r5, [pc, #560]	@ (8000910 <__aeabi_dadd+0x38c>)
 80006e0:	42a9      	cmp	r1, r5
 80006e2:	d100      	bne.n	80006e6 <__aeabi_dadd+0x162>
 80006e4:	e224      	b.n	8000b30 <__aeabi_dadd+0x5ac>
 80006e6:	2701      	movs	r7, #1
 80006e8:	2c38      	cmp	r4, #56	@ 0x38
 80006ea:	dc11      	bgt.n	8000710 <__aeabi_dadd+0x18c>
 80006ec:	0021      	movs	r1, r4
 80006ee:	291f      	cmp	r1, #31
 80006f0:	dd00      	ble.n	80006f4 <__aeabi_dadd+0x170>
 80006f2:	e20b      	b.n	8000b0c <__aeabi_dadd+0x588>
 80006f4:	2420      	movs	r4, #32
 80006f6:	0037      	movs	r7, r6
 80006f8:	4648      	mov	r0, r9
 80006fa:	1a64      	subs	r4, r4, r1
 80006fc:	40a7      	lsls	r7, r4
 80006fe:	40c8      	lsrs	r0, r1
 8000700:	4307      	orrs	r7, r0
 8000702:	4648      	mov	r0, r9
 8000704:	40a0      	lsls	r0, r4
 8000706:	40ce      	lsrs	r6, r1
 8000708:	1e44      	subs	r4, r0, #1
 800070a:	41a0      	sbcs	r0, r4
 800070c:	1b9b      	subs	r3, r3, r6
 800070e:	4307      	orrs	r7, r0
 8000710:	1bd7      	subs	r7, r2, r7
 8000712:	42ba      	cmp	r2, r7
 8000714:	4192      	sbcs	r2, r2
 8000716:	4252      	negs	r2, r2
 8000718:	4665      	mov	r5, ip
 800071a:	4644      	mov	r4, r8
 800071c:	1a9e      	subs	r6, r3, r2
 800071e:	e783      	b.n	8000628 <__aeabi_dadd+0xa4>
 8000720:	2900      	cmp	r1, #0
 8000722:	dc00      	bgt.n	8000726 <__aeabi_dadd+0x1a2>
 8000724:	e09c      	b.n	8000860 <__aeabi_dadd+0x2dc>
 8000726:	4647      	mov	r7, r8
 8000728:	2f00      	cmp	r7, #0
 800072a:	d167      	bne.n	80007fc <__aeabi_dadd+0x278>
 800072c:	001f      	movs	r7, r3
 800072e:	4317      	orrs	r7, r2
 8000730:	d100      	bne.n	8000734 <__aeabi_dadd+0x1b0>
 8000732:	e0e4      	b.n	80008fe <__aeabi_dadd+0x37a>
 8000734:	1e48      	subs	r0, r1, #1
 8000736:	2901      	cmp	r1, #1
 8000738:	d100      	bne.n	800073c <__aeabi_dadd+0x1b8>
 800073a:	e19b      	b.n	8000a74 <__aeabi_dadd+0x4f0>
 800073c:	4f74      	ldr	r7, [pc, #464]	@ (8000910 <__aeabi_dadd+0x38c>)
 800073e:	42b9      	cmp	r1, r7
 8000740:	d100      	bne.n	8000744 <__aeabi_dadd+0x1c0>
 8000742:	e0eb      	b.n	800091c <__aeabi_dadd+0x398>
 8000744:	2701      	movs	r7, #1
 8000746:	0001      	movs	r1, r0
 8000748:	2838      	cmp	r0, #56	@ 0x38
 800074a:	dc11      	bgt.n	8000770 <__aeabi_dadd+0x1ec>
 800074c:	291f      	cmp	r1, #31
 800074e:	dd00      	ble.n	8000752 <__aeabi_dadd+0x1ce>
 8000750:	e1c7      	b.n	8000ae2 <__aeabi_dadd+0x55e>
 8000752:	2720      	movs	r7, #32
 8000754:	1a78      	subs	r0, r7, r1
 8000756:	001f      	movs	r7, r3
 8000758:	4684      	mov	ip, r0
 800075a:	4087      	lsls	r7, r0
 800075c:	0010      	movs	r0, r2
 800075e:	40c8      	lsrs	r0, r1
 8000760:	4307      	orrs	r7, r0
 8000762:	4660      	mov	r0, ip
 8000764:	4082      	lsls	r2, r0
 8000766:	40cb      	lsrs	r3, r1
 8000768:	1e50      	subs	r0, r2, #1
 800076a:	4182      	sbcs	r2, r0
 800076c:	18f6      	adds	r6, r6, r3
 800076e:	4317      	orrs	r7, r2
 8000770:	444f      	add	r7, r9
 8000772:	454f      	cmp	r7, r9
 8000774:	4180      	sbcs	r0, r0
 8000776:	4240      	negs	r0, r0
 8000778:	1836      	adds	r6, r6, r0
 800077a:	0233      	lsls	r3, r6, #8
 800077c:	d557      	bpl.n	800082e <__aeabi_dadd+0x2aa>
 800077e:	4b64      	ldr	r3, [pc, #400]	@ (8000910 <__aeabi_dadd+0x38c>)
 8000780:	3401      	adds	r4, #1
 8000782:	429c      	cmp	r4, r3
 8000784:	d045      	beq.n	8000812 <__aeabi_dadd+0x28e>
 8000786:	2101      	movs	r1, #1
 8000788:	4b62      	ldr	r3, [pc, #392]	@ (8000914 <__aeabi_dadd+0x390>)
 800078a:	087a      	lsrs	r2, r7, #1
 800078c:	401e      	ands	r6, r3
 800078e:	4039      	ands	r1, r7
 8000790:	430a      	orrs	r2, r1
 8000792:	07f7      	lsls	r7, r6, #31
 8000794:	4317      	orrs	r7, r2
 8000796:	0876      	lsrs	r6, r6, #1
 8000798:	e771      	b.n	800067e <__aeabi_dadd+0xfa>
 800079a:	001f      	movs	r7, r3
 800079c:	4317      	orrs	r7, r2
 800079e:	d100      	bne.n	80007a2 <__aeabi_dadd+0x21e>
 80007a0:	e0ad      	b.n	80008fe <__aeabi_dadd+0x37a>
 80007a2:	1e4f      	subs	r7, r1, #1
 80007a4:	46bc      	mov	ip, r7
 80007a6:	2901      	cmp	r1, #1
 80007a8:	d100      	bne.n	80007ac <__aeabi_dadd+0x228>
 80007aa:	e182      	b.n	8000ab2 <__aeabi_dadd+0x52e>
 80007ac:	4f58      	ldr	r7, [pc, #352]	@ (8000910 <__aeabi_dadd+0x38c>)
 80007ae:	42b9      	cmp	r1, r7
 80007b0:	d100      	bne.n	80007b4 <__aeabi_dadd+0x230>
 80007b2:	e190      	b.n	8000ad6 <__aeabi_dadd+0x552>
 80007b4:	4661      	mov	r1, ip
 80007b6:	2701      	movs	r7, #1
 80007b8:	2938      	cmp	r1, #56	@ 0x38
 80007ba:	dd00      	ble.n	80007be <__aeabi_dadd+0x23a>
 80007bc:	e72e      	b.n	800061c <__aeabi_dadd+0x98>
 80007be:	e718      	b.n	80005f2 <__aeabi_dadd+0x6e>
 80007c0:	4f55      	ldr	r7, [pc, #340]	@ (8000918 <__aeabi_dadd+0x394>)
 80007c2:	1c61      	adds	r1, r4, #1
 80007c4:	4239      	tst	r1, r7
 80007c6:	d000      	beq.n	80007ca <__aeabi_dadd+0x246>
 80007c8:	e0d0      	b.n	800096c <__aeabi_dadd+0x3e8>
 80007ca:	0031      	movs	r1, r6
 80007cc:	4648      	mov	r0, r9
 80007ce:	001f      	movs	r7, r3
 80007d0:	4301      	orrs	r1, r0
 80007d2:	4317      	orrs	r7, r2
 80007d4:	2c00      	cmp	r4, #0
 80007d6:	d000      	beq.n	80007da <__aeabi_dadd+0x256>
 80007d8:	e13d      	b.n	8000a56 <__aeabi_dadd+0x4d2>
 80007da:	2900      	cmp	r1, #0
 80007dc:	d100      	bne.n	80007e0 <__aeabi_dadd+0x25c>
 80007de:	e1bc      	b.n	8000b5a <__aeabi_dadd+0x5d6>
 80007e0:	2f00      	cmp	r7, #0
 80007e2:	d000      	beq.n	80007e6 <__aeabi_dadd+0x262>
 80007e4:	e1bf      	b.n	8000b66 <__aeabi_dadd+0x5e2>
 80007e6:	464b      	mov	r3, r9
 80007e8:	2100      	movs	r1, #0
 80007ea:	08d8      	lsrs	r0, r3, #3
 80007ec:	0777      	lsls	r7, r6, #29
 80007ee:	4307      	orrs	r7, r0
 80007f0:	08f0      	lsrs	r0, r6, #3
 80007f2:	0306      	lsls	r6, r0, #12
 80007f4:	054c      	lsls	r4, r1, #21
 80007f6:	0b36      	lsrs	r6, r6, #12
 80007f8:	0d64      	lsrs	r4, r4, #21
 80007fa:	e00c      	b.n	8000816 <__aeabi_dadd+0x292>
 80007fc:	4f44      	ldr	r7, [pc, #272]	@ (8000910 <__aeabi_dadd+0x38c>)
 80007fe:	42bc      	cmp	r4, r7
 8000800:	d100      	bne.n	8000804 <__aeabi_dadd+0x280>
 8000802:	e08b      	b.n	800091c <__aeabi_dadd+0x398>
 8000804:	2701      	movs	r7, #1
 8000806:	2938      	cmp	r1, #56	@ 0x38
 8000808:	dcb2      	bgt.n	8000770 <__aeabi_dadd+0x1ec>
 800080a:	2780      	movs	r7, #128	@ 0x80
 800080c:	043f      	lsls	r7, r7, #16
 800080e:	433b      	orrs	r3, r7
 8000810:	e79c      	b.n	800074c <__aeabi_dadd+0x1c8>
 8000812:	2600      	movs	r6, #0
 8000814:	2700      	movs	r7, #0
 8000816:	0524      	lsls	r4, r4, #20
 8000818:	4334      	orrs	r4, r6
 800081a:	07ed      	lsls	r5, r5, #31
 800081c:	432c      	orrs	r4, r5
 800081e:	0038      	movs	r0, r7
 8000820:	0021      	movs	r1, r4
 8000822:	b002      	add	sp, #8
 8000824:	bce0      	pop	{r5, r6, r7}
 8000826:	46ba      	mov	sl, r7
 8000828:	46b1      	mov	r9, r6
 800082a:	46a8      	mov	r8, r5
 800082c:	bdf0      	pop	{r4, r5, r6, r7, pc}
 800082e:	077b      	lsls	r3, r7, #29
 8000830:	d004      	beq.n	800083c <__aeabi_dadd+0x2b8>
 8000832:	230f      	movs	r3, #15
 8000834:	403b      	ands	r3, r7
 8000836:	2b04      	cmp	r3, #4
 8000838:	d000      	beq.n	800083c <__aeabi_dadd+0x2b8>
 800083a:	e728      	b.n	800068e <__aeabi_dadd+0x10a>
 800083c:	08f8      	lsrs	r0, r7, #3
 800083e:	4b34      	ldr	r3, [pc, #208]	@ (8000910 <__aeabi_dadd+0x38c>)
 8000840:	0777      	lsls	r7, r6, #29
 8000842:	4307      	orrs	r7, r0
 8000844:	08f0      	lsrs	r0, r6, #3
 8000846:	429c      	cmp	r4, r3
 8000848:	d000      	beq.n	800084c <__aeabi_dadd+0x2c8>
 800084a:	e24a      	b.n	8000ce2 <__aeabi_dadd+0x75e>
 800084c:	003b      	movs	r3, r7
 800084e:	4303      	orrs	r3, r0
 8000850:	d059      	beq.n	8000906 <__aeabi_dadd+0x382>
 8000852:	2680      	movs	r6, #128	@ 0x80
 8000854:	0336      	lsls	r6, r6, #12
 8000856:	4306      	orrs	r6, r0
 8000858:	0336      	lsls	r6, r6, #12
 800085a:	4c2d      	ldr	r4, [pc, #180]	@ (8000910 <__aeabi_dadd+0x38c>)
 800085c:	0b36      	lsrs	r6, r6, #12
 800085e:	e7da      	b.n	8000816 <__aeabi_dadd+0x292>
 8000860:	2900      	cmp	r1, #0
 8000862:	d061      	beq.n	8000928 <__aeabi_dadd+0x3a4>
 8000864:	4641      	mov	r1, r8
 8000866:	1b09      	subs	r1, r1, r4
 8000868:	2c00      	cmp	r4, #0
 800086a:	d100      	bne.n	800086e <__aeabi_dadd+0x2ea>
 800086c:	e0b9      	b.n	80009e2 <__aeabi_dadd+0x45e>
 800086e:	4c28      	ldr	r4, [pc, #160]	@ (8000910 <__aeabi_dadd+0x38c>)
 8000870:	45a0      	cmp	r8, r4
 8000872:	d100      	bne.n	8000876 <__aeabi_dadd+0x2f2>
 8000874:	e1a5      	b.n	8000bc2 <__aeabi_dadd+0x63e>
 8000876:	2701      	movs	r7, #1
 8000878:	2938      	cmp	r1, #56	@ 0x38
 800087a:	dc13      	bgt.n	80008a4 <__aeabi_dadd+0x320>
 800087c:	2480      	movs	r4, #128	@ 0x80
 800087e:	0424      	lsls	r4, r4, #16
 8000880:	4326      	orrs	r6, r4
 8000882:	291f      	cmp	r1, #31
 8000884:	dd00      	ble.n	8000888 <__aeabi_dadd+0x304>
 8000886:	e1c8      	b.n	8000c1a <__aeabi_dadd+0x696>
 8000888:	2420      	movs	r4, #32
 800088a:	0037      	movs	r7, r6
 800088c:	4648      	mov	r0, r9
 800088e:	1a64      	subs	r4, r4, r1
 8000890:	40a7      	lsls	r7, r4
 8000892:	40c8      	lsrs	r0, r1
 8000894:	4307      	orrs	r7, r0
 8000896:	4648      	mov	r0, r9
 8000898:	40a0      	lsls	r0, r4
 800089a:	40ce      	lsrs	r6, r1
 800089c:	1e44      	subs	r4, r0, #1
 800089e:	41a0      	sbcs	r0, r4
 80008a0:	199b      	adds	r3, r3, r6
 80008a2:	4307      	orrs	r7, r0
 80008a4:	18bf      	adds	r7, r7, r2
 80008a6:	4297      	cmp	r7, r2
 80008a8:	4192      	sbcs	r2, r2
 80008aa:	4252      	negs	r2, r2
 80008ac:	4644      	mov	r4, r8
 80008ae:	18d6      	adds	r6, r2, r3
 80008b0:	e763      	b.n	800077a <__aeabi_dadd+0x1f6>
 80008b2:	0038      	movs	r0, r7
 80008b4:	f001 fde4 	bl	8002480 <__clzsi2>
 80008b8:	0003      	movs	r3, r0
 80008ba:	3318      	adds	r3, #24
 80008bc:	2b1f      	cmp	r3, #31
 80008be:	dc00      	bgt.n	80008c2 <__aeabi_dadd+0x33e>
 80008c0:	e6bf      	b.n	8000642 <__aeabi_dadd+0xbe>
 80008c2:	003a      	movs	r2, r7
 80008c4:	3808      	subs	r0, #8
 80008c6:	4082      	lsls	r2, r0
 80008c8:	429c      	cmp	r4, r3
 80008ca:	dd00      	ble.n	80008ce <__aeabi_dadd+0x34a>
 80008cc:	e083      	b.n	80009d6 <__aeabi_dadd+0x452>
 80008ce:	1b1b      	subs	r3, r3, r4
 80008d0:	1c58      	adds	r0, r3, #1
 80008d2:	281f      	cmp	r0, #31
 80008d4:	dc00      	bgt.n	80008d8 <__aeabi_dadd+0x354>
 80008d6:	e1b4      	b.n	8000c42 <__aeabi_dadd+0x6be>
 80008d8:	0017      	movs	r7, r2
 80008da:	3b1f      	subs	r3, #31
 80008dc:	40df      	lsrs	r7, r3
 80008de:	2820      	cmp	r0, #32
 80008e0:	d005      	beq.n	80008ee <__aeabi_dadd+0x36a>
 80008e2:	2340      	movs	r3, #64	@ 0x40
 80008e4:	1a1b      	subs	r3, r3, r0
 80008e6:	409a      	lsls	r2, r3
 80008e8:	1e53      	subs	r3, r2, #1
 80008ea:	419a      	sbcs	r2, r3
 80008ec:	4317      	orrs	r7, r2
 80008ee:	2400      	movs	r4, #0
 80008f0:	2f00      	cmp	r7, #0
 80008f2:	d00a      	beq.n	800090a <__aeabi_dadd+0x386>
 80008f4:	077b      	lsls	r3, r7, #29
 80008f6:	d000      	beq.n	80008fa <__aeabi_dadd+0x376>
 80008f8:	e6c4      	b.n	8000684 <__aeabi_dadd+0x100>
 80008fa:	0026      	movs	r6, r4
 80008fc:	e79e      	b.n	800083c <__aeabi_dadd+0x2b8>
 80008fe:	464b      	mov	r3, r9
 8000900:	000c      	movs	r4, r1
 8000902:	08d8      	lsrs	r0, r3, #3
 8000904:	e79b      	b.n	800083e <__aeabi_dadd+0x2ba>
 8000906:	2700      	movs	r7, #0
 8000908:	4c01      	ldr	r4, [pc, #4]	@ (8000910 <__aeabi_dadd+0x38c>)
 800090a:	2600      	movs	r6, #0
 800090c:	e783      	b.n	8000816 <__aeabi_dadd+0x292>
 800090e:	46c0      	nop			@ (mov r8, r8)
 8000910:	000007ff 	.word	0x000007ff
 8000914:	ff7fffff 	.word	0xff7fffff
 8000918:	000007fe 	.word	0x000007fe
 800091c:	464b      	mov	r3, r9
 800091e:	0777      	lsls	r7, r6, #29
 8000920:	08d8      	lsrs	r0, r3, #3
 8000922:	4307      	orrs	r7, r0
 8000924:	08f0      	lsrs	r0, r6, #3
 8000926:	e791      	b.n	800084c <__aeabi_dadd+0x2c8>
 8000928:	4fcd      	ldr	r7, [pc, #820]	@ (8000c60 <__aeabi_dadd+0x6dc>)
 800092a:	1c61      	adds	r1, r4, #1
 800092c:	4239      	tst	r1, r7
 800092e:	d16b      	bne.n	8000a08 <__aeabi_dadd+0x484>
 8000930:	0031      	movs	r1, r6
 8000932:	4648      	mov	r0, r9
 8000934:	4301      	orrs	r1, r0
 8000936:	2c00      	cmp	r4, #0
 8000938:	d000      	beq.n	800093c <__aeabi_dadd+0x3b8>
 800093a:	e14b      	b.n	8000bd4 <__aeabi_dadd+0x650>
 800093c:	001f      	movs	r7, r3
 800093e:	4317      	orrs	r7, r2
 8000940:	2900      	cmp	r1, #0
 8000942:	d100      	bne.n	8000946 <__aeabi_dadd+0x3c2>
 8000944:	e181      	b.n	8000c4a <__aeabi_dadd+0x6c6>
 8000946:	2f00      	cmp	r7, #0
 8000948:	d100      	bne.n	800094c <__aeabi_dadd+0x3c8>
 800094a:	e74c      	b.n	80007e6 <__aeabi_dadd+0x262>
 800094c:	444a      	add	r2, r9
 800094e:	454a      	cmp	r2, r9
 8000950:	4180      	sbcs	r0, r0
 8000952:	18f6      	adds	r6, r6, r3
 8000954:	4240      	negs	r0, r0
 8000956:	1836      	adds	r6, r6, r0
 8000958:	0233      	lsls	r3, r6, #8
 800095a:	d500      	bpl.n	800095e <__aeabi_dadd+0x3da>
 800095c:	e1b0      	b.n	8000cc0 <__aeabi_dadd+0x73c>
 800095e:	0017      	movs	r7, r2
 8000960:	4691      	mov	r9, r2
 8000962:	4337      	orrs	r7, r6
 8000964:	d000      	beq.n	8000968 <__aeabi_dadd+0x3e4>
 8000966:	e73e      	b.n	80007e6 <__aeabi_dadd+0x262>
 8000968:	2600      	movs	r6, #0
 800096a:	e754      	b.n	8000816 <__aeabi_dadd+0x292>
 800096c:	4649      	mov	r1, r9
 800096e:	1a89      	subs	r1, r1, r2
 8000970:	4688      	mov	r8, r1
 8000972:	45c1      	cmp	r9, r8
 8000974:	41bf      	sbcs	r7, r7
 8000976:	1af1      	subs	r1, r6, r3
 8000978:	427f      	negs	r7, r7
 800097a:	1bc9      	subs	r1, r1, r7
 800097c:	020f      	lsls	r7, r1, #8
 800097e:	d461      	bmi.n	8000a44 <__aeabi_dadd+0x4c0>
 8000980:	4647      	mov	r7, r8
 8000982:	430f      	orrs	r7, r1
 8000984:	d100      	bne.n	8000988 <__aeabi_dadd+0x404>
 8000986:	e0bd      	b.n	8000b04 <__aeabi_dadd+0x580>
 8000988:	000e      	movs	r6, r1
 800098a:	4647      	mov	r7, r8
 800098c:	e651      	b.n	8000632 <__aeabi_dadd+0xae>
 800098e:	4cb5      	ldr	r4, [pc, #724]	@ (8000c64 <__aeabi_dadd+0x6e0>)
 8000990:	45a0      	cmp	r8, r4
 8000992:	d100      	bne.n	8000996 <__aeabi_dadd+0x412>
 8000994:	e100      	b.n	8000b98 <__aeabi_dadd+0x614>
 8000996:	2701      	movs	r7, #1
 8000998:	2938      	cmp	r1, #56	@ 0x38
 800099a:	dd00      	ble.n	800099e <__aeabi_dadd+0x41a>
 800099c:	e6b8      	b.n	8000710 <__aeabi_dadd+0x18c>
 800099e:	2480      	movs	r4, #128	@ 0x80
 80009a0:	0424      	lsls	r4, r4, #16
 80009a2:	4326      	orrs	r6, r4
 80009a4:	e6a3      	b.n	80006ee <__aeabi_dadd+0x16a>
 80009a6:	4eb0      	ldr	r6, [pc, #704]	@ (8000c68 <__aeabi_dadd+0x6e4>)
 80009a8:	1ae4      	subs	r4, r4, r3
 80009aa:	4016      	ands	r6, r2
 80009ac:	077b      	lsls	r3, r7, #29
 80009ae:	d000      	beq.n	80009b2 <__aeabi_dadd+0x42e>
 80009b0:	e73f      	b.n	8000832 <__aeabi_dadd+0x2ae>
 80009b2:	e743      	b.n	800083c <__aeabi_dadd+0x2b8>
 80009b4:	000f      	movs	r7, r1
 80009b6:	0018      	movs	r0, r3
 80009b8:	3f20      	subs	r7, #32
 80009ba:	40f8      	lsrs	r0, r7
 80009bc:	4684      	mov	ip, r0
 80009be:	2920      	cmp	r1, #32
 80009c0:	d003      	beq.n	80009ca <__aeabi_dadd+0x446>
 80009c2:	2740      	movs	r7, #64	@ 0x40
 80009c4:	1a79      	subs	r1, r7, r1
 80009c6:	408b      	lsls	r3, r1
 80009c8:	431a      	orrs	r2, r3
 80009ca:	1e53      	subs	r3, r2, #1
 80009cc:	419a      	sbcs	r2, r3
 80009ce:	4663      	mov	r3, ip
 80009d0:	0017      	movs	r7, r2
 80009d2:	431f      	orrs	r7, r3
 80009d4:	e622      	b.n	800061c <__aeabi_dadd+0x98>
 80009d6:	48a4      	ldr	r0, [pc, #656]	@ (8000c68 <__aeabi_dadd+0x6e4>)
 80009d8:	1ae1      	subs	r1, r4, r3
 80009da:	4010      	ands	r0, r2
 80009dc:	0747      	lsls	r7, r0, #29
 80009de:	08c0      	lsrs	r0, r0, #3
 80009e0:	e707      	b.n	80007f2 <__aeabi_dadd+0x26e>
 80009e2:	0034      	movs	r4, r6
 80009e4:	4648      	mov	r0, r9
 80009e6:	4304      	orrs	r4, r0
 80009e8:	d100      	bne.n	80009ec <__aeabi_dadd+0x468>
 80009ea:	e0fa      	b.n	8000be2 <__aeabi_dadd+0x65e>
 80009ec:	1e4c      	subs	r4, r1, #1
 80009ee:	2901      	cmp	r1, #1
 80009f0:	d100      	bne.n	80009f4 <__aeabi_dadd+0x470>
 80009f2:	e0d7      	b.n	8000ba4 <__aeabi_dadd+0x620>
 80009f4:	4f9b      	ldr	r7, [pc, #620]	@ (8000c64 <__aeabi_dadd+0x6e0>)
 80009f6:	42b9      	cmp	r1, r7
 80009f8:	d100      	bne.n	80009fc <__aeabi_dadd+0x478>
 80009fa:	e0e2      	b.n	8000bc2 <__aeabi_dadd+0x63e>
 80009fc:	2701      	movs	r7, #1
 80009fe:	2c38      	cmp	r4, #56	@ 0x38
 8000a00:	dd00      	ble.n	8000a04 <__aeabi_dadd+0x480>
 8000a02:	e74f      	b.n	80008a4 <__aeabi_dadd+0x320>
 8000a04:	0021      	movs	r1, r4
 8000a06:	e73c      	b.n	8000882 <__aeabi_dadd+0x2fe>
 8000a08:	4c96      	ldr	r4, [pc, #600]	@ (8000c64 <__aeabi_dadd+0x6e0>)
 8000a0a:	42a1      	cmp	r1, r4
 8000a0c:	d100      	bne.n	8000a10 <__aeabi_dadd+0x48c>
 8000a0e:	e0dd      	b.n	8000bcc <__aeabi_dadd+0x648>
 8000a10:	444a      	add	r2, r9
 8000a12:	454a      	cmp	r2, r9
 8000a14:	4180      	sbcs	r0, r0
 8000a16:	18f3      	adds	r3, r6, r3
 8000a18:	4240      	negs	r0, r0
 8000a1a:	1818      	adds	r0, r3, r0
 8000a1c:	07c7      	lsls	r7, r0, #31
 8000a1e:	0852      	lsrs	r2, r2, #1
 8000a20:	4317      	orrs	r7, r2
 8000a22:	0846      	lsrs	r6, r0, #1
 8000a24:	0752      	lsls	r2, r2, #29
 8000a26:	d005      	beq.n	8000a34 <__aeabi_dadd+0x4b0>
 8000a28:	220f      	movs	r2, #15
 8000a2a:	000c      	movs	r4, r1
 8000a2c:	403a      	ands	r2, r7
 8000a2e:	2a04      	cmp	r2, #4
 8000a30:	d000      	beq.n	8000a34 <__aeabi_dadd+0x4b0>
 8000a32:	e62c      	b.n	800068e <__aeabi_dadd+0x10a>
 8000a34:	0776      	lsls	r6, r6, #29
 8000a36:	08ff      	lsrs	r7, r7, #3
 8000a38:	4337      	orrs	r7, r6
 8000a3a:	0900      	lsrs	r0, r0, #4
 8000a3c:	e6d9      	b.n	80007f2 <__aeabi_dadd+0x26e>
 8000a3e:	2700      	movs	r7, #0
 8000a40:	2600      	movs	r6, #0
 8000a42:	e6e8      	b.n	8000816 <__aeabi_dadd+0x292>
 8000a44:	4649      	mov	r1, r9
 8000a46:	1a57      	subs	r7, r2, r1
 8000a48:	42ba      	cmp	r2, r7
 8000a4a:	4192      	sbcs	r2, r2
 8000a4c:	1b9e      	subs	r6, r3, r6
 8000a4e:	4252      	negs	r2, r2
 8000a50:	4665      	mov	r5, ip
 8000a52:	1ab6      	subs	r6, r6, r2
 8000a54:	e5ed      	b.n	8000632 <__aeabi_dadd+0xae>
 8000a56:	2900      	cmp	r1, #0
 8000a58:	d000      	beq.n	8000a5c <__aeabi_dadd+0x4d8>
 8000a5a:	e0c6      	b.n	8000bea <__aeabi_dadd+0x666>
 8000a5c:	2f00      	cmp	r7, #0
 8000a5e:	d167      	bne.n	8000b30 <__aeabi_dadd+0x5ac>
 8000a60:	2680      	movs	r6, #128	@ 0x80
 8000a62:	2500      	movs	r5, #0
 8000a64:	4c7f      	ldr	r4, [pc, #508]	@ (8000c64 <__aeabi_dadd+0x6e0>)
 8000a66:	0336      	lsls	r6, r6, #12
 8000a68:	e6d5      	b.n	8000816 <__aeabi_dadd+0x292>
 8000a6a:	4665      	mov	r5, ip
 8000a6c:	000c      	movs	r4, r1
 8000a6e:	001e      	movs	r6, r3
 8000a70:	08d0      	lsrs	r0, r2, #3
 8000a72:	e6e4      	b.n	800083e <__aeabi_dadd+0x2ba>
 8000a74:	444a      	add	r2, r9
 8000a76:	454a      	cmp	r2, r9
 8000a78:	4180      	sbcs	r0, r0
 8000a7a:	18f3      	adds	r3, r6, r3
 8000a7c:	4240      	negs	r0, r0
 8000a7e:	1818      	adds	r0, r3, r0
 8000a80:	0011      	movs	r1, r2
 8000a82:	0203      	lsls	r3, r0, #8
 8000a84:	d400      	bmi.n	8000a88 <__aeabi_dadd+0x504>
 8000a86:	e096      	b.n	8000bb6 <__aeabi_dadd+0x632>
 8000a88:	4b77      	ldr	r3, [pc, #476]	@ (8000c68 <__aeabi_dadd+0x6e4>)
 8000a8a:	0849      	lsrs	r1, r1, #1
 8000a8c:	4018      	ands	r0, r3
 8000a8e:	07c3      	lsls	r3, r0, #31
 8000a90:	430b      	orrs	r3, r1
 8000a92:	0844      	lsrs	r4, r0, #1
 8000a94:	0749      	lsls	r1, r1, #29
 8000a96:	d100      	bne.n	8000a9a <__aeabi_dadd+0x516>
 8000a98:	e129      	b.n	8000cee <__aeabi_dadd+0x76a>
 8000a9a:	220f      	movs	r2, #15
 8000a9c:	401a      	ands	r2, r3
 8000a9e:	2a04      	cmp	r2, #4
 8000aa0:	d100      	bne.n	8000aa4 <__aeabi_dadd+0x520>
 8000aa2:	e0ea      	b.n	8000c7a <__aeabi_dadd+0x6f6>
 8000aa4:	1d1f      	adds	r7, r3, #4
 8000aa6:	429f      	cmp	r7, r3
 8000aa8:	41b6      	sbcs	r6, r6
 8000aaa:	4276      	negs	r6, r6
 8000aac:	1936      	adds	r6, r6, r4
 8000aae:	2402      	movs	r4, #2
 8000ab0:	e6c4      	b.n	800083c <__aeabi_dadd+0x2b8>
 8000ab2:	4649      	mov	r1, r9
 8000ab4:	1a8f      	subs	r7, r1, r2
 8000ab6:	45b9      	cmp	r9, r7
 8000ab8:	4180      	sbcs	r0, r0
 8000aba:	1af6      	subs	r6, r6, r3
 8000abc:	4240      	negs	r0, r0
 8000abe:	1a36      	subs	r6, r6, r0
 8000ac0:	0233      	lsls	r3, r6, #8
 8000ac2:	d406      	bmi.n	8000ad2 <__aeabi_dadd+0x54e>
 8000ac4:	0773      	lsls	r3, r6, #29
 8000ac6:	08ff      	lsrs	r7, r7, #3
 8000ac8:	2101      	movs	r1, #1
 8000aca:	431f      	orrs	r7, r3
 8000acc:	08f0      	lsrs	r0, r6, #3
 8000ace:	e690      	b.n	80007f2 <__aeabi_dadd+0x26e>
 8000ad0:	4665      	mov	r5, ip
 8000ad2:	2401      	movs	r4, #1
 8000ad4:	e5ab      	b.n	800062e <__aeabi_dadd+0xaa>
 8000ad6:	464b      	mov	r3, r9
 8000ad8:	0777      	lsls	r7, r6, #29
 8000ada:	08d8      	lsrs	r0, r3, #3
 8000adc:	4307      	orrs	r7, r0
 8000ade:	08f0      	lsrs	r0, r6, #3
 8000ae0:	e6b4      	b.n	800084c <__aeabi_dadd+0x2c8>
 8000ae2:	000f      	movs	r7, r1
 8000ae4:	0018      	movs	r0, r3
 8000ae6:	3f20      	subs	r7, #32
 8000ae8:	40f8      	lsrs	r0, r7
 8000aea:	4684      	mov	ip, r0
 8000aec:	2920      	cmp	r1, #32
 8000aee:	d003      	beq.n	8000af8 <__aeabi_dadd+0x574>
 8000af0:	2740      	movs	r7, #64	@ 0x40
 8000af2:	1a79      	subs	r1, r7, r1
 8000af4:	408b      	lsls	r3, r1
 8000af6:	431a      	orrs	r2, r3
 8000af8:	1e53      	subs	r3, r2, #1
 8000afa:	419a      	sbcs	r2, r3
 8000afc:	4663      	mov	r3, ip
 8000afe:	0017      	movs	r7, r2
 8000b00:	431f      	orrs	r7, r3
 8000b02:	e635      	b.n	8000770 <__aeabi_dadd+0x1ec>
 8000b04:	2500      	movs	r5, #0
 8000b06:	2400      	movs	r4, #0
 8000b08:	2600      	movs	r6, #0
 8000b0a:	e684      	b.n	8000816 <__aeabi_dadd+0x292>
 8000b0c:	000c      	movs	r4, r1
 8000b0e:	0035      	movs	r5, r6
 8000b10:	3c20      	subs	r4, #32
 8000b12:	40e5      	lsrs	r5, r4
 8000b14:	2920      	cmp	r1, #32
 8000b16:	d005      	beq.n	8000b24 <__aeabi_dadd+0x5a0>
 8000b18:	2440      	movs	r4, #64	@ 0x40
 8000b1a:	1a61      	subs	r1, r4, r1
 8000b1c:	408e      	lsls	r6, r1
 8000b1e:	4649      	mov	r1, r9
 8000b20:	4331      	orrs	r1, r6
 8000b22:	4689      	mov	r9, r1
 8000b24:	4648      	mov	r0, r9
 8000b26:	1e41      	subs	r1, r0, #1
 8000b28:	4188      	sbcs	r0, r1
 8000b2a:	0007      	movs	r7, r0
 8000b2c:	432f      	orrs	r7, r5
 8000b2e:	e5ef      	b.n	8000710 <__aeabi_dadd+0x18c>
 8000b30:	08d2      	lsrs	r2, r2, #3
 8000b32:	075f      	lsls	r7, r3, #29
 8000b34:	4665      	mov	r5, ip
 8000b36:	4317      	orrs	r7, r2
 8000b38:	08d8      	lsrs	r0, r3, #3
 8000b3a:	e687      	b.n	800084c <__aeabi_dadd+0x2c8>
 8000b3c:	1a17      	subs	r7, r2, r0
 8000b3e:	42ba      	cmp	r2, r7
 8000b40:	4192      	sbcs	r2, r2
 8000b42:	1b9e      	subs	r6, r3, r6
 8000b44:	4252      	negs	r2, r2
 8000b46:	1ab6      	subs	r6, r6, r2
 8000b48:	0233      	lsls	r3, r6, #8
 8000b4a:	d4c1      	bmi.n	8000ad0 <__aeabi_dadd+0x54c>
 8000b4c:	0773      	lsls	r3, r6, #29
 8000b4e:	08ff      	lsrs	r7, r7, #3
 8000b50:	4665      	mov	r5, ip
 8000b52:	2101      	movs	r1, #1
 8000b54:	431f      	orrs	r7, r3
 8000b56:	08f0      	lsrs	r0, r6, #3
 8000b58:	e64b      	b.n	80007f2 <__aeabi_dadd+0x26e>
 8000b5a:	2f00      	cmp	r7, #0
 8000b5c:	d07b      	beq.n	8000c56 <__aeabi_dadd+0x6d2>
 8000b5e:	4665      	mov	r5, ip
 8000b60:	001e      	movs	r6, r3
 8000b62:	4691      	mov	r9, r2
 8000b64:	e63f      	b.n	80007e6 <__aeabi_dadd+0x262>
 8000b66:	1a81      	subs	r1, r0, r2
 8000b68:	4688      	mov	r8, r1
 8000b6a:	45c1      	cmp	r9, r8
 8000b6c:	41a4      	sbcs	r4, r4
 8000b6e:	1af1      	subs	r1, r6, r3
 8000b70:	4264      	negs	r4, r4
 8000b72:	1b09      	subs	r1, r1, r4
 8000b74:	2480      	movs	r4, #128	@ 0x80
 8000b76:	0424      	lsls	r4, r4, #16
 8000b78:	4221      	tst	r1, r4
 8000b7a:	d077      	beq.n	8000c6c <__aeabi_dadd+0x6e8>
 8000b7c:	1a10      	subs	r0, r2, r0
 8000b7e:	4282      	cmp	r2, r0
 8000b80:	4192      	sbcs	r2, r2
 8000b82:	0007      	movs	r7, r0
 8000b84:	1b9e      	subs	r6, r3, r6
 8000b86:	4252      	negs	r2, r2
 8000b88:	1ab6      	subs	r6, r6, r2
 8000b8a:	4337      	orrs	r7, r6
 8000b8c:	d000      	beq.n	8000b90 <__aeabi_dadd+0x60c>
 8000b8e:	e0a0      	b.n	8000cd2 <__aeabi_dadd+0x74e>
 8000b90:	4665      	mov	r5, ip
 8000b92:	2400      	movs	r4, #0
 8000b94:	2600      	movs	r6, #0
 8000b96:	e63e      	b.n	8000816 <__aeabi_dadd+0x292>
 8000b98:	075f      	lsls	r7, r3, #29
 8000b9a:	08d2      	lsrs	r2, r2, #3
 8000b9c:	4665      	mov	r5, ip
 8000b9e:	4317      	orrs	r7, r2
 8000ba0:	08d8      	lsrs	r0, r3, #3
 8000ba2:	e653      	b.n	800084c <__aeabi_dadd+0x2c8>
 8000ba4:	1881      	adds	r1, r0, r2
 8000ba6:	4291      	cmp	r1, r2
 8000ba8:	4192      	sbcs	r2, r2
 8000baa:	18f0      	adds	r0, r6, r3
 8000bac:	4252      	negs	r2, r2
 8000bae:	1880      	adds	r0, r0, r2
 8000bb0:	0203      	lsls	r3, r0, #8
 8000bb2:	d500      	bpl.n	8000bb6 <__aeabi_dadd+0x632>
 8000bb4:	e768      	b.n	8000a88 <__aeabi_dadd+0x504>
 8000bb6:	0747      	lsls	r7, r0, #29
 8000bb8:	08c9      	lsrs	r1, r1, #3
 8000bba:	430f      	orrs	r7, r1
 8000bbc:	08c0      	lsrs	r0, r0, #3
 8000bbe:	2101      	movs	r1, #1
 8000bc0:	e617      	b.n	80007f2 <__aeabi_dadd+0x26e>
 8000bc2:	08d2      	lsrs	r2, r2, #3
 8000bc4:	075f      	lsls	r7, r3, #29
 8000bc6:	4317      	orrs	r7, r2
 8000bc8:	08d8      	lsrs	r0, r3, #3
 8000bca:	e63f      	b.n	800084c <__aeabi_dadd+0x2c8>
 8000bcc:	000c      	movs	r4, r1
 8000bce:	2600      	movs	r6, #0
 8000bd0:	2700      	movs	r7, #0
 8000bd2:	e620      	b.n	8000816 <__aeabi_dadd+0x292>
 8000bd4:	2900      	cmp	r1, #0
 8000bd6:	d156      	bne.n	8000c86 <__aeabi_dadd+0x702>
 8000bd8:	075f      	lsls	r7, r3, #29
 8000bda:	08d2      	lsrs	r2, r2, #3
 8000bdc:	4317      	orrs	r7, r2
 8000bde:	08d8      	lsrs	r0, r3, #3
 8000be0:	e634      	b.n	800084c <__aeabi_dadd+0x2c8>
 8000be2:	000c      	movs	r4, r1
 8000be4:	001e      	movs	r6, r3
 8000be6:	08d0      	lsrs	r0, r2, #3
 8000be8:	e629      	b.n	800083e <__aeabi_dadd+0x2ba>
 8000bea:	08c1      	lsrs	r1, r0, #3
 8000bec:	0770      	lsls	r0, r6, #29
 8000bee:	4301      	orrs	r1, r0
 8000bf0:	08f0      	lsrs	r0, r6, #3
 8000bf2:	2f00      	cmp	r7, #0
 8000bf4:	d062      	beq.n	8000cbc <__aeabi_dadd+0x738>
 8000bf6:	2480      	movs	r4, #128	@ 0x80
 8000bf8:	0324      	lsls	r4, r4, #12
 8000bfa:	4220      	tst	r0, r4
 8000bfc:	d007      	beq.n	8000c0e <__aeabi_dadd+0x68a>
 8000bfe:	08de      	lsrs	r6, r3, #3
 8000c00:	4226      	tst	r6, r4
 8000c02:	d104      	bne.n	8000c0e <__aeabi_dadd+0x68a>
 8000c04:	4665      	mov	r5, ip
 8000c06:	0030      	movs	r0, r6
 8000c08:	08d1      	lsrs	r1, r2, #3
 8000c0a:	075b      	lsls	r3, r3, #29
 8000c0c:	4319      	orrs	r1, r3
 8000c0e:	0f4f      	lsrs	r7, r1, #29
 8000c10:	00c9      	lsls	r1, r1, #3
 8000c12:	08c9      	lsrs	r1, r1, #3
 8000c14:	077f      	lsls	r7, r7, #29
 8000c16:	430f      	orrs	r7, r1
 8000c18:	e618      	b.n	800084c <__aeabi_dadd+0x2c8>
 8000c1a:	000c      	movs	r4, r1
 8000c1c:	0030      	movs	r0, r6
 8000c1e:	3c20      	subs	r4, #32
 8000c20:	40e0      	lsrs	r0, r4
 8000c22:	4684      	mov	ip, r0
 8000c24:	2920      	cmp	r1, #32
 8000c26:	d005      	beq.n	8000c34 <__aeabi_dadd+0x6b0>
 8000c28:	2440      	movs	r4, #64	@ 0x40
 8000c2a:	1a61      	subs	r1, r4, r1
 8000c2c:	408e      	lsls	r6, r1
 8000c2e:	4649      	mov	r1, r9
 8000c30:	4331      	orrs	r1, r6
 8000c32:	4689      	mov	r9, r1
 8000c34:	4648      	mov	r0, r9
 8000c36:	1e41      	subs	r1, r0, #1
 8000c38:	4188      	sbcs	r0, r1
 8000c3a:	4661      	mov	r1, ip
 8000c3c:	0007      	movs	r7, r0
 8000c3e:	430f      	orrs	r7, r1
 8000c40:	e630      	b.n	80008a4 <__aeabi_dadd+0x320>
 8000c42:	2120      	movs	r1, #32
 8000c44:	2700      	movs	r7, #0
 8000c46:	1a09      	subs	r1, r1, r0
 8000c48:	e50e      	b.n	8000668 <__aeabi_dadd+0xe4>
 8000c4a:	001e      	movs	r6, r3
 8000c4c:	2f00      	cmp	r7, #0
 8000c4e:	d000      	beq.n	8000c52 <__aeabi_dadd+0x6ce>
 8000c50:	e522      	b.n	8000698 <__aeabi_dadd+0x114>
 8000c52:	2400      	movs	r4, #0
 8000c54:	e758      	b.n	8000b08 <__aeabi_dadd+0x584>
 8000c56:	2500      	movs	r5, #0
 8000c58:	2400      	movs	r4, #0
 8000c5a:	2600      	movs	r6, #0
 8000c5c:	e5db      	b.n	8000816 <__aeabi_dadd+0x292>
 8000c5e:	46c0      	nop			@ (mov r8, r8)
 8000c60:	000007fe 	.word	0x000007fe
 8000c64:	000007ff 	.word	0x000007ff
 8000c68:	ff7fffff 	.word	0xff7fffff
 8000c6c:	4647      	mov	r7, r8
 8000c6e:	430f      	orrs	r7, r1
 8000c70:	d100      	bne.n	8000c74 <__aeabi_dadd+0x6f0>
 8000c72:	e747      	b.n	8000b04 <__aeabi_dadd+0x580>
 8000c74:	000e      	movs	r6, r1
 8000c76:	46c1      	mov	r9, r8
 8000c78:	e5b5      	b.n	80007e6 <__aeabi_dadd+0x262>
 8000c7a:	08df      	lsrs	r7, r3, #3
 8000c7c:	0764      	lsls	r4, r4, #29
 8000c7e:	2102      	movs	r1, #2
 8000c80:	4327      	orrs	r7, r4
 8000c82:	0900      	lsrs	r0, r0, #4
 8000c84:	e5b5      	b.n	80007f2 <__aeabi_dadd+0x26e>
 8000c86:	0019      	movs	r1, r3
 8000c88:	08c0      	lsrs	r0, r0, #3
 8000c8a:	0777      	lsls	r7, r6, #29
 8000c8c:	4307      	orrs	r7, r0
 8000c8e:	4311      	orrs	r1, r2
 8000c90:	08f0      	lsrs	r0, r6, #3
 8000c92:	2900      	cmp	r1, #0
 8000c94:	d100      	bne.n	8000c98 <__aeabi_dadd+0x714>
 8000c96:	e5d9      	b.n	800084c <__aeabi_dadd+0x2c8>
 8000c98:	2180      	movs	r1, #128	@ 0x80
 8000c9a:	0309      	lsls	r1, r1, #12
 8000c9c:	4208      	tst	r0, r1
 8000c9e:	d007      	beq.n	8000cb0 <__aeabi_dadd+0x72c>
 8000ca0:	08dc      	lsrs	r4, r3, #3
 8000ca2:	420c      	tst	r4, r1
 8000ca4:	d104      	bne.n	8000cb0 <__aeabi_dadd+0x72c>
 8000ca6:	08d2      	lsrs	r2, r2, #3
 8000ca8:	075b      	lsls	r3, r3, #29
 8000caa:	431a      	orrs	r2, r3
 8000cac:	0017      	movs	r7, r2
 8000cae:	0020      	movs	r0, r4
 8000cb0:	0f7b      	lsrs	r3, r7, #29
 8000cb2:	00ff      	lsls	r7, r7, #3
 8000cb4:	08ff      	lsrs	r7, r7, #3
 8000cb6:	075b      	lsls	r3, r3, #29
 8000cb8:	431f      	orrs	r7, r3
 8000cba:	e5c7      	b.n	800084c <__aeabi_dadd+0x2c8>
 8000cbc:	000f      	movs	r7, r1
 8000cbe:	e5c5      	b.n	800084c <__aeabi_dadd+0x2c8>
 8000cc0:	4b12      	ldr	r3, [pc, #72]	@ (8000d0c <__aeabi_dadd+0x788>)
 8000cc2:	08d2      	lsrs	r2, r2, #3
 8000cc4:	4033      	ands	r3, r6
 8000cc6:	075f      	lsls	r7, r3, #29
 8000cc8:	025b      	lsls	r3, r3, #9
 8000cca:	2401      	movs	r4, #1
 8000ccc:	4317      	orrs	r7, r2
 8000cce:	0b1e      	lsrs	r6, r3, #12
 8000cd0:	e5a1      	b.n	8000816 <__aeabi_dadd+0x292>
 8000cd2:	4226      	tst	r6, r4
 8000cd4:	d012      	beq.n	8000cfc <__aeabi_dadd+0x778>
 8000cd6:	4b0d      	ldr	r3, [pc, #52]	@ (8000d0c <__aeabi_dadd+0x788>)
 8000cd8:	4665      	mov	r5, ip
 8000cda:	0002      	movs	r2, r0
 8000cdc:	2401      	movs	r4, #1
 8000cde:	401e      	ands	r6, r3
 8000ce0:	e4e6      	b.n	80006b0 <__aeabi_dadd+0x12c>
 8000ce2:	0021      	movs	r1, r4
 8000ce4:	e585      	b.n	80007f2 <__aeabi_dadd+0x26e>
 8000ce6:	0017      	movs	r7, r2
 8000ce8:	e5a8      	b.n	800083c <__aeabi_dadd+0x2b8>
 8000cea:	003a      	movs	r2, r7
 8000cec:	e4d4      	b.n	8000698 <__aeabi_dadd+0x114>
 8000cee:	08db      	lsrs	r3, r3, #3
 8000cf0:	0764      	lsls	r4, r4, #29
 8000cf2:	431c      	orrs	r4, r3
 8000cf4:	0027      	movs	r7, r4
 8000cf6:	2102      	movs	r1, #2
 8000cf8:	0900      	lsrs	r0, r0, #4
 8000cfa:	e57a      	b.n	80007f2 <__aeabi_dadd+0x26e>
 8000cfc:	08c0      	lsrs	r0, r0, #3
 8000cfe:	0777      	lsls	r7, r6, #29
 8000d00:	4307      	orrs	r7, r0
 8000d02:	4665      	mov	r5, ip
 8000d04:	2100      	movs	r1, #0
 8000d06:	08f0      	lsrs	r0, r6, #3
 8000d08:	e573      	b.n	80007f2 <__aeabi_dadd+0x26e>
 8000d0a:	46c0      	nop			@ (mov r8, r8)
 8000d0c:	ff7fffff 	.word	0xff7fffff

08000d10 <__aeabi_ddiv>:
 8000d10:	b5f0      	push	{r4, r5, r6, r7, lr}
 8000d12:	46de      	mov	lr, fp
 8000d14:	4645      	mov	r5, r8
 8000d16:	4657      	mov	r7, sl
 8000d18:	464e      	mov	r6, r9
 8000d1a:	b5e0      	push	{r5, r6, r7, lr}
 8000d1c:	b087      	sub	sp, #28
 8000d1e:	9200      	str	r2, [sp, #0]
 8000d20:	9301      	str	r3, [sp, #4]
 8000d22:	030b      	lsls	r3, r1, #12
 8000d24:	0b1b      	lsrs	r3, r3, #12
 8000d26:	469b      	mov	fp, r3
 8000d28:	0fca      	lsrs	r2, r1, #31
 8000d2a:	004b      	lsls	r3, r1, #1
 8000d2c:	0004      	movs	r4, r0
 8000d2e:	4680      	mov	r8, r0
 8000d30:	0d5b      	lsrs	r3, r3, #21
 8000d32:	9202      	str	r2, [sp, #8]
 8000d34:	d100      	bne.n	8000d38 <__aeabi_ddiv+0x28>
 8000d36:	e098      	b.n	8000e6a <__aeabi_ddiv+0x15a>
 8000d38:	4a7c      	ldr	r2, [pc, #496]	@ (8000f2c <__aeabi_ddiv+0x21c>)
 8000d3a:	4293      	cmp	r3, r2
 8000d3c:	d037      	beq.n	8000dae <__aeabi_ddiv+0x9e>
 8000d3e:	4659      	mov	r1, fp
 8000d40:	0f42      	lsrs	r2, r0, #29
 8000d42:	00c9      	lsls	r1, r1, #3
 8000d44:	430a      	orrs	r2, r1
 8000d46:	2180      	movs	r1, #128	@ 0x80
 8000d48:	0409      	lsls	r1, r1, #16
 8000d4a:	4311      	orrs	r1, r2
 8000d4c:	00c2      	lsls	r2, r0, #3
 8000d4e:	4690      	mov	r8, r2
 8000d50:	4a77      	ldr	r2, [pc, #476]	@ (8000f30 <__aeabi_ddiv+0x220>)
 8000d52:	4689      	mov	r9, r1
 8000d54:	4692      	mov	sl, r2
 8000d56:	449a      	add	sl, r3
 8000d58:	2300      	movs	r3, #0
 8000d5a:	2400      	movs	r4, #0
 8000d5c:	9303      	str	r3, [sp, #12]
 8000d5e:	9e00      	ldr	r6, [sp, #0]
 8000d60:	9f01      	ldr	r7, [sp, #4]
 8000d62:	033b      	lsls	r3, r7, #12
 8000d64:	0b1b      	lsrs	r3, r3, #12
 8000d66:	469b      	mov	fp, r3
 8000d68:	007b      	lsls	r3, r7, #1
 8000d6a:	0030      	movs	r0, r6
 8000d6c:	0d5b      	lsrs	r3, r3, #21
 8000d6e:	0ffd      	lsrs	r5, r7, #31
 8000d70:	2b00      	cmp	r3, #0
 8000d72:	d059      	beq.n	8000e28 <__aeabi_ddiv+0x118>
 8000d74:	4a6d      	ldr	r2, [pc, #436]	@ (8000f2c <__aeabi_ddiv+0x21c>)
 8000d76:	4293      	cmp	r3, r2
 8000d78:	d048      	beq.n	8000e0c <__aeabi_ddiv+0xfc>
 8000d7a:	4659      	mov	r1, fp
 8000d7c:	0f72      	lsrs	r2, r6, #29
 8000d7e:	00c9      	lsls	r1, r1, #3
 8000d80:	430a      	orrs	r2, r1
 8000d82:	2180      	movs	r1, #128	@ 0x80
 8000d84:	0409      	lsls	r1, r1, #16
 8000d86:	4311      	orrs	r1, r2
 8000d88:	468b      	mov	fp, r1
 8000d8a:	4969      	ldr	r1, [pc, #420]	@ (8000f30 <__aeabi_ddiv+0x220>)
 8000d8c:	00f2      	lsls	r2, r6, #3
 8000d8e:	468c      	mov	ip, r1
 8000d90:	4651      	mov	r1, sl
 8000d92:	4463      	add	r3, ip
 8000d94:	1acb      	subs	r3, r1, r3
 8000d96:	469a      	mov	sl, r3
 8000d98:	2100      	movs	r1, #0
 8000d9a:	9e02      	ldr	r6, [sp, #8]
 8000d9c:	406e      	eors	r6, r5
 8000d9e:	b2f6      	uxtb	r6, r6
 8000da0:	2c0f      	cmp	r4, #15
 8000da2:	d900      	bls.n	8000da6 <__aeabi_ddiv+0x96>
 8000da4:	e0ce      	b.n	8000f44 <__aeabi_ddiv+0x234>
 8000da6:	4b63      	ldr	r3, [pc, #396]	@ (8000f34 <__aeabi_ddiv+0x224>)
 8000da8:	00a4      	lsls	r4, r4, #2
 8000daa:	591b      	ldr	r3, [r3, r4]
 8000dac:	469f      	mov	pc, r3
 8000dae:	465a      	mov	r2, fp
 8000db0:	4302      	orrs	r2, r0
 8000db2:	4691      	mov	r9, r2
 8000db4:	d000      	beq.n	8000db8 <__aeabi_ddiv+0xa8>
 8000db6:	e090      	b.n	8000eda <__aeabi_ddiv+0x1ca>
 8000db8:	469a      	mov	sl, r3
 8000dba:	2302      	movs	r3, #2
 8000dbc:	4690      	mov	r8, r2
 8000dbe:	2408      	movs	r4, #8
 8000dc0:	9303      	str	r3, [sp, #12]
 8000dc2:	e7cc      	b.n	8000d5e <__aeabi_ddiv+0x4e>
 8000dc4:	46cb      	mov	fp, r9
 8000dc6:	4642      	mov	r2, r8
 8000dc8:	9d02      	ldr	r5, [sp, #8]
 8000dca:	9903      	ldr	r1, [sp, #12]
 8000dcc:	2902      	cmp	r1, #2
 8000dce:	d100      	bne.n	8000dd2 <__aeabi_ddiv+0xc2>
 8000dd0:	e1de      	b.n	8001190 <__aeabi_ddiv+0x480>
 8000dd2:	2903      	cmp	r1, #3
 8000dd4:	d100      	bne.n	8000dd8 <__aeabi_ddiv+0xc8>
 8000dd6:	e08d      	b.n	8000ef4 <__aeabi_ddiv+0x1e4>
 8000dd8:	2901      	cmp	r1, #1
 8000dda:	d000      	beq.n	8000dde <__aeabi_ddiv+0xce>
 8000ddc:	e179      	b.n	80010d2 <__aeabi_ddiv+0x3c2>
 8000dde:	002e      	movs	r6, r5
 8000de0:	2200      	movs	r2, #0
 8000de2:	2300      	movs	r3, #0
 8000de4:	2400      	movs	r4, #0
 8000de6:	4690      	mov	r8, r2
 8000de8:	051b      	lsls	r3, r3, #20
 8000dea:	4323      	orrs	r3, r4
 8000dec:	07f6      	lsls	r6, r6, #31
 8000dee:	4333      	orrs	r3, r6
 8000df0:	4640      	mov	r0, r8
 8000df2:	0019      	movs	r1, r3
 8000df4:	b007      	add	sp, #28
 8000df6:	bcf0      	pop	{r4, r5, r6, r7}
 8000df8:	46bb      	mov	fp, r7
 8000dfa:	46b2      	mov	sl, r6
 8000dfc:	46a9      	mov	r9, r5
 8000dfe:	46a0      	mov	r8, r4
 8000e00:	bdf0      	pop	{r4, r5, r6, r7, pc}
 8000e02:	2200      	movs	r2, #0
 8000e04:	2400      	movs	r4, #0
 8000e06:	4690      	mov	r8, r2
 8000e08:	4b48      	ldr	r3, [pc, #288]	@ (8000f2c <__aeabi_ddiv+0x21c>)
 8000e0a:	e7ed      	b.n	8000de8 <__aeabi_ddiv+0xd8>
 8000e0c:	465a      	mov	r2, fp
 8000e0e:	9b00      	ldr	r3, [sp, #0]
 8000e10:	431a      	orrs	r2, r3
 8000e12:	4b49      	ldr	r3, [pc, #292]	@ (8000f38 <__aeabi_ddiv+0x228>)
 8000e14:	469c      	mov	ip, r3
 8000e16:	44e2      	add	sl, ip
 8000e18:	2a00      	cmp	r2, #0
 8000e1a:	d159      	bne.n	8000ed0 <__aeabi_ddiv+0x1c0>
 8000e1c:	2302      	movs	r3, #2
 8000e1e:	431c      	orrs	r4, r3
 8000e20:	2300      	movs	r3, #0
 8000e22:	2102      	movs	r1, #2
 8000e24:	469b      	mov	fp, r3
 8000e26:	e7b8      	b.n	8000d9a <__aeabi_ddiv+0x8a>
 8000e28:	465a      	mov	r2, fp
 8000e2a:	9b00      	ldr	r3, [sp, #0]
 8000e2c:	431a      	orrs	r2, r3
 8000e2e:	d049      	beq.n	8000ec4 <__aeabi_ddiv+0x1b4>
 8000e30:	465b      	mov	r3, fp
 8000e32:	2b00      	cmp	r3, #0
 8000e34:	d100      	bne.n	8000e38 <__aeabi_ddiv+0x128>
 8000e36:	e19c      	b.n	8001172 <__aeabi_ddiv+0x462>
 8000e38:	4658      	mov	r0, fp
 8000e3a:	f001 fb21 	bl	8002480 <__clzsi2>
 8000e3e:	0002      	movs	r2, r0
 8000e40:	0003      	movs	r3, r0
 8000e42:	3a0b      	subs	r2, #11
 8000e44:	271d      	movs	r7, #29
 8000e46:	9e00      	ldr	r6, [sp, #0]
 8000e48:	1aba      	subs	r2, r7, r2
 8000e4a:	0019      	movs	r1, r3
 8000e4c:	4658      	mov	r0, fp
 8000e4e:	40d6      	lsrs	r6, r2
 8000e50:	3908      	subs	r1, #8
 8000e52:	4088      	lsls	r0, r1
 8000e54:	0032      	movs	r2, r6
 8000e56:	4302      	orrs	r2, r0
 8000e58:	4693      	mov	fp, r2
 8000e5a:	9a00      	ldr	r2, [sp, #0]
 8000e5c:	408a      	lsls	r2, r1
 8000e5e:	4937      	ldr	r1, [pc, #220]	@ (8000f3c <__aeabi_ddiv+0x22c>)
 8000e60:	4453      	add	r3, sl
 8000e62:	468a      	mov	sl, r1
 8000e64:	2100      	movs	r1, #0
 8000e66:	449a      	add	sl, r3
 8000e68:	e797      	b.n	8000d9a <__aeabi_ddiv+0x8a>
 8000e6a:	465b      	mov	r3, fp
 8000e6c:	4303      	orrs	r3, r0
 8000e6e:	4699      	mov	r9, r3
 8000e70:	d021      	beq.n	8000eb6 <__aeabi_ddiv+0x1a6>
 8000e72:	465b      	mov	r3, fp
 8000e74:	2b00      	cmp	r3, #0
 8000e76:	d100      	bne.n	8000e7a <__aeabi_ddiv+0x16a>
 8000e78:	e169      	b.n	800114e <__aeabi_ddiv+0x43e>
 8000e7a:	4658      	mov	r0, fp
 8000e7c:	f001 fb00 	bl	8002480 <__clzsi2>
 8000e80:	230b      	movs	r3, #11
 8000e82:	425b      	negs	r3, r3
 8000e84:	469c      	mov	ip, r3
 8000e86:	0002      	movs	r2, r0
 8000e88:	4484      	add	ip, r0
 8000e8a:	4666      	mov	r6, ip
 8000e8c:	231d      	movs	r3, #29
 8000e8e:	1b9b      	subs	r3, r3, r6
 8000e90:	0026      	movs	r6, r4
 8000e92:	0011      	movs	r1, r2
 8000e94:	4658      	mov	r0, fp
 8000e96:	40de      	lsrs	r6, r3
 8000e98:	3908      	subs	r1, #8
 8000e9a:	4088      	lsls	r0, r1
 8000e9c:	0033      	movs	r3, r6
 8000e9e:	4303      	orrs	r3, r0
 8000ea0:	4699      	mov	r9, r3
 8000ea2:	0023      	movs	r3, r4
 8000ea4:	408b      	lsls	r3, r1
 8000ea6:	4698      	mov	r8, r3
 8000ea8:	4b25      	ldr	r3, [pc, #148]	@ (8000f40 <__aeabi_ddiv+0x230>)
 8000eaa:	2400      	movs	r4, #0
 8000eac:	1a9b      	subs	r3, r3, r2
 8000eae:	469a      	mov	sl, r3
 8000eb0:	2300      	movs	r3, #0
 8000eb2:	9303      	str	r3, [sp, #12]
 8000eb4:	e753      	b.n	8000d5e <__aeabi_ddiv+0x4e>
 8000eb6:	2300      	movs	r3, #0
 8000eb8:	4698      	mov	r8, r3
 8000eba:	469a      	mov	sl, r3
 8000ebc:	3301      	adds	r3, #1
 8000ebe:	2404      	movs	r4, #4
 8000ec0:	9303      	str	r3, [sp, #12]
 8000ec2:	e74c      	b.n	8000d5e <__aeabi_ddiv+0x4e>
 8000ec4:	2301      	movs	r3, #1
 8000ec6:	431c      	orrs	r4, r3
 8000ec8:	2300      	movs	r3, #0
 8000eca:	2101      	movs	r1, #1
 8000ecc:	469b      	mov	fp, r3
 8000ece:	e764      	b.n	8000d9a <__aeabi_ddiv+0x8a>
 8000ed0:	2303      	movs	r3, #3
 8000ed2:	0032      	movs	r2, r6
 8000ed4:	2103      	movs	r1, #3
 8000ed6:	431c      	orrs	r4, r3
 8000ed8:	e75f      	b.n	8000d9a <__aeabi_ddiv+0x8a>
 8000eda:	469a      	mov	sl, r3
 8000edc:	2303      	movs	r3, #3
 8000ede:	46d9      	mov	r9, fp
 8000ee0:	240c      	movs	r4, #12
 8000ee2:	9303      	str	r3, [sp, #12]
 8000ee4:	e73b      	b.n	8000d5e <__aeabi_ddiv+0x4e>
 8000ee6:	2300      	movs	r3, #0
 8000ee8:	2480      	movs	r4, #128	@ 0x80
 8000eea:	4698      	mov	r8, r3
 8000eec:	2600      	movs	r6, #0
 8000eee:	4b0f      	ldr	r3, [pc, #60]	@ (8000f2c <__aeabi_ddiv+0x21c>)
 8000ef0:	0324      	lsls	r4, r4, #12
 8000ef2:	e779      	b.n	8000de8 <__aeabi_ddiv+0xd8>
 8000ef4:	2480      	movs	r4, #128	@ 0x80
 8000ef6:	465b      	mov	r3, fp
 8000ef8:	0324      	lsls	r4, r4, #12
 8000efa:	431c      	orrs	r4, r3
 8000efc:	0324      	lsls	r4, r4, #12
 8000efe:	002e      	movs	r6, r5
 8000f00:	4690      	mov	r8, r2
 8000f02:	4b0a      	ldr	r3, [pc, #40]	@ (8000f2c <__aeabi_ddiv+0x21c>)
 8000f04:	0b24      	lsrs	r4, r4, #12
 8000f06:	e76f      	b.n	8000de8 <__aeabi_ddiv+0xd8>
 8000f08:	2480      	movs	r4, #128	@ 0x80
 8000f0a:	464b      	mov	r3, r9
 8000f0c:	0324      	lsls	r4, r4, #12
 8000f0e:	4223      	tst	r3, r4
 8000f10:	d002      	beq.n	8000f18 <__aeabi_ddiv+0x208>
 8000f12:	465b      	mov	r3, fp
 8000f14:	4223      	tst	r3, r4
 8000f16:	d0f0      	beq.n	8000efa <__aeabi_ddiv+0x1ea>
 8000f18:	2480      	movs	r4, #128	@ 0x80
 8000f1a:	464b      	mov	r3, r9
 8000f1c:	0324      	lsls	r4, r4, #12
 8000f1e:	431c      	orrs	r4, r3
 8000f20:	0324      	lsls	r4, r4, #12
 8000f22:	9e02      	ldr	r6, [sp, #8]
 8000f24:	4b01      	ldr	r3, [pc, #4]	@ (8000f2c <__aeabi_ddiv+0x21c>)
 8000f26:	0b24      	lsrs	r4, r4, #12
 8000f28:	e75e      	b.n	8000de8 <__aeabi_ddiv+0xd8>
 8000f2a:	46c0      	nop			@ (mov r8, r8)
 8000f2c:	000007ff 	.word	0x000007ff
 8000f30:	fffffc01 	.word	0xfffffc01
 8000f34:	080085d0 	.word	0x080085d0
 8000f38:	fffff801 	.word	0xfffff801
 8000f3c:	000003f3 	.word	0x000003f3
 8000f40:	fffffc0d 	.word	0xfffffc0d
 8000f44:	45cb      	cmp	fp, r9
 8000f46:	d200      	bcs.n	8000f4a <__aeabi_ddiv+0x23a>
 8000f48:	e0f8      	b.n	800113c <__aeabi_ddiv+0x42c>
 8000f4a:	d100      	bne.n	8000f4e <__aeabi_ddiv+0x23e>
 8000f4c:	e0f3      	b.n	8001136 <__aeabi_ddiv+0x426>
 8000f4e:	2301      	movs	r3, #1
 8000f50:	425b      	negs	r3, r3
 8000f52:	469c      	mov	ip, r3
 8000f54:	4644      	mov	r4, r8
 8000f56:	4648      	mov	r0, r9
 8000f58:	2500      	movs	r5, #0
 8000f5a:	44e2      	add	sl, ip
 8000f5c:	465b      	mov	r3, fp
 8000f5e:	0e17      	lsrs	r7, r2, #24
 8000f60:	021b      	lsls	r3, r3, #8
 8000f62:	431f      	orrs	r7, r3
 8000f64:	0c19      	lsrs	r1, r3, #16
 8000f66:	043b      	lsls	r3, r7, #16
 8000f68:	0212      	lsls	r2, r2, #8
 8000f6a:	9700      	str	r7, [sp, #0]
 8000f6c:	0c1f      	lsrs	r7, r3, #16
 8000f6e:	4691      	mov	r9, r2
 8000f70:	9102      	str	r1, [sp, #8]
 8000f72:	9703      	str	r7, [sp, #12]
 8000f74:	f7ff f96a 	bl	800024c <__aeabi_uidivmod>
 8000f78:	0002      	movs	r2, r0
 8000f7a:	437a      	muls	r2, r7
 8000f7c:	040b      	lsls	r3, r1, #16
 8000f7e:	0c21      	lsrs	r1, r4, #16
 8000f80:	4680      	mov	r8, r0
 8000f82:	4319      	orrs	r1, r3
 8000f84:	428a      	cmp	r2, r1
 8000f86:	d909      	bls.n	8000f9c <__aeabi_ddiv+0x28c>
 8000f88:	9f00      	ldr	r7, [sp, #0]
 8000f8a:	2301      	movs	r3, #1
 8000f8c:	46bc      	mov	ip, r7
 8000f8e:	425b      	negs	r3, r3
 8000f90:	4461      	add	r1, ip
 8000f92:	469c      	mov	ip, r3
 8000f94:	44e0      	add	r8, ip
 8000f96:	428f      	cmp	r7, r1
 8000f98:	d800      	bhi.n	8000f9c <__aeabi_ddiv+0x28c>
 8000f9a:	e15c      	b.n	8001256 <__aeabi_ddiv+0x546>
 8000f9c:	1a88      	subs	r0, r1, r2
 8000f9e:	9902      	ldr	r1, [sp, #8]
 8000fa0:	f7ff f954 	bl	800024c <__aeabi_uidivmod>
 8000fa4:	9a03      	ldr	r2, [sp, #12]
 8000fa6:	0424      	lsls	r4, r4, #16
 8000fa8:	4342      	muls	r2, r0
 8000faa:	0409      	lsls	r1, r1, #16
 8000fac:	0c24      	lsrs	r4, r4, #16
 8000fae:	0003      	movs	r3, r0
 8000fb0:	430c      	orrs	r4, r1
 8000fb2:	42a2      	cmp	r2, r4
 8000fb4:	d906      	bls.n	8000fc4 <__aeabi_ddiv+0x2b4>
 8000fb6:	9900      	ldr	r1, [sp, #0]
 8000fb8:	3b01      	subs	r3, #1
 8000fba:	468c      	mov	ip, r1
 8000fbc:	4464      	add	r4, ip
 8000fbe:	42a1      	cmp	r1, r4
 8000fc0:	d800      	bhi.n	8000fc4 <__aeabi_ddiv+0x2b4>
 8000fc2:	e142      	b.n	800124a <__aeabi_ddiv+0x53a>
 8000fc4:	1aa0      	subs	r0, r4, r2
 8000fc6:	4642      	mov	r2, r8
 8000fc8:	0412      	lsls	r2, r2, #16
 8000fca:	431a      	orrs	r2, r3
 8000fcc:	4693      	mov	fp, r2
 8000fce:	464b      	mov	r3, r9
 8000fd0:	4659      	mov	r1, fp
 8000fd2:	0c1b      	lsrs	r3, r3, #16
 8000fd4:	001f      	movs	r7, r3
 8000fd6:	9304      	str	r3, [sp, #16]
 8000fd8:	040b      	lsls	r3, r1, #16
 8000fda:	4649      	mov	r1, r9
 8000fdc:	0409      	lsls	r1, r1, #16
 8000fde:	0c09      	lsrs	r1, r1, #16
 8000fe0:	000c      	movs	r4, r1
 8000fe2:	0c1b      	lsrs	r3, r3, #16
 8000fe4:	435c      	muls	r4, r3
 8000fe6:	0c12      	lsrs	r2, r2, #16
 8000fe8:	437b      	muls	r3, r7
 8000fea:	4688      	mov	r8, r1
 8000fec:	4351      	muls	r1, r2
 8000fee:	437a      	muls	r2, r7
 8000ff0:	0c27      	lsrs	r7, r4, #16
 8000ff2:	46bc      	mov	ip, r7
 8000ff4:	185b      	adds	r3, r3, r1
 8000ff6:	4463      	add	r3, ip
 8000ff8:	4299      	cmp	r1, r3
 8000ffa:	d903      	bls.n	8001004 <__aeabi_ddiv+0x2f4>
 8000ffc:	2180      	movs	r1, #128	@ 0x80
 8000ffe:	0249      	lsls	r1, r1, #9
 8001000:	468c      	mov	ip, r1
 8001002:	4462      	add	r2, ip
 8001004:	0c19      	lsrs	r1, r3, #16
 8001006:	0424      	lsls	r4, r4, #16
 8001008:	041b      	lsls	r3, r3, #16
 800100a:	0c24      	lsrs	r4, r4, #16
 800100c:	188a      	adds	r2, r1, r2
 800100e:	191c      	adds	r4, r3, r4
 8001010:	4290      	cmp	r0, r2
 8001012:	d302      	bcc.n	800101a <__aeabi_ddiv+0x30a>
 8001014:	d116      	bne.n	8001044 <__aeabi_ddiv+0x334>
 8001016:	42a5      	cmp	r5, r4
 8001018:	d214      	bcs.n	8001044 <__aeabi_ddiv+0x334>
 800101a:	465b      	mov	r3, fp
 800101c:	9f00      	ldr	r7, [sp, #0]
 800101e:	3b01      	subs	r3, #1
 8001020:	444d      	add	r5, r9
 8001022:	9305      	str	r3, [sp, #20]
 8001024:	454d      	cmp	r5, r9
 8001026:	419b      	sbcs	r3, r3
 8001028:	46bc      	mov	ip, r7
 800102a:	425b      	negs	r3, r3
 800102c:	4463      	add	r3, ip
 800102e:	18c0      	adds	r0, r0, r3
 8001030:	4287      	cmp	r7, r0
 8001032:	d300      	bcc.n	8001036 <__aeabi_ddiv+0x326>
 8001034:	e102      	b.n	800123c <__aeabi_ddiv+0x52c>
 8001036:	4282      	cmp	r2, r0
 8001038:	d900      	bls.n	800103c <__aeabi_ddiv+0x32c>
 800103a:	e129      	b.n	8001290 <__aeabi_ddiv+0x580>
 800103c:	d100      	bne.n	8001040 <__aeabi_ddiv+0x330>
 800103e:	e124      	b.n	800128a <__aeabi_ddiv+0x57a>
 8001040:	9b05      	ldr	r3, [sp, #20]
 8001042:	469b      	mov	fp, r3
 8001044:	1b2c      	subs	r4, r5, r4
 8001046:	42a5      	cmp	r5, r4
 8001048:	41ad      	sbcs	r5, r5
 800104a:	9b00      	ldr	r3, [sp, #0]
 800104c:	1a80      	subs	r0, r0, r2
 800104e:	426d      	negs	r5, r5
 8001050:	1b40      	subs	r0, r0, r5
 8001052:	4283      	cmp	r3, r0
 8001054:	d100      	bne.n	8001058 <__aeabi_ddiv+0x348>
 8001056:	e10f      	b.n	8001278 <__aeabi_ddiv+0x568>
 8001058:	9902      	ldr	r1, [sp, #8]
 800105a:	f7ff f8f7 	bl	800024c <__aeabi_uidivmod>
 800105e:	9a03      	ldr	r2, [sp, #12]
 8001060:	040b      	lsls	r3, r1, #16
 8001062:	4342      	muls	r2, r0
 8001064:	0c21      	lsrs	r1, r4, #16
 8001066:	0005      	movs	r5, r0
 8001068:	4319      	orrs	r1, r3
 800106a:	428a      	cmp	r2, r1
 800106c:	d900      	bls.n	8001070 <__aeabi_ddiv+0x360>
 800106e:	e0cb      	b.n	8001208 <__aeabi_ddiv+0x4f8>
 8001070:	1a88      	subs	r0, r1, r2
 8001072:	9902      	ldr	r1, [sp, #8]
 8001074:	f7ff f8ea 	bl	800024c <__aeabi_uidivmod>
 8001078:	9a03      	ldr	r2, [sp, #12]
 800107a:	0424      	lsls	r4, r4, #16
 800107c:	4342      	muls	r2, r0
 800107e:	0409      	lsls	r1, r1, #16
 8001080:	0c24      	lsrs	r4, r4, #16
 8001082:	0003      	movs	r3, r0
 8001084:	430c      	orrs	r4, r1
 8001086:	42a2      	cmp	r2, r4
 8001088:	d900      	bls.n	800108c <__aeabi_ddiv+0x37c>
 800108a:	e0ca      	b.n	8001222 <__aeabi_ddiv+0x512>
 800108c:	4641      	mov	r1, r8
 800108e:	1aa4      	subs	r4, r4, r2
 8001090:	042a      	lsls	r2, r5, #16
 8001092:	431a      	orrs	r2, r3
 8001094:	9f04      	ldr	r7, [sp, #16]
 8001096:	0413      	lsls	r3, r2, #16
 8001098:	0c1b      	lsrs	r3, r3, #16
 800109a:	4359      	muls	r1, r3
 800109c:	4640      	mov	r0, r8
 800109e:	437b      	muls	r3, r7
 80010a0:	469c      	mov	ip, r3
 80010a2:	0c15      	lsrs	r5, r2, #16
 80010a4:	4368      	muls	r0, r5
 80010a6:	0c0b      	lsrs	r3, r1, #16
 80010a8:	4484      	add	ip, r0
 80010aa:	4463      	add	r3, ip
 80010ac:	437d      	muls	r5, r7
 80010ae:	4298      	cmp	r0, r3
 80010b0:	d903      	bls.n	80010ba <__aeabi_ddiv+0x3aa>
 80010b2:	2080      	movs	r0, #128	@ 0x80
 80010b4:	0240      	lsls	r0, r0, #9
 80010b6:	4684      	mov	ip, r0
 80010b8:	4465      	add	r5, ip
 80010ba:	0c18      	lsrs	r0, r3, #16
 80010bc:	0409      	lsls	r1, r1, #16
 80010be:	041b      	lsls	r3, r3, #16
 80010c0:	0c09      	lsrs	r1, r1, #16
 80010c2:	1940      	adds	r0, r0, r5
 80010c4:	185b      	adds	r3, r3, r1
 80010c6:	4284      	cmp	r4, r0
 80010c8:	d327      	bcc.n	800111a <__aeabi_ddiv+0x40a>
 80010ca:	d023      	beq.n	8001114 <__aeabi_ddiv+0x404>
 80010cc:	2301      	movs	r3, #1
 80010ce:	0035      	movs	r5, r6
 80010d0:	431a      	orrs	r2, r3
 80010d2:	4b94      	ldr	r3, [pc, #592]	@ (8001324 <__aeabi_ddiv+0x614>)
 80010d4:	4453      	add	r3, sl
 80010d6:	2b00      	cmp	r3, #0
 80010d8:	dd60      	ble.n	800119c <__aeabi_ddiv+0x48c>
 80010da:	0751      	lsls	r1, r2, #29
 80010dc:	d000      	beq.n	80010e0 <__aeabi_ddiv+0x3d0>
 80010de:	e086      	b.n	80011ee <__aeabi_ddiv+0x4de>
 80010e0:	002e      	movs	r6, r5
 80010e2:	08d1      	lsrs	r1, r2, #3
 80010e4:	465a      	mov	r2, fp
 80010e6:	01d2      	lsls	r2, r2, #7
 80010e8:	d506      	bpl.n	80010f8 <__aeabi_ddiv+0x3e8>
 80010ea:	465a      	mov	r2, fp
 80010ec:	4b8e      	ldr	r3, [pc, #568]	@ (8001328 <__aeabi_ddiv+0x618>)
 80010ee:	401a      	ands	r2, r3
 80010f0:	2380      	movs	r3, #128	@ 0x80
 80010f2:	4693      	mov	fp, r2
 80010f4:	00db      	lsls	r3, r3, #3
 80010f6:	4453      	add	r3, sl
 80010f8:	4a8c      	ldr	r2, [pc, #560]	@ (800132c <__aeabi_ddiv+0x61c>)
 80010fa:	4293      	cmp	r3, r2
 80010fc:	dd00      	ble.n	8001100 <__aeabi_ddiv+0x3f0>
 80010fe:	e680      	b.n	8000e02 <__aeabi_ddiv+0xf2>
 8001100:	465a      	mov	r2, fp
 8001102:	0752      	lsls	r2, r2, #29
 8001104:	430a      	orrs	r2, r1
 8001106:	4690      	mov	r8, r2
 8001108:	465a      	mov	r2, fp
 800110a:	055b      	lsls	r3, r3, #21
 800110c:	0254      	lsls	r4, r2, #9
 800110e:	0b24      	lsrs	r4, r4, #12
 8001110:	0d5b      	lsrs	r3, r3, #21
 8001112:	e669      	b.n	8000de8 <__aeabi_ddiv+0xd8>
 8001114:	0035      	movs	r5, r6
 8001116:	2b00      	cmp	r3, #0
 8001118:	d0db      	beq.n	80010d2 <__aeabi_ddiv+0x3c2>
 800111a:	9d00      	ldr	r5, [sp, #0]
 800111c:	1e51      	subs	r1, r2, #1
 800111e:	46ac      	mov	ip, r5
 8001120:	4464      	add	r4, ip
 8001122:	42ac      	cmp	r4, r5
 8001124:	d200      	bcs.n	8001128 <__aeabi_ddiv+0x418>
 8001126:	e09e      	b.n	8001266 <__aeabi_ddiv+0x556>
 8001128:	4284      	cmp	r4, r0
 800112a:	d200      	bcs.n	800112e <__aeabi_ddiv+0x41e>
 800112c:	e0e1      	b.n	80012f2 <__aeabi_ddiv+0x5e2>
 800112e:	d100      	bne.n	8001132 <__aeabi_ddiv+0x422>
 8001130:	e0ee      	b.n	8001310 <__aeabi_ddiv+0x600>
 8001132:	000a      	movs	r2, r1
 8001134:	e7ca      	b.n	80010cc <__aeabi_ddiv+0x3bc>
 8001136:	4542      	cmp	r2, r8
 8001138:	d900      	bls.n	800113c <__aeabi_ddiv+0x42c>
 800113a:	e708      	b.n	8000f4e <__aeabi_ddiv+0x23e>
 800113c:	464b      	mov	r3, r9
 800113e:	07dc      	lsls	r4, r3, #31
 8001140:	0858      	lsrs	r0, r3, #1
 8001142:	4643      	mov	r3, r8
 8001144:	085b      	lsrs	r3, r3, #1
 8001146:	431c      	orrs	r4, r3
 8001148:	4643      	mov	r3, r8
 800114a:	07dd      	lsls	r5, r3, #31
 800114c:	e706      	b.n	8000f5c <__aeabi_ddiv+0x24c>
 800114e:	f001 f997 	bl	8002480 <__clzsi2>
 8001152:	2315      	movs	r3, #21
 8001154:	469c      	mov	ip, r3
 8001156:	4484      	add	ip, r0
 8001158:	0002      	movs	r2, r0
 800115a:	4663      	mov	r3, ip
 800115c:	3220      	adds	r2, #32
 800115e:	2b1c      	cmp	r3, #28
 8001160:	dc00      	bgt.n	8001164 <__aeabi_ddiv+0x454>
 8001162:	e692      	b.n	8000e8a <__aeabi_ddiv+0x17a>
 8001164:	0023      	movs	r3, r4
 8001166:	3808      	subs	r0, #8
 8001168:	4083      	lsls	r3, r0
 800116a:	4699      	mov	r9, r3
 800116c:	2300      	movs	r3, #0
 800116e:	4698      	mov	r8, r3
 8001170:	e69a      	b.n	8000ea8 <__aeabi_ddiv+0x198>
 8001172:	f001 f985 	bl	8002480 <__clzsi2>
 8001176:	0002      	movs	r2, r0
 8001178:	0003      	movs	r3, r0
 800117a:	3215      	adds	r2, #21
 800117c:	3320      	adds	r3, #32
 800117e:	2a1c      	cmp	r2, #28
 8001180:	dc00      	bgt.n	8001184 <__aeabi_ddiv+0x474>
 8001182:	e65f      	b.n	8000e44 <__aeabi_ddiv+0x134>
 8001184:	9900      	ldr	r1, [sp, #0]
 8001186:	3808      	subs	r0, #8
 8001188:	4081      	lsls	r1, r0
 800118a:	2200      	movs	r2, #0
 800118c:	468b      	mov	fp, r1
 800118e:	e666      	b.n	8000e5e <__aeabi_ddiv+0x14e>
 8001190:	2200      	movs	r2, #0
 8001192:	002e      	movs	r6, r5
 8001194:	2400      	movs	r4, #0
 8001196:	4690      	mov	r8, r2
 8001198:	4b65      	ldr	r3, [pc, #404]	@ (8001330 <__aeabi_ddiv+0x620>)
 800119a:	e625      	b.n	8000de8 <__aeabi_ddiv+0xd8>
 800119c:	002e      	movs	r6, r5
 800119e:	2101      	movs	r1, #1
 80011a0:	1ac9      	subs	r1, r1, r3
 80011a2:	2938      	cmp	r1, #56	@ 0x38
 80011a4:	dd00      	ble.n	80011a8 <__aeabi_ddiv+0x498>
 80011a6:	e61b      	b.n	8000de0 <__aeabi_ddiv+0xd0>
 80011a8:	291f      	cmp	r1, #31
 80011aa:	dc7e      	bgt.n	80012aa <__aeabi_ddiv+0x59a>
 80011ac:	4861      	ldr	r0, [pc, #388]	@ (8001334 <__aeabi_ddiv+0x624>)
 80011ae:	0014      	movs	r4, r2
 80011b0:	4450      	add	r0, sl
 80011b2:	465b      	mov	r3, fp
 80011b4:	4082      	lsls	r2, r0
 80011b6:	4083      	lsls	r3, r0
 80011b8:	40cc      	lsrs	r4, r1
 80011ba:	1e50      	subs	r0, r2, #1
 80011bc:	4182      	sbcs	r2, r0
 80011be:	4323      	orrs	r3, r4
 80011c0:	431a      	orrs	r2, r3
 80011c2:	465b      	mov	r3, fp
 80011c4:	40cb      	lsrs	r3, r1
 80011c6:	0751      	lsls	r1, r2, #29
 80011c8:	d009      	beq.n	80011de <__aeabi_ddiv+0x4ce>
 80011ca:	210f      	movs	r1, #15
 80011cc:	4011      	ands	r1, r2
 80011ce:	2904      	cmp	r1, #4
 80011d0:	d005      	beq.n	80011de <__aeabi_ddiv+0x4ce>
 80011d2:	1d11      	adds	r1, r2, #4
 80011d4:	4291      	cmp	r1, r2
 80011d6:	4192      	sbcs	r2, r2
 80011d8:	4252      	negs	r2, r2
 80011da:	189b      	adds	r3, r3, r2
 80011dc:	000a      	movs	r2, r1
 80011de:	0219      	lsls	r1, r3, #8
 80011e0:	d400      	bmi.n	80011e4 <__aeabi_ddiv+0x4d4>
 80011e2:	e09b      	b.n	800131c <__aeabi_ddiv+0x60c>
 80011e4:	2200      	movs	r2, #0
 80011e6:	2301      	movs	r3, #1
 80011e8:	2400      	movs	r4, #0
 80011ea:	4690      	mov	r8, r2
 80011ec:	e5fc      	b.n	8000de8 <__aeabi_ddiv+0xd8>
 80011ee:	210f      	movs	r1, #15
 80011f0:	4011      	ands	r1, r2
 80011f2:	2904      	cmp	r1, #4
 80011f4:	d100      	bne.n	80011f8 <__aeabi_ddiv+0x4e8>
 80011f6:	e773      	b.n	80010e0 <__aeabi_ddiv+0x3d0>
 80011f8:	1d11      	adds	r1, r2, #4
 80011fa:	4291      	cmp	r1, r2
 80011fc:	4192      	sbcs	r2, r2
 80011fe:	4252      	negs	r2, r2
 8001200:	002e      	movs	r6, r5
 8001202:	08c9      	lsrs	r1, r1, #3
 8001204:	4493      	add	fp, r2
 8001206:	e76d      	b.n	80010e4 <__aeabi_ddiv+0x3d4>
 8001208:	9b00      	ldr	r3, [sp, #0]
 800120a:	3d01      	subs	r5, #1
 800120c:	469c      	mov	ip, r3
 800120e:	4461      	add	r1, ip
 8001210:	428b      	cmp	r3, r1
 8001212:	d900      	bls.n	8001216 <__aeabi_ddiv+0x506>
 8001214:	e72c      	b.n	8001070 <__aeabi_ddiv+0x360>
 8001216:	428a      	cmp	r2, r1
 8001218:	d800      	bhi.n	800121c <__aeabi_ddiv+0x50c>
 800121a:	e729      	b.n	8001070 <__aeabi_ddiv+0x360>
 800121c:	1e85      	subs	r5, r0, #2
 800121e:	4461      	add	r1, ip
 8001220:	e726      	b.n	8001070 <__aeabi_ddiv+0x360>
 8001222:	9900      	ldr	r1, [sp, #0]
 8001224:	3b01      	subs	r3, #1
 8001226:	468c      	mov	ip, r1
 8001228:	4464      	add	r4, ip
 800122a:	42a1      	cmp	r1, r4
 800122c:	d900      	bls.n	8001230 <__aeabi_ddiv+0x520>
 800122e:	e72d      	b.n	800108c <__aeabi_ddiv+0x37c>
 8001230:	42a2      	cmp	r2, r4
 8001232:	d800      	bhi.n	8001236 <__aeabi_ddiv+0x526>
 8001234:	e72a      	b.n	800108c <__aeabi_ddiv+0x37c>
 8001236:	1e83      	subs	r3, r0, #2
 8001238:	4464      	add	r4, ip
 800123a:	e727      	b.n	800108c <__aeabi_ddiv+0x37c>
 800123c:	4287      	cmp	r7, r0
 800123e:	d000      	beq.n	8001242 <__aeabi_ddiv+0x532>
 8001240:	e6fe      	b.n	8001040 <__aeabi_ddiv+0x330>
 8001242:	45a9      	cmp	r9, r5
 8001244:	d900      	bls.n	8001248 <__aeabi_ddiv+0x538>
 8001246:	e6fb      	b.n	8001040 <__aeabi_ddiv+0x330>
 8001248:	e6f5      	b.n	8001036 <__aeabi_ddiv+0x326>
 800124a:	42a2      	cmp	r2, r4
 800124c:	d800      	bhi.n	8001250 <__aeabi_ddiv+0x540>
 800124e:	e6b9      	b.n	8000fc4 <__aeabi_ddiv+0x2b4>
 8001250:	1e83      	subs	r3, r0, #2
 8001252:	4464      	add	r4, ip
 8001254:	e6b6      	b.n	8000fc4 <__aeabi_ddiv+0x2b4>
 8001256:	428a      	cmp	r2, r1
 8001258:	d800      	bhi.n	800125c <__aeabi_ddiv+0x54c>
 800125a:	e69f      	b.n	8000f9c <__aeabi_ddiv+0x28c>
 800125c:	46bc      	mov	ip, r7
 800125e:	1e83      	subs	r3, r0, #2
 8001260:	4698      	mov	r8, r3
 8001262:	4461      	add	r1, ip
 8001264:	e69a      	b.n	8000f9c <__aeabi_ddiv+0x28c>
 8001266:	000a      	movs	r2, r1
 8001268:	4284      	cmp	r4, r0
 800126a:	d000      	beq.n	800126e <__aeabi_ddiv+0x55e>
 800126c:	e72e      	b.n	80010cc <__aeabi_ddiv+0x3bc>
 800126e:	454b      	cmp	r3, r9
 8001270:	d000      	beq.n	8001274 <__aeabi_ddiv+0x564>
 8001272:	e72b      	b.n	80010cc <__aeabi_ddiv+0x3bc>
 8001274:	0035      	movs	r5, r6
 8001276:	e72c      	b.n	80010d2 <__aeabi_ddiv+0x3c2>
 8001278:	4b2a      	ldr	r3, [pc, #168]	@ (8001324 <__aeabi_ddiv+0x614>)
 800127a:	4a2f      	ldr	r2, [pc, #188]	@ (8001338 <__aeabi_ddiv+0x628>)
 800127c:	4453      	add	r3, sl
 800127e:	4592      	cmp	sl, r2
 8001280:	db43      	blt.n	800130a <__aeabi_ddiv+0x5fa>
 8001282:	2201      	movs	r2, #1
 8001284:	2100      	movs	r1, #0
 8001286:	4493      	add	fp, r2
 8001288:	e72c      	b.n	80010e4 <__aeabi_ddiv+0x3d4>
 800128a:	42ac      	cmp	r4, r5
 800128c:	d800      	bhi.n	8001290 <__aeabi_ddiv+0x580>
 800128e:	e6d7      	b.n	8001040 <__aeabi_ddiv+0x330>
 8001290:	2302      	movs	r3, #2
 8001292:	425b      	negs	r3, r3
 8001294:	469c      	mov	ip, r3
 8001296:	9900      	ldr	r1, [sp, #0]
 8001298:	444d      	add	r5, r9
 800129a:	454d      	cmp	r5, r9
 800129c:	419b      	sbcs	r3, r3
 800129e:	44e3      	add	fp, ip
 80012a0:	468c      	mov	ip, r1
 80012a2:	425b      	negs	r3, r3
 80012a4:	4463      	add	r3, ip
 80012a6:	18c0      	adds	r0, r0, r3
 80012a8:	e6cc      	b.n	8001044 <__aeabi_ddiv+0x334>
 80012aa:	201f      	movs	r0, #31
 80012ac:	4240      	negs	r0, r0
 80012ae:	1ac3      	subs	r3, r0, r3
 80012b0:	4658      	mov	r0, fp
 80012b2:	40d8      	lsrs	r0, r3
 80012b4:	2920      	cmp	r1, #32
 80012b6:	d004      	beq.n	80012c2 <__aeabi_ddiv+0x5b2>
 80012b8:	4659      	mov	r1, fp
 80012ba:	4b20      	ldr	r3, [pc, #128]	@ (800133c <__aeabi_ddiv+0x62c>)
 80012bc:	4453      	add	r3, sl
 80012be:	4099      	lsls	r1, r3
 80012c0:	430a      	orrs	r2, r1
 80012c2:	1e53      	subs	r3, r2, #1
 80012c4:	419a      	sbcs	r2, r3
 80012c6:	2307      	movs	r3, #7
 80012c8:	0019      	movs	r1, r3
 80012ca:	4302      	orrs	r2, r0
 80012cc:	2400      	movs	r4, #0
 80012ce:	4011      	ands	r1, r2
 80012d0:	4213      	tst	r3, r2
 80012d2:	d009      	beq.n	80012e8 <__aeabi_ddiv+0x5d8>
 80012d4:	3308      	adds	r3, #8
 80012d6:	4013      	ands	r3, r2
 80012d8:	2b04      	cmp	r3, #4
 80012da:	d01d      	beq.n	8001318 <__aeabi_ddiv+0x608>
 80012dc:	1d13      	adds	r3, r2, #4
 80012de:	4293      	cmp	r3, r2
 80012e0:	4189      	sbcs	r1, r1
 80012e2:	001a      	movs	r2, r3
 80012e4:	4249      	negs	r1, r1
 80012e6:	0749      	lsls	r1, r1, #29
 80012e8:	08d2      	lsrs	r2, r2, #3
 80012ea:	430a      	orrs	r2, r1
 80012ec:	4690      	mov	r8, r2
 80012ee:	2300      	movs	r3, #0
 80012f0:	e57a      	b.n	8000de8 <__aeabi_ddiv+0xd8>
 80012f2:	4649      	mov	r1, r9
 80012f4:	9f00      	ldr	r7, [sp, #0]
 80012f6:	004d      	lsls	r5, r1, #1
 80012f8:	454d      	cmp	r5, r9
 80012fa:	4189      	sbcs	r1, r1
 80012fc:	46bc      	mov	ip, r7
 80012fe:	4249      	negs	r1, r1
 8001300:	4461      	add	r1, ip
 8001302:	46a9      	mov	r9, r5
 8001304:	3a02      	subs	r2, #2
 8001306:	1864      	adds	r4, r4, r1
 8001308:	e7ae      	b.n	8001268 <__aeabi_ddiv+0x558>
 800130a:	2201      	movs	r2, #1
 800130c:	4252      	negs	r2, r2
 800130e:	e746      	b.n	800119e <__aeabi_ddiv+0x48e>
 8001310:	4599      	cmp	r9, r3
 8001312:	d3ee      	bcc.n	80012f2 <__aeabi_ddiv+0x5e2>
 8001314:	000a      	movs	r2, r1
 8001316:	e7aa      	b.n	800126e <__aeabi_ddiv+0x55e>
 8001318:	2100      	movs	r1, #0
 800131a:	e7e5      	b.n	80012e8 <__aeabi_ddiv+0x5d8>
 800131c:	0759      	lsls	r1, r3, #29
 800131e:	025b      	lsls	r3, r3, #9
 8001320:	0b1c      	lsrs	r4, r3, #12
 8001322:	e7e1      	b.n	80012e8 <__aeabi_ddiv+0x5d8>
 8001324:	000003ff 	.word	0x000003ff
 8001328:	feffffff 	.word	0xfeffffff
 800132c:	000007fe 	.word	0x000007fe
 8001330:	000007ff 	.word	0x000007ff
 8001334:	0000041e 	.word	0x0000041e
 8001338:	fffffc02 	.word	0xfffffc02
 800133c:	0000043e 	.word	0x0000043e

08001340 <__eqdf2>:
 8001340:	b5f0      	push	{r4, r5, r6, r7, lr}
 8001342:	4657      	mov	r7, sl
 8001344:	46de      	mov	lr, fp
 8001346:	464e      	mov	r6, r9
 8001348:	4645      	mov	r5, r8
 800134a:	b5e0      	push	{r5, r6, r7, lr}
 800134c:	000d      	movs	r5, r1
 800134e:	0004      	movs	r4, r0
 8001350:	0fe8      	lsrs	r0, r5, #31
 8001352:	4683      	mov	fp, r0
 8001354:	0309      	lsls	r1, r1, #12
 8001356:	0fd8      	lsrs	r0, r3, #31
 8001358:	0b09      	lsrs	r1, r1, #12
 800135a:	4682      	mov	sl, r0
 800135c:	4819      	ldr	r0, [pc, #100]	@ (80013c4 <__eqdf2+0x84>)
 800135e:	468c      	mov	ip, r1
 8001360:	031f      	lsls	r7, r3, #12
 8001362:	0069      	lsls	r1, r5, #1
 8001364:	005e      	lsls	r6, r3, #1
 8001366:	0d49      	lsrs	r1, r1, #21
 8001368:	0b3f      	lsrs	r7, r7, #12
 800136a:	0d76      	lsrs	r6, r6, #21
 800136c:	4281      	cmp	r1, r0
 800136e:	d018      	beq.n	80013a2 <__eqdf2+0x62>
 8001370:	4286      	cmp	r6, r0
 8001372:	d00f      	beq.n	8001394 <__eqdf2+0x54>
 8001374:	2001      	movs	r0, #1
 8001376:	42b1      	cmp	r1, r6
 8001378:	d10d      	bne.n	8001396 <__eqdf2+0x56>
 800137a:	45bc      	cmp	ip, r7
 800137c:	d10b      	bne.n	8001396 <__eqdf2+0x56>
 800137e:	4294      	cmp	r4, r2
 8001380:	d109      	bne.n	8001396 <__eqdf2+0x56>
 8001382:	45d3      	cmp	fp, sl
 8001384:	d01c      	beq.n	80013c0 <__eqdf2+0x80>
 8001386:	2900      	cmp	r1, #0
 8001388:	d105      	bne.n	8001396 <__eqdf2+0x56>
 800138a:	4660      	mov	r0, ip
 800138c:	4320      	orrs	r0, r4
 800138e:	1e43      	subs	r3, r0, #1
 8001390:	4198      	sbcs	r0, r3
 8001392:	e000      	b.n	8001396 <__eqdf2+0x56>
 8001394:	2001      	movs	r0, #1
 8001396:	bcf0      	pop	{r4, r5, r6, r7}
 8001398:	46bb      	mov	fp, r7
 800139a:	46b2      	mov	sl, r6
 800139c:	46a9      	mov	r9, r5
 800139e:	46a0      	mov	r8, r4
 80013a0:	bdf0      	pop	{r4, r5, r6, r7, pc}
 80013a2:	2001      	movs	r0, #1
 80013a4:	428e      	cmp	r6, r1
 80013a6:	d1f6      	bne.n	8001396 <__eqdf2+0x56>
 80013a8:	4661      	mov	r1, ip
 80013aa:	4339      	orrs	r1, r7
 80013ac:	000f      	movs	r7, r1
 80013ae:	4317      	orrs	r7, r2
 80013b0:	4327      	orrs	r7, r4
 80013b2:	d1f0      	bne.n	8001396 <__eqdf2+0x56>
 80013b4:	465b      	mov	r3, fp
 80013b6:	4652      	mov	r2, sl
 80013b8:	1a98      	subs	r0, r3, r2
 80013ba:	1e43      	subs	r3, r0, #1
 80013bc:	4198      	sbcs	r0, r3
 80013be:	e7ea      	b.n	8001396 <__eqdf2+0x56>
 80013c0:	2000      	movs	r0, #0
 80013c2:	e7e8      	b.n	8001396 <__eqdf2+0x56>
 80013c4:	000007ff 	.word	0x000007ff

080013c8 <__gedf2>:
 80013c8:	b5f0      	push	{r4, r5, r6, r7, lr}
 80013ca:	4657      	mov	r7, sl
 80013cc:	464e      	mov	r6, r9
 80013ce:	4645      	mov	r5, r8
 80013d0:	46de      	mov	lr, fp
 80013d2:	b5e0      	push	{r5, r6, r7, lr}
 80013d4:	000d      	movs	r5, r1
 80013d6:	030e      	lsls	r6, r1, #12
 80013d8:	0049      	lsls	r1, r1, #1
 80013da:	0d49      	lsrs	r1, r1, #21
 80013dc:	468a      	mov	sl, r1
 80013de:	0fdf      	lsrs	r7, r3, #31
 80013e0:	0fe9      	lsrs	r1, r5, #31
 80013e2:	46bc      	mov	ip, r7
 80013e4:	b083      	sub	sp, #12
 80013e6:	4f2f      	ldr	r7, [pc, #188]	@ (80014a4 <__gedf2+0xdc>)
 80013e8:	0004      	movs	r4, r0
 80013ea:	4680      	mov	r8, r0
 80013ec:	9101      	str	r1, [sp, #4]
 80013ee:	0058      	lsls	r0, r3, #1
 80013f0:	0319      	lsls	r1, r3, #12
 80013f2:	4691      	mov	r9, r2
 80013f4:	0b36      	lsrs	r6, r6, #12
 80013f6:	0b09      	lsrs	r1, r1, #12
 80013f8:	0d40      	lsrs	r0, r0, #21
 80013fa:	45ba      	cmp	sl, r7
 80013fc:	d01d      	beq.n	800143a <__gedf2+0x72>
 80013fe:	42b8      	cmp	r0, r7
 8001400:	d00d      	beq.n	800141e <__gedf2+0x56>
 8001402:	4657      	mov	r7, sl
 8001404:	2f00      	cmp	r7, #0
 8001406:	d12a      	bne.n	800145e <__gedf2+0x96>
 8001408:	4334      	orrs	r4, r6
 800140a:	2800      	cmp	r0, #0
 800140c:	d124      	bne.n	8001458 <__gedf2+0x90>
 800140e:	430a      	orrs	r2, r1
 8001410:	d036      	beq.n	8001480 <__gedf2+0xb8>
 8001412:	2c00      	cmp	r4, #0
 8001414:	d141      	bne.n	800149a <__gedf2+0xd2>
 8001416:	4663      	mov	r3, ip
 8001418:	0058      	lsls	r0, r3, #1
 800141a:	3801      	subs	r0, #1
 800141c:	e015      	b.n	800144a <__gedf2+0x82>
 800141e:	4311      	orrs	r1, r2
 8001420:	d138      	bne.n	8001494 <__gedf2+0xcc>
 8001422:	4653      	mov	r3, sl
 8001424:	2b00      	cmp	r3, #0
 8001426:	d101      	bne.n	800142c <__gedf2+0x64>
 8001428:	4326      	orrs	r6, r4
 800142a:	d0f4      	beq.n	8001416 <__gedf2+0x4e>
 800142c:	9b01      	ldr	r3, [sp, #4]
 800142e:	4563      	cmp	r3, ip
 8001430:	d107      	bne.n	8001442 <__gedf2+0x7a>
 8001432:	9b01      	ldr	r3, [sp, #4]
 8001434:	0058      	lsls	r0, r3, #1
 8001436:	3801      	subs	r0, #1
 8001438:	e007      	b.n	800144a <__gedf2+0x82>
 800143a:	4326      	orrs	r6, r4
 800143c:	d12a      	bne.n	8001494 <__gedf2+0xcc>
 800143e:	4550      	cmp	r0, sl
 8001440:	d021      	beq.n	8001486 <__gedf2+0xbe>
 8001442:	2001      	movs	r0, #1
 8001444:	9b01      	ldr	r3, [sp, #4]
 8001446:	425f      	negs	r7, r3
 8001448:	4338      	orrs	r0, r7
 800144a:	b003      	add	sp, #12
 800144c:	bcf0      	pop	{r4, r5, r6, r7}
 800144e:	46bb      	mov	fp, r7
 8001450:	46b2      	mov	sl, r6
 8001452:	46a9      	mov	r9, r5
 8001454:	46a0      	mov	r8, r4
 8001456:	bdf0      	pop	{r4, r5, r6, r7, pc}
 8001458:	2c00      	cmp	r4, #0
 800145a:	d0dc      	beq.n	8001416 <__gedf2+0x4e>
 800145c:	e7e6      	b.n	800142c <__gedf2+0x64>
 800145e:	2800      	cmp	r0, #0
 8001460:	d0ef      	beq.n	8001442 <__gedf2+0x7a>
 8001462:	9b01      	ldr	r3, [sp, #4]
 8001464:	4563      	cmp	r3, ip
 8001466:	d1ec      	bne.n	8001442 <__gedf2+0x7a>
 8001468:	4582      	cmp	sl, r0
 800146a:	dcea      	bgt.n	8001442 <__gedf2+0x7a>
 800146c:	dbe1      	blt.n	8001432 <__gedf2+0x6a>
 800146e:	428e      	cmp	r6, r1
 8001470:	d8e7      	bhi.n	8001442 <__gedf2+0x7a>
 8001472:	d1de      	bne.n	8001432 <__gedf2+0x6a>
 8001474:	45c8      	cmp	r8, r9
 8001476:	d8e4      	bhi.n	8001442 <__gedf2+0x7a>
 8001478:	2000      	movs	r0, #0
 800147a:	45c8      	cmp	r8, r9
 800147c:	d2e5      	bcs.n	800144a <__gedf2+0x82>
 800147e:	e7d8      	b.n	8001432 <__gedf2+0x6a>
 8001480:	2c00      	cmp	r4, #0
 8001482:	d0e2      	beq.n	800144a <__gedf2+0x82>
 8001484:	e7dd      	b.n	8001442 <__gedf2+0x7a>
 8001486:	4311      	orrs	r1, r2
 8001488:	d104      	bne.n	8001494 <__gedf2+0xcc>
 800148a:	9b01      	ldr	r3, [sp, #4]
 800148c:	4563      	cmp	r3, ip
 800148e:	d1d8      	bne.n	8001442 <__gedf2+0x7a>
 8001490:	2000      	movs	r0, #0
 8001492:	e7da      	b.n	800144a <__gedf2+0x82>
 8001494:	2002      	movs	r0, #2
 8001496:	4240      	negs	r0, r0
 8001498:	e7d7      	b.n	800144a <__gedf2+0x82>
 800149a:	9b01      	ldr	r3, [sp, #4]
 800149c:	4563      	cmp	r3, ip
 800149e:	d0e6      	beq.n	800146e <__gedf2+0xa6>
 80014a0:	e7cf      	b.n	8001442 <__gedf2+0x7a>
 80014a2:	46c0      	nop			@ (mov r8, r8)
 80014a4:	000007ff 	.word	0x000007ff

080014a8 <__ledf2>:
 80014a8:	b5f0      	push	{r4, r5, r6, r7, lr}
 80014aa:	4657      	mov	r7, sl
 80014ac:	464e      	mov	r6, r9
 80014ae:	4645      	mov	r5, r8
 80014b0:	46de      	mov	lr, fp
 80014b2:	b5e0      	push	{r5, r6, r7, lr}
 80014b4:	000d      	movs	r5, r1
 80014b6:	030e      	lsls	r6, r1, #12
 80014b8:	0049      	lsls	r1, r1, #1
 80014ba:	0d49      	lsrs	r1, r1, #21
 80014bc:	468a      	mov	sl, r1
 80014be:	0fdf      	lsrs	r7, r3, #31
 80014c0:	0fe9      	lsrs	r1, r5, #31
 80014c2:	46bc      	mov	ip, r7
 80014c4:	b083      	sub	sp, #12
 80014c6:	4f2e      	ldr	r7, [pc, #184]	@ (8001580 <__ledf2+0xd8>)
 80014c8:	0004      	movs	r4, r0
 80014ca:	4680      	mov	r8, r0
 80014cc:	9101      	str	r1, [sp, #4]
 80014ce:	0058      	lsls	r0, r3, #1
 80014d0:	0319      	lsls	r1, r3, #12
 80014d2:	4691      	mov	r9, r2
 80014d4:	0b36      	lsrs	r6, r6, #12
 80014d6:	0b09      	lsrs	r1, r1, #12
 80014d8:	0d40      	lsrs	r0, r0, #21
 80014da:	45ba      	cmp	sl, r7
 80014dc:	d01e      	beq.n	800151c <__ledf2+0x74>
 80014de:	42b8      	cmp	r0, r7
 80014e0:	d00d      	beq.n	80014fe <__ledf2+0x56>
 80014e2:	4657      	mov	r7, sl
 80014e4:	2f00      	cmp	r7, #0
 80014e6:	d127      	bne.n	8001538 <__ledf2+0x90>
 80014e8:	4334      	orrs	r4, r6
 80014ea:	2800      	cmp	r0, #0
 80014ec:	d133      	bne.n	8001556 <__ledf2+0xae>
 80014ee:	430a      	orrs	r2, r1
 80014f0:	d034      	beq.n	800155c <__ledf2+0xb4>
 80014f2:	2c00      	cmp	r4, #0
 80014f4:	d140      	bne.n	8001578 <__ledf2+0xd0>
 80014f6:	4663      	mov	r3, ip
 80014f8:	0058      	lsls	r0, r3, #1
 80014fa:	3801      	subs	r0, #1
 80014fc:	e015      	b.n	800152a <__ledf2+0x82>
 80014fe:	4311      	orrs	r1, r2
 8001500:	d112      	bne.n	8001528 <__ledf2+0x80>
 8001502:	4653      	mov	r3, sl
 8001504:	2b00      	cmp	r3, #0
 8001506:	d101      	bne.n	800150c <__ledf2+0x64>
 8001508:	4326      	orrs	r6, r4
 800150a:	d0f4      	beq.n	80014f6 <__ledf2+0x4e>
 800150c:	9b01      	ldr	r3, [sp, #4]
 800150e:	4563      	cmp	r3, ip
 8001510:	d01d      	beq.n	800154e <__ledf2+0xa6>
 8001512:	2001      	movs	r0, #1
 8001514:	9b01      	ldr	r3, [sp, #4]
 8001516:	425f      	negs	r7, r3
 8001518:	4338      	orrs	r0, r7
 800151a:	e006      	b.n	800152a <__ledf2+0x82>
 800151c:	4326      	orrs	r6, r4
 800151e:	d103      	bne.n	8001528 <__ledf2+0x80>
 8001520:	4550      	cmp	r0, sl
 8001522:	d1f6      	bne.n	8001512 <__ledf2+0x6a>
 8001524:	4311      	orrs	r1, r2
 8001526:	d01c      	beq.n	8001562 <__ledf2+0xba>
 8001528:	2002      	movs	r0, #2
 800152a:	b003      	add	sp, #12
 800152c:	bcf0      	pop	{r4, r5, r6, r7}
 800152e:	46bb      	mov	fp, r7
 8001530:	46b2      	mov	sl, r6
 8001532:	46a9      	mov	r9, r5
 8001534:	46a0      	mov	r8, r4
 8001536:	bdf0      	pop	{r4, r5, r6, r7, pc}
 8001538:	2800      	cmp	r0, #0
 800153a:	d0ea      	beq.n	8001512 <__ledf2+0x6a>
 800153c:	9b01      	ldr	r3, [sp, #4]
 800153e:	4563      	cmp	r3, ip
 8001540:	d1e7      	bne.n	8001512 <__ledf2+0x6a>
 8001542:	4582      	cmp	sl, r0
 8001544:	dce5      	bgt.n	8001512 <__ledf2+0x6a>
 8001546:	db02      	blt.n	800154e <__ledf2+0xa6>
 8001548:	428e      	cmp	r6, r1
 800154a:	d8e2      	bhi.n	8001512 <__ledf2+0x6a>
 800154c:	d00e      	beq.n	800156c <__ledf2+0xc4>
 800154e:	9b01      	ldr	r3, [sp, #4]
 8001550:	0058      	lsls	r0, r3, #1
 8001552:	3801      	subs	r0, #1
 8001554:	e7e9      	b.n	800152a <__ledf2+0x82>
 8001556:	2c00      	cmp	r4, #0
 8001558:	d0cd      	beq.n	80014f6 <__ledf2+0x4e>
 800155a:	e7d7      	b.n	800150c <__ledf2+0x64>
 800155c:	2c00      	cmp	r4, #0
 800155e:	d0e4      	beq.n	800152a <__ledf2+0x82>
 8001560:	e7d7      	b.n	8001512 <__ledf2+0x6a>
 8001562:	9b01      	ldr	r3, [sp, #4]
 8001564:	2000      	movs	r0, #0
 8001566:	4563      	cmp	r3, ip
 8001568:	d0df      	beq.n	800152a <__ledf2+0x82>
 800156a:	e7d2      	b.n	8001512 <__ledf2+0x6a>
 800156c:	45c8      	cmp	r8, r9
 800156e:	d8d0      	bhi.n	8001512 <__ledf2+0x6a>
 8001570:	2000      	movs	r0, #0
 8001572:	45c8      	cmp	r8, r9
 8001574:	d2d9      	bcs.n	800152a <__ledf2+0x82>
 8001576:	e7ea      	b.n	800154e <__ledf2+0xa6>
 8001578:	9b01      	ldr	r3, [sp, #4]
 800157a:	4563      	cmp	r3, ip
 800157c:	d0e4      	beq.n	8001548 <__ledf2+0xa0>
 800157e:	e7c8      	b.n	8001512 <__ledf2+0x6a>
 8001580:	000007ff 	.word	0x000007ff

08001584 <__aeabi_dmul>:
 8001584:	b5f0      	push	{r4, r5, r6, r7, lr}
 8001586:	4657      	mov	r7, sl
 8001588:	464e      	mov	r6, r9
 800158a:	46de      	mov	lr, fp
 800158c:	4645      	mov	r5, r8
 800158e:	b5e0      	push	{r5, r6, r7, lr}
 8001590:	001f      	movs	r7, r3
 8001592:	030b      	lsls	r3, r1, #12
 8001594:	0b1b      	lsrs	r3, r3, #12
 8001596:	0016      	movs	r6, r2
 8001598:	469a      	mov	sl, r3
 800159a:	0fca      	lsrs	r2, r1, #31
 800159c:	004b      	lsls	r3, r1, #1
 800159e:	0004      	movs	r4, r0
 80015a0:	4691      	mov	r9, r2
 80015a2:	b085      	sub	sp, #20
 80015a4:	0d5b      	lsrs	r3, r3, #21
 80015a6:	d100      	bne.n	80015aa <__aeabi_dmul+0x26>
 80015a8:	e1cf      	b.n	800194a <__aeabi_dmul+0x3c6>
 80015aa:	4acd      	ldr	r2, [pc, #820]	@ (80018e0 <__aeabi_dmul+0x35c>)
 80015ac:	4293      	cmp	r3, r2
 80015ae:	d055      	beq.n	800165c <__aeabi_dmul+0xd8>
 80015b0:	4651      	mov	r1, sl
 80015b2:	0f42      	lsrs	r2, r0, #29
 80015b4:	00c9      	lsls	r1, r1, #3
 80015b6:	430a      	orrs	r2, r1
 80015b8:	2180      	movs	r1, #128	@ 0x80
 80015ba:	0409      	lsls	r1, r1, #16
 80015bc:	4311      	orrs	r1, r2
 80015be:	00c2      	lsls	r2, r0, #3
 80015c0:	4690      	mov	r8, r2
 80015c2:	4ac8      	ldr	r2, [pc, #800]	@ (80018e4 <__aeabi_dmul+0x360>)
 80015c4:	468a      	mov	sl, r1
 80015c6:	4693      	mov	fp, r2
 80015c8:	449b      	add	fp, r3
 80015ca:	2300      	movs	r3, #0
 80015cc:	2500      	movs	r5, #0
 80015ce:	9302      	str	r3, [sp, #8]
 80015d0:	033c      	lsls	r4, r7, #12
 80015d2:	007b      	lsls	r3, r7, #1
 80015d4:	0ffa      	lsrs	r2, r7, #31
 80015d6:	9601      	str	r6, [sp, #4]
 80015d8:	0b24      	lsrs	r4, r4, #12
 80015da:	0d5b      	lsrs	r3, r3, #21
 80015dc:	9200      	str	r2, [sp, #0]
 80015de:	d100      	bne.n	80015e2 <__aeabi_dmul+0x5e>
 80015e0:	e188      	b.n	80018f4 <__aeabi_dmul+0x370>
 80015e2:	4abf      	ldr	r2, [pc, #764]	@ (80018e0 <__aeabi_dmul+0x35c>)
 80015e4:	4293      	cmp	r3, r2
 80015e6:	d100      	bne.n	80015ea <__aeabi_dmul+0x66>
 80015e8:	e092      	b.n	8001710 <__aeabi_dmul+0x18c>
 80015ea:	4abe      	ldr	r2, [pc, #760]	@ (80018e4 <__aeabi_dmul+0x360>)
 80015ec:	4694      	mov	ip, r2
 80015ee:	4463      	add	r3, ip
 80015f0:	449b      	add	fp, r3
 80015f2:	2d0a      	cmp	r5, #10
 80015f4:	dc42      	bgt.n	800167c <__aeabi_dmul+0xf8>
 80015f6:	00e4      	lsls	r4, r4, #3
 80015f8:	0f73      	lsrs	r3, r6, #29
 80015fa:	4323      	orrs	r3, r4
 80015fc:	2480      	movs	r4, #128	@ 0x80
 80015fe:	4649      	mov	r1, r9
 8001600:	0424      	lsls	r4, r4, #16
 8001602:	431c      	orrs	r4, r3
 8001604:	00f3      	lsls	r3, r6, #3
 8001606:	9301      	str	r3, [sp, #4]
 8001608:	9b00      	ldr	r3, [sp, #0]
 800160a:	2000      	movs	r0, #0
 800160c:	4059      	eors	r1, r3
 800160e:	b2cb      	uxtb	r3, r1
 8001610:	9303      	str	r3, [sp, #12]
 8001612:	2d02      	cmp	r5, #2
 8001614:	dc00      	bgt.n	8001618 <__aeabi_dmul+0x94>
 8001616:	e094      	b.n	8001742 <__aeabi_dmul+0x1be>
 8001618:	2301      	movs	r3, #1
 800161a:	40ab      	lsls	r3, r5
 800161c:	001d      	movs	r5, r3
 800161e:	23a6      	movs	r3, #166	@ 0xa6
 8001620:	002a      	movs	r2, r5
 8001622:	00db      	lsls	r3, r3, #3
 8001624:	401a      	ands	r2, r3
 8001626:	421d      	tst	r5, r3
 8001628:	d000      	beq.n	800162c <__aeabi_dmul+0xa8>
 800162a:	e229      	b.n	8001a80 <__aeabi_dmul+0x4fc>
 800162c:	2390      	movs	r3, #144	@ 0x90
 800162e:	009b      	lsls	r3, r3, #2
 8001630:	421d      	tst	r5, r3
 8001632:	d100      	bne.n	8001636 <__aeabi_dmul+0xb2>
 8001634:	e24d      	b.n	8001ad2 <__aeabi_dmul+0x54e>
 8001636:	2300      	movs	r3, #0
 8001638:	2480      	movs	r4, #128	@ 0x80
 800163a:	4699      	mov	r9, r3
 800163c:	0324      	lsls	r4, r4, #12
 800163e:	4ba8      	ldr	r3, [pc, #672]	@ (80018e0 <__aeabi_dmul+0x35c>)
 8001640:	0010      	movs	r0, r2
 8001642:	464a      	mov	r2, r9
 8001644:	051b      	lsls	r3, r3, #20
 8001646:	4323      	orrs	r3, r4
 8001648:	07d2      	lsls	r2, r2, #31
 800164a:	4313      	orrs	r3, r2
 800164c:	0019      	movs	r1, r3
 800164e:	b005      	add	sp, #20
 8001650:	bcf0      	pop	{r4, r5, r6, r7}
 8001652:	46bb      	mov	fp, r7
 8001654:	46b2      	mov	sl, r6
 8001656:	46a9      	mov	r9, r5
 8001658:	46a0      	mov	r8, r4
 800165a:	bdf0      	pop	{r4, r5, r6, r7, pc}
 800165c:	4652      	mov	r2, sl
 800165e:	4302      	orrs	r2, r0
 8001660:	4690      	mov	r8, r2
 8001662:	d000      	beq.n	8001666 <__aeabi_dmul+0xe2>
 8001664:	e1ac      	b.n	80019c0 <__aeabi_dmul+0x43c>
 8001666:	469b      	mov	fp, r3
 8001668:	2302      	movs	r3, #2
 800166a:	4692      	mov	sl, r2
 800166c:	2508      	movs	r5, #8
 800166e:	9302      	str	r3, [sp, #8]
 8001670:	e7ae      	b.n	80015d0 <__aeabi_dmul+0x4c>
 8001672:	9b00      	ldr	r3, [sp, #0]
 8001674:	46a2      	mov	sl, r4
 8001676:	4699      	mov	r9, r3
 8001678:	9b01      	ldr	r3, [sp, #4]
 800167a:	4698      	mov	r8, r3
 800167c:	9b02      	ldr	r3, [sp, #8]
 800167e:	2b02      	cmp	r3, #2
 8001680:	d100      	bne.n	8001684 <__aeabi_dmul+0x100>
 8001682:	e1ca      	b.n	8001a1a <__aeabi_dmul+0x496>
 8001684:	2b03      	cmp	r3, #3
 8001686:	d100      	bne.n	800168a <__aeabi_dmul+0x106>
 8001688:	e192      	b.n	80019b0 <__aeabi_dmul+0x42c>
 800168a:	2b01      	cmp	r3, #1
 800168c:	d110      	bne.n	80016b0 <__aeabi_dmul+0x12c>
 800168e:	2300      	movs	r3, #0
 8001690:	2400      	movs	r4, #0
 8001692:	2200      	movs	r2, #0
 8001694:	e7d4      	b.n	8001640 <__aeabi_dmul+0xbc>
 8001696:	2201      	movs	r2, #1
 8001698:	087b      	lsrs	r3, r7, #1
 800169a:	403a      	ands	r2, r7
 800169c:	4313      	orrs	r3, r2
 800169e:	4652      	mov	r2, sl
 80016a0:	07d2      	lsls	r2, r2, #31
 80016a2:	4313      	orrs	r3, r2
 80016a4:	4698      	mov	r8, r3
 80016a6:	4653      	mov	r3, sl
 80016a8:	085b      	lsrs	r3, r3, #1
 80016aa:	469a      	mov	sl, r3
 80016ac:	9b03      	ldr	r3, [sp, #12]
 80016ae:	4699      	mov	r9, r3
 80016b0:	465b      	mov	r3, fp
 80016b2:	1c58      	adds	r0, r3, #1
 80016b4:	2380      	movs	r3, #128	@ 0x80
 80016b6:	00db      	lsls	r3, r3, #3
 80016b8:	445b      	add	r3, fp
 80016ba:	2b00      	cmp	r3, #0
 80016bc:	dc00      	bgt.n	80016c0 <__aeabi_dmul+0x13c>
 80016be:	e1b1      	b.n	8001a24 <__aeabi_dmul+0x4a0>
 80016c0:	4642      	mov	r2, r8
 80016c2:	0752      	lsls	r2, r2, #29
 80016c4:	d00b      	beq.n	80016de <__aeabi_dmul+0x15a>
 80016c6:	220f      	movs	r2, #15
 80016c8:	4641      	mov	r1, r8
 80016ca:	400a      	ands	r2, r1
 80016cc:	2a04      	cmp	r2, #4
 80016ce:	d006      	beq.n	80016de <__aeabi_dmul+0x15a>
 80016d0:	4642      	mov	r2, r8
 80016d2:	1d11      	adds	r1, r2, #4
 80016d4:	4541      	cmp	r1, r8
 80016d6:	4192      	sbcs	r2, r2
 80016d8:	4688      	mov	r8, r1
 80016da:	4252      	negs	r2, r2
 80016dc:	4492      	add	sl, r2
 80016de:	4652      	mov	r2, sl
 80016e0:	01d2      	lsls	r2, r2, #7
 80016e2:	d506      	bpl.n	80016f2 <__aeabi_dmul+0x16e>
 80016e4:	4652      	mov	r2, sl
 80016e6:	4b80      	ldr	r3, [pc, #512]	@ (80018e8 <__aeabi_dmul+0x364>)
 80016e8:	401a      	ands	r2, r3
 80016ea:	2380      	movs	r3, #128	@ 0x80
 80016ec:	4692      	mov	sl, r2
 80016ee:	00db      	lsls	r3, r3, #3
 80016f0:	18c3      	adds	r3, r0, r3
 80016f2:	4a7e      	ldr	r2, [pc, #504]	@ (80018ec <__aeabi_dmul+0x368>)
 80016f4:	4293      	cmp	r3, r2
 80016f6:	dd00      	ble.n	80016fa <__aeabi_dmul+0x176>
 80016f8:	e18f      	b.n	8001a1a <__aeabi_dmul+0x496>
 80016fa:	4642      	mov	r2, r8
 80016fc:	08d1      	lsrs	r1, r2, #3
 80016fe:	4652      	mov	r2, sl
 8001700:	0752      	lsls	r2, r2, #29
 8001702:	430a      	orrs	r2, r1
 8001704:	4651      	mov	r1, sl
 8001706:	055b      	lsls	r3, r3, #21
 8001708:	024c      	lsls	r4, r1, #9
 800170a:	0b24      	lsrs	r4, r4, #12
 800170c:	0d5b      	lsrs	r3, r3, #21
 800170e:	e797      	b.n	8001640 <__aeabi_dmul+0xbc>
 8001710:	4b73      	ldr	r3, [pc, #460]	@ (80018e0 <__aeabi_dmul+0x35c>)
 8001712:	4326      	orrs	r6, r4
 8001714:	469c      	mov	ip, r3
 8001716:	44e3      	add	fp, ip
 8001718:	2e00      	cmp	r6, #0
 800171a:	d100      	bne.n	800171e <__aeabi_dmul+0x19a>
 800171c:	e16f      	b.n	80019fe <__aeabi_dmul+0x47a>
 800171e:	2303      	movs	r3, #3
 8001720:	4649      	mov	r1, r9
 8001722:	431d      	orrs	r5, r3
 8001724:	9b00      	ldr	r3, [sp, #0]
 8001726:	4059      	eors	r1, r3
 8001728:	b2cb      	uxtb	r3, r1
 800172a:	9303      	str	r3, [sp, #12]
 800172c:	2d0a      	cmp	r5, #10
 800172e:	dd00      	ble.n	8001732 <__aeabi_dmul+0x1ae>
 8001730:	e133      	b.n	800199a <__aeabi_dmul+0x416>
 8001732:	2301      	movs	r3, #1
 8001734:	40ab      	lsls	r3, r5
 8001736:	001d      	movs	r5, r3
 8001738:	2303      	movs	r3, #3
 800173a:	9302      	str	r3, [sp, #8]
 800173c:	2288      	movs	r2, #136	@ 0x88
 800173e:	422a      	tst	r2, r5
 8001740:	d197      	bne.n	8001672 <__aeabi_dmul+0xee>
 8001742:	4642      	mov	r2, r8
 8001744:	4643      	mov	r3, r8
 8001746:	0412      	lsls	r2, r2, #16
 8001748:	0c12      	lsrs	r2, r2, #16
 800174a:	0016      	movs	r6, r2
 800174c:	9801      	ldr	r0, [sp, #4]
 800174e:	0c1d      	lsrs	r5, r3, #16
 8001750:	0c03      	lsrs	r3, r0, #16
 8001752:	0400      	lsls	r0, r0, #16
 8001754:	0c00      	lsrs	r0, r0, #16
 8001756:	4346      	muls	r6, r0
 8001758:	46b4      	mov	ip, r6
 800175a:	001e      	movs	r6, r3
 800175c:	436e      	muls	r6, r5
 800175e:	9600      	str	r6, [sp, #0]
 8001760:	0016      	movs	r6, r2
 8001762:	0007      	movs	r7, r0
 8001764:	435e      	muls	r6, r3
 8001766:	4661      	mov	r1, ip
 8001768:	46b0      	mov	r8, r6
 800176a:	436f      	muls	r7, r5
 800176c:	0c0e      	lsrs	r6, r1, #16
 800176e:	44b8      	add	r8, r7
 8001770:	4446      	add	r6, r8
 8001772:	42b7      	cmp	r7, r6
 8001774:	d905      	bls.n	8001782 <__aeabi_dmul+0x1fe>
 8001776:	2180      	movs	r1, #128	@ 0x80
 8001778:	0249      	lsls	r1, r1, #9
 800177a:	4688      	mov	r8, r1
 800177c:	9f00      	ldr	r7, [sp, #0]
 800177e:	4447      	add	r7, r8
 8001780:	9700      	str	r7, [sp, #0]
 8001782:	4661      	mov	r1, ip
 8001784:	0409      	lsls	r1, r1, #16
 8001786:	0c09      	lsrs	r1, r1, #16
 8001788:	0c37      	lsrs	r7, r6, #16
 800178a:	0436      	lsls	r6, r6, #16
 800178c:	468c      	mov	ip, r1
 800178e:	0031      	movs	r1, r6
 8001790:	4461      	add	r1, ip
 8001792:	9101      	str	r1, [sp, #4]
 8001794:	0011      	movs	r1, r2
 8001796:	0c26      	lsrs	r6, r4, #16
 8001798:	0424      	lsls	r4, r4, #16
 800179a:	0c24      	lsrs	r4, r4, #16
 800179c:	4361      	muls	r1, r4
 800179e:	468c      	mov	ip, r1
 80017a0:	0021      	movs	r1, r4
 80017a2:	4369      	muls	r1, r5
 80017a4:	4689      	mov	r9, r1
 80017a6:	4661      	mov	r1, ip
 80017a8:	0c09      	lsrs	r1, r1, #16
 80017aa:	4688      	mov	r8, r1
 80017ac:	4372      	muls	r2, r6
 80017ae:	444a      	add	r2, r9
 80017b0:	4442      	add	r2, r8
 80017b2:	4375      	muls	r5, r6
 80017b4:	4591      	cmp	r9, r2
 80017b6:	d903      	bls.n	80017c0 <__aeabi_dmul+0x23c>
 80017b8:	2180      	movs	r1, #128	@ 0x80
 80017ba:	0249      	lsls	r1, r1, #9
 80017bc:	4688      	mov	r8, r1
 80017be:	4445      	add	r5, r8
 80017c0:	0c11      	lsrs	r1, r2, #16
 80017c2:	4688      	mov	r8, r1
 80017c4:	4661      	mov	r1, ip
 80017c6:	0409      	lsls	r1, r1, #16
 80017c8:	0c09      	lsrs	r1, r1, #16
 80017ca:	468c      	mov	ip, r1
 80017cc:	0412      	lsls	r2, r2, #16
 80017ce:	4462      	add	r2, ip
 80017d0:	18b9      	adds	r1, r7, r2
 80017d2:	9102      	str	r1, [sp, #8]
 80017d4:	4651      	mov	r1, sl
 80017d6:	0c09      	lsrs	r1, r1, #16
 80017d8:	468c      	mov	ip, r1
 80017da:	4651      	mov	r1, sl
 80017dc:	040f      	lsls	r7, r1, #16
 80017de:	0c3f      	lsrs	r7, r7, #16
 80017e0:	0039      	movs	r1, r7
 80017e2:	4341      	muls	r1, r0
 80017e4:	4445      	add	r5, r8
 80017e6:	4688      	mov	r8, r1
 80017e8:	4661      	mov	r1, ip
 80017ea:	4341      	muls	r1, r0
 80017ec:	468a      	mov	sl, r1
 80017ee:	4641      	mov	r1, r8
 80017f0:	4660      	mov	r0, ip
 80017f2:	0c09      	lsrs	r1, r1, #16
 80017f4:	4689      	mov	r9, r1
 80017f6:	4358      	muls	r0, r3
 80017f8:	437b      	muls	r3, r7
 80017fa:	4453      	add	r3, sl
 80017fc:	444b      	add	r3, r9
 80017fe:	459a      	cmp	sl, r3
 8001800:	d903      	bls.n	800180a <__aeabi_dmul+0x286>
 8001802:	2180      	movs	r1, #128	@ 0x80
 8001804:	0249      	lsls	r1, r1, #9
 8001806:	4689      	mov	r9, r1
 8001808:	4448      	add	r0, r9
 800180a:	0c19      	lsrs	r1, r3, #16
 800180c:	4689      	mov	r9, r1
 800180e:	4641      	mov	r1, r8
 8001810:	0409      	lsls	r1, r1, #16
 8001812:	0c09      	lsrs	r1, r1, #16
 8001814:	4688      	mov	r8, r1
 8001816:	0039      	movs	r1, r7
 8001818:	4361      	muls	r1, r4
 800181a:	041b      	lsls	r3, r3, #16
 800181c:	4443      	add	r3, r8
 800181e:	4688      	mov	r8, r1
 8001820:	4661      	mov	r1, ip
 8001822:	434c      	muls	r4, r1
 8001824:	4371      	muls	r1, r6
 8001826:	468c      	mov	ip, r1
 8001828:	4641      	mov	r1, r8
 800182a:	4377      	muls	r7, r6
 800182c:	0c0e      	lsrs	r6, r1, #16
 800182e:	193f      	adds	r7, r7, r4
 8001830:	19f6      	adds	r6, r6, r7
 8001832:	4448      	add	r0, r9
 8001834:	42b4      	cmp	r4, r6
 8001836:	d903      	bls.n	8001840 <__aeabi_dmul+0x2bc>
 8001838:	2180      	movs	r1, #128	@ 0x80
 800183a:	0249      	lsls	r1, r1, #9
 800183c:	4689      	mov	r9, r1
 800183e:	44cc      	add	ip, r9
 8001840:	9902      	ldr	r1, [sp, #8]
 8001842:	9f00      	ldr	r7, [sp, #0]
 8001844:	4689      	mov	r9, r1
 8001846:	0431      	lsls	r1, r6, #16
 8001848:	444f      	add	r7, r9
 800184a:	4689      	mov	r9, r1
 800184c:	4641      	mov	r1, r8
 800184e:	4297      	cmp	r7, r2
 8001850:	4192      	sbcs	r2, r2
 8001852:	040c      	lsls	r4, r1, #16
 8001854:	0c24      	lsrs	r4, r4, #16
 8001856:	444c      	add	r4, r9
 8001858:	18ff      	adds	r7, r7, r3
 800185a:	4252      	negs	r2, r2
 800185c:	1964      	adds	r4, r4, r5
 800185e:	18a1      	adds	r1, r4, r2
 8001860:	429f      	cmp	r7, r3
 8001862:	419b      	sbcs	r3, r3
 8001864:	4688      	mov	r8, r1
 8001866:	4682      	mov	sl, r0
 8001868:	425b      	negs	r3, r3
 800186a:	4699      	mov	r9, r3
 800186c:	4590      	cmp	r8, r2
 800186e:	4192      	sbcs	r2, r2
 8001870:	42ac      	cmp	r4, r5
 8001872:	41a4      	sbcs	r4, r4
 8001874:	44c2      	add	sl, r8
 8001876:	44d1      	add	r9, sl
 8001878:	4252      	negs	r2, r2
 800187a:	4264      	negs	r4, r4
 800187c:	4314      	orrs	r4, r2
 800187e:	4599      	cmp	r9, r3
 8001880:	419b      	sbcs	r3, r3
 8001882:	4582      	cmp	sl, r0
 8001884:	4192      	sbcs	r2, r2
 8001886:	425b      	negs	r3, r3
 8001888:	4252      	negs	r2, r2
 800188a:	4313      	orrs	r3, r2
 800188c:	464a      	mov	r2, r9
 800188e:	0c36      	lsrs	r6, r6, #16
 8001890:	19a4      	adds	r4, r4, r6
 8001892:	18e3      	adds	r3, r4, r3
 8001894:	4463      	add	r3, ip
 8001896:	025b      	lsls	r3, r3, #9
 8001898:	0dd2      	lsrs	r2, r2, #23
 800189a:	431a      	orrs	r2, r3
 800189c:	9901      	ldr	r1, [sp, #4]
 800189e:	4692      	mov	sl, r2
 80018a0:	027a      	lsls	r2, r7, #9
 80018a2:	430a      	orrs	r2, r1
 80018a4:	1e50      	subs	r0, r2, #1
 80018a6:	4182      	sbcs	r2, r0
 80018a8:	0dff      	lsrs	r7, r7, #23
 80018aa:	4317      	orrs	r7, r2
 80018ac:	464a      	mov	r2, r9
 80018ae:	0252      	lsls	r2, r2, #9
 80018b0:	4317      	orrs	r7, r2
 80018b2:	46b8      	mov	r8, r7
 80018b4:	01db      	lsls	r3, r3, #7
 80018b6:	d500      	bpl.n	80018ba <__aeabi_dmul+0x336>
 80018b8:	e6ed      	b.n	8001696 <__aeabi_dmul+0x112>
 80018ba:	4b0d      	ldr	r3, [pc, #52]	@ (80018f0 <__aeabi_dmul+0x36c>)
 80018bc:	9a03      	ldr	r2, [sp, #12]
 80018be:	445b      	add	r3, fp
 80018c0:	4691      	mov	r9, r2
 80018c2:	2b00      	cmp	r3, #0
 80018c4:	dc00      	bgt.n	80018c8 <__aeabi_dmul+0x344>
 80018c6:	e0ac      	b.n	8001a22 <__aeabi_dmul+0x49e>
 80018c8:	003a      	movs	r2, r7
 80018ca:	0752      	lsls	r2, r2, #29
 80018cc:	d100      	bne.n	80018d0 <__aeabi_dmul+0x34c>
 80018ce:	e710      	b.n	80016f2 <__aeabi_dmul+0x16e>
 80018d0:	220f      	movs	r2, #15
 80018d2:	4658      	mov	r0, fp
 80018d4:	403a      	ands	r2, r7
 80018d6:	2a04      	cmp	r2, #4
 80018d8:	d000      	beq.n	80018dc <__aeabi_dmul+0x358>
 80018da:	e6f9      	b.n	80016d0 <__aeabi_dmul+0x14c>
 80018dc:	e709      	b.n	80016f2 <__aeabi_dmul+0x16e>
 80018de:	46c0      	nop			@ (mov r8, r8)
 80018e0:	000007ff 	.word	0x000007ff
 80018e4:	fffffc01 	.word	0xfffffc01
 80018e8:	feffffff 	.word	0xfeffffff
 80018ec:	000007fe 	.word	0x000007fe
 80018f0:	000003ff 	.word	0x000003ff
 80018f4:	0022      	movs	r2, r4
 80018f6:	4332      	orrs	r2, r6
 80018f8:	d06f      	beq.n	80019da <__aeabi_dmul+0x456>
 80018fa:	2c00      	cmp	r4, #0
 80018fc:	d100      	bne.n	8001900 <__aeabi_dmul+0x37c>
 80018fe:	e0c2      	b.n	8001a86 <__aeabi_dmul+0x502>
 8001900:	0020      	movs	r0, r4
 8001902:	f000 fdbd 	bl	8002480 <__clzsi2>
 8001906:	0002      	movs	r2, r0
 8001908:	0003      	movs	r3, r0
 800190a:	3a0b      	subs	r2, #11
 800190c:	201d      	movs	r0, #29
 800190e:	1a82      	subs	r2, r0, r2
 8001910:	0030      	movs	r0, r6
 8001912:	0019      	movs	r1, r3
 8001914:	40d0      	lsrs	r0, r2
 8001916:	3908      	subs	r1, #8
 8001918:	408c      	lsls	r4, r1
 800191a:	0002      	movs	r2, r0
 800191c:	4322      	orrs	r2, r4
 800191e:	0034      	movs	r4, r6
 8001920:	408c      	lsls	r4, r1
 8001922:	4659      	mov	r1, fp
 8001924:	1acb      	subs	r3, r1, r3
 8001926:	4986      	ldr	r1, [pc, #536]	@ (8001b40 <__aeabi_dmul+0x5bc>)
 8001928:	468b      	mov	fp, r1
 800192a:	449b      	add	fp, r3
 800192c:	2d0a      	cmp	r5, #10
 800192e:	dd00      	ble.n	8001932 <__aeabi_dmul+0x3ae>
 8001930:	e6a4      	b.n	800167c <__aeabi_dmul+0xf8>
 8001932:	4649      	mov	r1, r9
 8001934:	9b00      	ldr	r3, [sp, #0]
 8001936:	9401      	str	r4, [sp, #4]
 8001938:	4059      	eors	r1, r3
 800193a:	b2cb      	uxtb	r3, r1
 800193c:	0014      	movs	r4, r2
 800193e:	2000      	movs	r0, #0
 8001940:	9303      	str	r3, [sp, #12]
 8001942:	2d02      	cmp	r5, #2
 8001944:	dd00      	ble.n	8001948 <__aeabi_dmul+0x3c4>
 8001946:	e667      	b.n	8001618 <__aeabi_dmul+0x94>
 8001948:	e6fb      	b.n	8001742 <__aeabi_dmul+0x1be>
 800194a:	4653      	mov	r3, sl
 800194c:	4303      	orrs	r3, r0
 800194e:	4698      	mov	r8, r3
 8001950:	d03c      	beq.n	80019cc <__aeabi_dmul+0x448>
 8001952:	4653      	mov	r3, sl
 8001954:	2b00      	cmp	r3, #0
 8001956:	d100      	bne.n	800195a <__aeabi_dmul+0x3d6>
 8001958:	e0a3      	b.n	8001aa2 <__aeabi_dmul+0x51e>
 800195a:	4650      	mov	r0, sl
 800195c:	f000 fd90 	bl	8002480 <__clzsi2>
 8001960:	230b      	movs	r3, #11
 8001962:	425b      	negs	r3, r3
 8001964:	469c      	mov	ip, r3
 8001966:	0002      	movs	r2, r0
 8001968:	4484      	add	ip, r0
 800196a:	0011      	movs	r1, r2
 800196c:	4650      	mov	r0, sl
 800196e:	3908      	subs	r1, #8
 8001970:	4088      	lsls	r0, r1
 8001972:	231d      	movs	r3, #29
 8001974:	4680      	mov	r8, r0
 8001976:	4660      	mov	r0, ip
 8001978:	1a1b      	subs	r3, r3, r0
 800197a:	0020      	movs	r0, r4
 800197c:	40d8      	lsrs	r0, r3
 800197e:	0003      	movs	r3, r0
 8001980:	4640      	mov	r0, r8
 8001982:	4303      	orrs	r3, r0
 8001984:	469a      	mov	sl, r3
 8001986:	0023      	movs	r3, r4
 8001988:	408b      	lsls	r3, r1
 800198a:	4698      	mov	r8, r3
 800198c:	4b6c      	ldr	r3, [pc, #432]	@ (8001b40 <__aeabi_dmul+0x5bc>)
 800198e:	2500      	movs	r5, #0
 8001990:	1a9b      	subs	r3, r3, r2
 8001992:	469b      	mov	fp, r3
 8001994:	2300      	movs	r3, #0
 8001996:	9302      	str	r3, [sp, #8]
 8001998:	e61a      	b.n	80015d0 <__aeabi_dmul+0x4c>
 800199a:	2d0f      	cmp	r5, #15
 800199c:	d000      	beq.n	80019a0 <__aeabi_dmul+0x41c>
 800199e:	e0c9      	b.n	8001b34 <__aeabi_dmul+0x5b0>
 80019a0:	2380      	movs	r3, #128	@ 0x80
 80019a2:	4652      	mov	r2, sl
 80019a4:	031b      	lsls	r3, r3, #12
 80019a6:	421a      	tst	r2, r3
 80019a8:	d002      	beq.n	80019b0 <__aeabi_dmul+0x42c>
 80019aa:	421c      	tst	r4, r3
 80019ac:	d100      	bne.n	80019b0 <__aeabi_dmul+0x42c>
 80019ae:	e092      	b.n	8001ad6 <__aeabi_dmul+0x552>
 80019b0:	2480      	movs	r4, #128	@ 0x80
 80019b2:	4653      	mov	r3, sl
 80019b4:	0324      	lsls	r4, r4, #12
 80019b6:	431c      	orrs	r4, r3
 80019b8:	0324      	lsls	r4, r4, #12
 80019ba:	4642      	mov	r2, r8
 80019bc:	0b24      	lsrs	r4, r4, #12
 80019be:	e63e      	b.n	800163e <__aeabi_dmul+0xba>
 80019c0:	469b      	mov	fp, r3
 80019c2:	2303      	movs	r3, #3
 80019c4:	4680      	mov	r8, r0
 80019c6:	250c      	movs	r5, #12
 80019c8:	9302      	str	r3, [sp, #8]
 80019ca:	e601      	b.n	80015d0 <__aeabi_dmul+0x4c>
 80019cc:	2300      	movs	r3, #0
 80019ce:	469a      	mov	sl, r3
 80019d0:	469b      	mov	fp, r3
 80019d2:	3301      	adds	r3, #1
 80019d4:	2504      	movs	r5, #4
 80019d6:	9302      	str	r3, [sp, #8]
 80019d8:	e5fa      	b.n	80015d0 <__aeabi_dmul+0x4c>
 80019da:	2101      	movs	r1, #1
 80019dc:	430d      	orrs	r5, r1
 80019de:	2d0a      	cmp	r5, #10
 80019e0:	dd00      	ble.n	80019e4 <__aeabi_dmul+0x460>
 80019e2:	e64b      	b.n	800167c <__aeabi_dmul+0xf8>
 80019e4:	4649      	mov	r1, r9
 80019e6:	9800      	ldr	r0, [sp, #0]
 80019e8:	4041      	eors	r1, r0
 80019ea:	b2c9      	uxtb	r1, r1
 80019ec:	9103      	str	r1, [sp, #12]
 80019ee:	2d02      	cmp	r5, #2
 80019f0:	dc00      	bgt.n	80019f4 <__aeabi_dmul+0x470>
 80019f2:	e096      	b.n	8001b22 <__aeabi_dmul+0x59e>
 80019f4:	2300      	movs	r3, #0
 80019f6:	2400      	movs	r4, #0
 80019f8:	2001      	movs	r0, #1
 80019fa:	9301      	str	r3, [sp, #4]
 80019fc:	e60c      	b.n	8001618 <__aeabi_dmul+0x94>
 80019fe:	4649      	mov	r1, r9
 8001a00:	2302      	movs	r3, #2
 8001a02:	9a00      	ldr	r2, [sp, #0]
 8001a04:	432b      	orrs	r3, r5
 8001a06:	4051      	eors	r1, r2
 8001a08:	b2ca      	uxtb	r2, r1
 8001a0a:	9203      	str	r2, [sp, #12]
 8001a0c:	2b0a      	cmp	r3, #10
 8001a0e:	dd00      	ble.n	8001a12 <__aeabi_dmul+0x48e>
 8001a10:	e634      	b.n	800167c <__aeabi_dmul+0xf8>
 8001a12:	2d00      	cmp	r5, #0
 8001a14:	d157      	bne.n	8001ac6 <__aeabi_dmul+0x542>
 8001a16:	9b03      	ldr	r3, [sp, #12]
 8001a18:	4699      	mov	r9, r3
 8001a1a:	2400      	movs	r4, #0
 8001a1c:	2200      	movs	r2, #0
 8001a1e:	4b49      	ldr	r3, [pc, #292]	@ (8001b44 <__aeabi_dmul+0x5c0>)
 8001a20:	e60e      	b.n	8001640 <__aeabi_dmul+0xbc>
 8001a22:	4658      	mov	r0, fp
 8001a24:	2101      	movs	r1, #1
 8001a26:	1ac9      	subs	r1, r1, r3
 8001a28:	2938      	cmp	r1, #56	@ 0x38
 8001a2a:	dd00      	ble.n	8001a2e <__aeabi_dmul+0x4aa>
 8001a2c:	e62f      	b.n	800168e <__aeabi_dmul+0x10a>
 8001a2e:	291f      	cmp	r1, #31
 8001a30:	dd56      	ble.n	8001ae0 <__aeabi_dmul+0x55c>
 8001a32:	221f      	movs	r2, #31
 8001a34:	4654      	mov	r4, sl
 8001a36:	4252      	negs	r2, r2
 8001a38:	1ad3      	subs	r3, r2, r3
 8001a3a:	40dc      	lsrs	r4, r3
 8001a3c:	2920      	cmp	r1, #32
 8001a3e:	d007      	beq.n	8001a50 <__aeabi_dmul+0x4cc>
 8001a40:	4b41      	ldr	r3, [pc, #260]	@ (8001b48 <__aeabi_dmul+0x5c4>)
 8001a42:	4642      	mov	r2, r8
 8001a44:	469c      	mov	ip, r3
 8001a46:	4653      	mov	r3, sl
 8001a48:	4460      	add	r0, ip
 8001a4a:	4083      	lsls	r3, r0
 8001a4c:	431a      	orrs	r2, r3
 8001a4e:	4690      	mov	r8, r2
 8001a50:	4642      	mov	r2, r8
 8001a52:	2107      	movs	r1, #7
 8001a54:	1e53      	subs	r3, r2, #1
 8001a56:	419a      	sbcs	r2, r3
 8001a58:	000b      	movs	r3, r1
 8001a5a:	4322      	orrs	r2, r4
 8001a5c:	4013      	ands	r3, r2
 8001a5e:	2400      	movs	r4, #0
 8001a60:	4211      	tst	r1, r2
 8001a62:	d009      	beq.n	8001a78 <__aeabi_dmul+0x4f4>
 8001a64:	230f      	movs	r3, #15
 8001a66:	4013      	ands	r3, r2
 8001a68:	2b04      	cmp	r3, #4
 8001a6a:	d05d      	beq.n	8001b28 <__aeabi_dmul+0x5a4>
 8001a6c:	1d11      	adds	r1, r2, #4
 8001a6e:	4291      	cmp	r1, r2
 8001a70:	419b      	sbcs	r3, r3
 8001a72:	000a      	movs	r2, r1
 8001a74:	425b      	negs	r3, r3
 8001a76:	075b      	lsls	r3, r3, #29
 8001a78:	08d2      	lsrs	r2, r2, #3
 8001a7a:	431a      	orrs	r2, r3
 8001a7c:	2300      	movs	r3, #0
 8001a7e:	e5df      	b.n	8001640 <__aeabi_dmul+0xbc>
 8001a80:	9b03      	ldr	r3, [sp, #12]
 8001a82:	4699      	mov	r9, r3
 8001a84:	e5fa      	b.n	800167c <__aeabi_dmul+0xf8>
 8001a86:	9801      	ldr	r0, [sp, #4]
 8001a88:	f000 fcfa 	bl	8002480 <__clzsi2>
 8001a8c:	0002      	movs	r2, r0
 8001a8e:	0003      	movs	r3, r0
 8001a90:	3215      	adds	r2, #21
 8001a92:	3320      	adds	r3, #32
 8001a94:	2a1c      	cmp	r2, #28
 8001a96:	dc00      	bgt.n	8001a9a <__aeabi_dmul+0x516>
 8001a98:	e738      	b.n	800190c <__aeabi_dmul+0x388>
 8001a9a:	9a01      	ldr	r2, [sp, #4]
 8001a9c:	3808      	subs	r0, #8
 8001a9e:	4082      	lsls	r2, r0
 8001aa0:	e73f      	b.n	8001922 <__aeabi_dmul+0x39e>
 8001aa2:	f000 fced 	bl	8002480 <__clzsi2>
 8001aa6:	2315      	movs	r3, #21
 8001aa8:	469c      	mov	ip, r3
 8001aaa:	4484      	add	ip, r0
 8001aac:	0002      	movs	r2, r0
 8001aae:	4663      	mov	r3, ip
 8001ab0:	3220      	adds	r2, #32
 8001ab2:	2b1c      	cmp	r3, #28
 8001ab4:	dc00      	bgt.n	8001ab8 <__aeabi_dmul+0x534>
 8001ab6:	e758      	b.n	800196a <__aeabi_dmul+0x3e6>
 8001ab8:	2300      	movs	r3, #0
 8001aba:	4698      	mov	r8, r3
 8001abc:	0023      	movs	r3, r4
 8001abe:	3808      	subs	r0, #8
 8001ac0:	4083      	lsls	r3, r0
 8001ac2:	469a      	mov	sl, r3
 8001ac4:	e762      	b.n	800198c <__aeabi_dmul+0x408>
 8001ac6:	001d      	movs	r5, r3
 8001ac8:	2300      	movs	r3, #0
 8001aca:	2400      	movs	r4, #0
 8001acc:	2002      	movs	r0, #2
 8001ace:	9301      	str	r3, [sp, #4]
 8001ad0:	e5a2      	b.n	8001618 <__aeabi_dmul+0x94>
 8001ad2:	9002      	str	r0, [sp, #8]
 8001ad4:	e632      	b.n	800173c <__aeabi_dmul+0x1b8>
 8001ad6:	431c      	orrs	r4, r3
 8001ad8:	9b00      	ldr	r3, [sp, #0]
 8001ada:	9a01      	ldr	r2, [sp, #4]
 8001adc:	4699      	mov	r9, r3
 8001ade:	e5ae      	b.n	800163e <__aeabi_dmul+0xba>
 8001ae0:	4b1a      	ldr	r3, [pc, #104]	@ (8001b4c <__aeabi_dmul+0x5c8>)
 8001ae2:	4652      	mov	r2, sl
 8001ae4:	18c3      	adds	r3, r0, r3
 8001ae6:	4640      	mov	r0, r8
 8001ae8:	409a      	lsls	r2, r3
 8001aea:	40c8      	lsrs	r0, r1
 8001aec:	4302      	orrs	r2, r0
 8001aee:	4640      	mov	r0, r8
 8001af0:	4098      	lsls	r0, r3
 8001af2:	0003      	movs	r3, r0
 8001af4:	1e58      	subs	r0, r3, #1
 8001af6:	4183      	sbcs	r3, r0
 8001af8:	4654      	mov	r4, sl
 8001afa:	431a      	orrs	r2, r3
 8001afc:	40cc      	lsrs	r4, r1
 8001afe:	0753      	lsls	r3, r2, #29
 8001b00:	d009      	beq.n	8001b16 <__aeabi_dmul+0x592>
 8001b02:	230f      	movs	r3, #15
 8001b04:	4013      	ands	r3, r2
 8001b06:	2b04      	cmp	r3, #4
 8001b08:	d005      	beq.n	8001b16 <__aeabi_dmul+0x592>
 8001b0a:	1d13      	adds	r3, r2, #4
 8001b0c:	4293      	cmp	r3, r2
 8001b0e:	4192      	sbcs	r2, r2
 8001b10:	4252      	negs	r2, r2
 8001b12:	18a4      	adds	r4, r4, r2
 8001b14:	001a      	movs	r2, r3
 8001b16:	0223      	lsls	r3, r4, #8
 8001b18:	d508      	bpl.n	8001b2c <__aeabi_dmul+0x5a8>
 8001b1a:	2301      	movs	r3, #1
 8001b1c:	2400      	movs	r4, #0
 8001b1e:	2200      	movs	r2, #0
 8001b20:	e58e      	b.n	8001640 <__aeabi_dmul+0xbc>
 8001b22:	4689      	mov	r9, r1
 8001b24:	2400      	movs	r4, #0
 8001b26:	e58b      	b.n	8001640 <__aeabi_dmul+0xbc>
 8001b28:	2300      	movs	r3, #0
 8001b2a:	e7a5      	b.n	8001a78 <__aeabi_dmul+0x4f4>
 8001b2c:	0763      	lsls	r3, r4, #29
 8001b2e:	0264      	lsls	r4, r4, #9
 8001b30:	0b24      	lsrs	r4, r4, #12
 8001b32:	e7a1      	b.n	8001a78 <__aeabi_dmul+0x4f4>
 8001b34:	9b00      	ldr	r3, [sp, #0]
 8001b36:	46a2      	mov	sl, r4
 8001b38:	4699      	mov	r9, r3
 8001b3a:	9b01      	ldr	r3, [sp, #4]
 8001b3c:	4698      	mov	r8, r3
 8001b3e:	e737      	b.n	80019b0 <__aeabi_dmul+0x42c>
 8001b40:	fffffc0d 	.word	0xfffffc0d
 8001b44:	000007ff 	.word	0x000007ff
 8001b48:	0000043e 	.word	0x0000043e
 8001b4c:	0000041e 	.word	0x0000041e

08001b50 <__aeabi_dsub>:
 8001b50:	b5f0      	push	{r4, r5, r6, r7, lr}
 8001b52:	4657      	mov	r7, sl
 8001b54:	464e      	mov	r6, r9
 8001b56:	4645      	mov	r5, r8
 8001b58:	46de      	mov	lr, fp
 8001b5a:	b5e0      	push	{r5, r6, r7, lr}
 8001b5c:	b083      	sub	sp, #12
 8001b5e:	9000      	str	r0, [sp, #0]
 8001b60:	9101      	str	r1, [sp, #4]
 8001b62:	030c      	lsls	r4, r1, #12
 8001b64:	004d      	lsls	r5, r1, #1
 8001b66:	0fce      	lsrs	r6, r1, #31
 8001b68:	0a61      	lsrs	r1, r4, #9
 8001b6a:	9c00      	ldr	r4, [sp, #0]
 8001b6c:	005f      	lsls	r7, r3, #1
 8001b6e:	0f64      	lsrs	r4, r4, #29
 8001b70:	430c      	orrs	r4, r1
 8001b72:	9900      	ldr	r1, [sp, #0]
 8001b74:	9200      	str	r2, [sp, #0]
 8001b76:	9301      	str	r3, [sp, #4]
 8001b78:	00c8      	lsls	r0, r1, #3
 8001b7a:	0319      	lsls	r1, r3, #12
 8001b7c:	0d7b      	lsrs	r3, r7, #21
 8001b7e:	4699      	mov	r9, r3
 8001b80:	9b01      	ldr	r3, [sp, #4]
 8001b82:	4fcc      	ldr	r7, [pc, #816]	@ (8001eb4 <__aeabi_dsub+0x364>)
 8001b84:	0fdb      	lsrs	r3, r3, #31
 8001b86:	469c      	mov	ip, r3
 8001b88:	0a4b      	lsrs	r3, r1, #9
 8001b8a:	9900      	ldr	r1, [sp, #0]
 8001b8c:	4680      	mov	r8, r0
 8001b8e:	0f49      	lsrs	r1, r1, #29
 8001b90:	4319      	orrs	r1, r3
 8001b92:	9b00      	ldr	r3, [sp, #0]
 8001b94:	468b      	mov	fp, r1
 8001b96:	00da      	lsls	r2, r3, #3
 8001b98:	4692      	mov	sl, r2
 8001b9a:	0d6d      	lsrs	r5, r5, #21
 8001b9c:	45b9      	cmp	r9, r7
 8001b9e:	d100      	bne.n	8001ba2 <__aeabi_dsub+0x52>
 8001ba0:	e0bf      	b.n	8001d22 <__aeabi_dsub+0x1d2>
 8001ba2:	2301      	movs	r3, #1
 8001ba4:	4661      	mov	r1, ip
 8001ba6:	4059      	eors	r1, r3
 8001ba8:	464b      	mov	r3, r9
 8001baa:	468c      	mov	ip, r1
 8001bac:	1aeb      	subs	r3, r5, r3
 8001bae:	428e      	cmp	r6, r1
 8001bb0:	d075      	beq.n	8001c9e <__aeabi_dsub+0x14e>
 8001bb2:	2b00      	cmp	r3, #0
 8001bb4:	dc00      	bgt.n	8001bb8 <__aeabi_dsub+0x68>
 8001bb6:	e2a3      	b.n	8002100 <__aeabi_dsub+0x5b0>
 8001bb8:	4649      	mov	r1, r9
 8001bba:	2900      	cmp	r1, #0
 8001bbc:	d100      	bne.n	8001bc0 <__aeabi_dsub+0x70>
 8001bbe:	e0ce      	b.n	8001d5e <__aeabi_dsub+0x20e>
 8001bc0:	42bd      	cmp	r5, r7
 8001bc2:	d100      	bne.n	8001bc6 <__aeabi_dsub+0x76>
 8001bc4:	e200      	b.n	8001fc8 <__aeabi_dsub+0x478>
 8001bc6:	2701      	movs	r7, #1
 8001bc8:	2b38      	cmp	r3, #56	@ 0x38
 8001bca:	dc19      	bgt.n	8001c00 <__aeabi_dsub+0xb0>
 8001bcc:	2780      	movs	r7, #128	@ 0x80
 8001bce:	4659      	mov	r1, fp
 8001bd0:	043f      	lsls	r7, r7, #16
 8001bd2:	4339      	orrs	r1, r7
 8001bd4:	468b      	mov	fp, r1
 8001bd6:	2b1f      	cmp	r3, #31
 8001bd8:	dd00      	ble.n	8001bdc <__aeabi_dsub+0x8c>
 8001bda:	e1fa      	b.n	8001fd2 <__aeabi_dsub+0x482>
 8001bdc:	2720      	movs	r7, #32
 8001bde:	1af9      	subs	r1, r7, r3
 8001be0:	468c      	mov	ip, r1
 8001be2:	4659      	mov	r1, fp
 8001be4:	4667      	mov	r7, ip
 8001be6:	40b9      	lsls	r1, r7
 8001be8:	000f      	movs	r7, r1
 8001bea:	0011      	movs	r1, r2
 8001bec:	40d9      	lsrs	r1, r3
 8001bee:	430f      	orrs	r7, r1
 8001bf0:	4661      	mov	r1, ip
 8001bf2:	408a      	lsls	r2, r1
 8001bf4:	1e51      	subs	r1, r2, #1
 8001bf6:	418a      	sbcs	r2, r1
 8001bf8:	4659      	mov	r1, fp
 8001bfa:	40d9      	lsrs	r1, r3
 8001bfc:	4317      	orrs	r7, r2
 8001bfe:	1a64      	subs	r4, r4, r1
 8001c00:	1bc7      	subs	r7, r0, r7
 8001c02:	42b8      	cmp	r0, r7
 8001c04:	4180      	sbcs	r0, r0
 8001c06:	4240      	negs	r0, r0
 8001c08:	1a24      	subs	r4, r4, r0
 8001c0a:	0223      	lsls	r3, r4, #8
 8001c0c:	d400      	bmi.n	8001c10 <__aeabi_dsub+0xc0>
 8001c0e:	e140      	b.n	8001e92 <__aeabi_dsub+0x342>
 8001c10:	0264      	lsls	r4, r4, #9
 8001c12:	0a64      	lsrs	r4, r4, #9
 8001c14:	2c00      	cmp	r4, #0
 8001c16:	d100      	bne.n	8001c1a <__aeabi_dsub+0xca>
 8001c18:	e154      	b.n	8001ec4 <__aeabi_dsub+0x374>
 8001c1a:	0020      	movs	r0, r4
 8001c1c:	f000 fc30 	bl	8002480 <__clzsi2>
 8001c20:	0003      	movs	r3, r0
 8001c22:	3b08      	subs	r3, #8
 8001c24:	2120      	movs	r1, #32
 8001c26:	0038      	movs	r0, r7
 8001c28:	1aca      	subs	r2, r1, r3
 8001c2a:	40d0      	lsrs	r0, r2
 8001c2c:	409c      	lsls	r4, r3
 8001c2e:	0002      	movs	r2, r0
 8001c30:	409f      	lsls	r7, r3
 8001c32:	4322      	orrs	r2, r4
 8001c34:	429d      	cmp	r5, r3
 8001c36:	dd00      	ble.n	8001c3a <__aeabi_dsub+0xea>
 8001c38:	e1a6      	b.n	8001f88 <__aeabi_dsub+0x438>
 8001c3a:	1b58      	subs	r0, r3, r5
 8001c3c:	3001      	adds	r0, #1
 8001c3e:	1a09      	subs	r1, r1, r0
 8001c40:	003c      	movs	r4, r7
 8001c42:	408f      	lsls	r7, r1
 8001c44:	40c4      	lsrs	r4, r0
 8001c46:	1e7b      	subs	r3, r7, #1
 8001c48:	419f      	sbcs	r7, r3
 8001c4a:	0013      	movs	r3, r2
 8001c4c:	408b      	lsls	r3, r1
 8001c4e:	4327      	orrs	r7, r4
 8001c50:	431f      	orrs	r7, r3
 8001c52:	40c2      	lsrs	r2, r0
 8001c54:	003b      	movs	r3, r7
 8001c56:	0014      	movs	r4, r2
 8001c58:	2500      	movs	r5, #0
 8001c5a:	4313      	orrs	r3, r2
 8001c5c:	d100      	bne.n	8001c60 <__aeabi_dsub+0x110>
 8001c5e:	e1f7      	b.n	8002050 <__aeabi_dsub+0x500>
 8001c60:	077b      	lsls	r3, r7, #29
 8001c62:	d100      	bne.n	8001c66 <__aeabi_dsub+0x116>
 8001c64:	e377      	b.n	8002356 <__aeabi_dsub+0x806>
 8001c66:	230f      	movs	r3, #15
 8001c68:	0038      	movs	r0, r7
 8001c6a:	403b      	ands	r3, r7
 8001c6c:	2b04      	cmp	r3, #4
 8001c6e:	d004      	beq.n	8001c7a <__aeabi_dsub+0x12a>
 8001c70:	1d38      	adds	r0, r7, #4
 8001c72:	42b8      	cmp	r0, r7
 8001c74:	41bf      	sbcs	r7, r7
 8001c76:	427f      	negs	r7, r7
 8001c78:	19e4      	adds	r4, r4, r7
 8001c7a:	0223      	lsls	r3, r4, #8
 8001c7c:	d400      	bmi.n	8001c80 <__aeabi_dsub+0x130>
 8001c7e:	e368      	b.n	8002352 <__aeabi_dsub+0x802>
 8001c80:	4b8c      	ldr	r3, [pc, #560]	@ (8001eb4 <__aeabi_dsub+0x364>)
 8001c82:	3501      	adds	r5, #1
 8001c84:	429d      	cmp	r5, r3
 8001c86:	d100      	bne.n	8001c8a <__aeabi_dsub+0x13a>
 8001c88:	e0f4      	b.n	8001e74 <__aeabi_dsub+0x324>
 8001c8a:	4b8b      	ldr	r3, [pc, #556]	@ (8001eb8 <__aeabi_dsub+0x368>)
 8001c8c:	056d      	lsls	r5, r5, #21
 8001c8e:	401c      	ands	r4, r3
 8001c90:	0d6d      	lsrs	r5, r5, #21
 8001c92:	0767      	lsls	r7, r4, #29
 8001c94:	08c0      	lsrs	r0, r0, #3
 8001c96:	0264      	lsls	r4, r4, #9
 8001c98:	4307      	orrs	r7, r0
 8001c9a:	0b24      	lsrs	r4, r4, #12
 8001c9c:	e0ec      	b.n	8001e78 <__aeabi_dsub+0x328>
 8001c9e:	2b00      	cmp	r3, #0
 8001ca0:	dc00      	bgt.n	8001ca4 <__aeabi_dsub+0x154>
 8001ca2:	e329      	b.n	80022f8 <__aeabi_dsub+0x7a8>
 8001ca4:	4649      	mov	r1, r9
 8001ca6:	2900      	cmp	r1, #0
 8001ca8:	d000      	beq.n	8001cac <__aeabi_dsub+0x15c>
 8001caa:	e0d6      	b.n	8001e5a <__aeabi_dsub+0x30a>
 8001cac:	4659      	mov	r1, fp
 8001cae:	4311      	orrs	r1, r2
 8001cb0:	d100      	bne.n	8001cb4 <__aeabi_dsub+0x164>
 8001cb2:	e12e      	b.n	8001f12 <__aeabi_dsub+0x3c2>
 8001cb4:	1e59      	subs	r1, r3, #1
 8001cb6:	2b01      	cmp	r3, #1
 8001cb8:	d100      	bne.n	8001cbc <__aeabi_dsub+0x16c>
 8001cba:	e1e6      	b.n	800208a <__aeabi_dsub+0x53a>
 8001cbc:	42bb      	cmp	r3, r7
 8001cbe:	d100      	bne.n	8001cc2 <__aeabi_dsub+0x172>
 8001cc0:	e182      	b.n	8001fc8 <__aeabi_dsub+0x478>
 8001cc2:	2701      	movs	r7, #1
 8001cc4:	000b      	movs	r3, r1
 8001cc6:	2938      	cmp	r1, #56	@ 0x38
 8001cc8:	dc14      	bgt.n	8001cf4 <__aeabi_dsub+0x1a4>
 8001cca:	2b1f      	cmp	r3, #31
 8001ccc:	dd00      	ble.n	8001cd0 <__aeabi_dsub+0x180>
 8001cce:	e23c      	b.n	800214a <__aeabi_dsub+0x5fa>
 8001cd0:	2720      	movs	r7, #32
 8001cd2:	1af9      	subs	r1, r7, r3
 8001cd4:	468c      	mov	ip, r1
 8001cd6:	4659      	mov	r1, fp
 8001cd8:	4667      	mov	r7, ip
 8001cda:	40b9      	lsls	r1, r7
 8001cdc:	000f      	movs	r7, r1
 8001cde:	0011      	movs	r1, r2
 8001ce0:	40d9      	lsrs	r1, r3
 8001ce2:	430f      	orrs	r7, r1
 8001ce4:	4661      	mov	r1, ip
 8001ce6:	408a      	lsls	r2, r1
 8001ce8:	1e51      	subs	r1, r2, #1
 8001cea:	418a      	sbcs	r2, r1
 8001cec:	4659      	mov	r1, fp
 8001cee:	40d9      	lsrs	r1, r3
 8001cf0:	4317      	orrs	r7, r2
 8001cf2:	1864      	adds	r4, r4, r1
 8001cf4:	183f      	adds	r7, r7, r0
 8001cf6:	4287      	cmp	r7, r0
 8001cf8:	4180      	sbcs	r0, r0
 8001cfa:	4240      	negs	r0, r0
 8001cfc:	1824      	adds	r4, r4, r0
 8001cfe:	0223      	lsls	r3, r4, #8
 8001d00:	d400      	bmi.n	8001d04 <__aeabi_dsub+0x1b4>
 8001d02:	e0c6      	b.n	8001e92 <__aeabi_dsub+0x342>
 8001d04:	4b6b      	ldr	r3, [pc, #428]	@ (8001eb4 <__aeabi_dsub+0x364>)
 8001d06:	3501      	adds	r5, #1
 8001d08:	429d      	cmp	r5, r3
 8001d0a:	d100      	bne.n	8001d0e <__aeabi_dsub+0x1be>
 8001d0c:	e0b2      	b.n	8001e74 <__aeabi_dsub+0x324>
 8001d0e:	2101      	movs	r1, #1
 8001d10:	4b69      	ldr	r3, [pc, #420]	@ (8001eb8 <__aeabi_dsub+0x368>)
 8001d12:	087a      	lsrs	r2, r7, #1
 8001d14:	401c      	ands	r4, r3
 8001d16:	4039      	ands	r1, r7
 8001d18:	430a      	orrs	r2, r1
 8001d1a:	07e7      	lsls	r7, r4, #31
 8001d1c:	4317      	orrs	r7, r2
 8001d1e:	0864      	lsrs	r4, r4, #1
 8001d20:	e79e      	b.n	8001c60 <__aeabi_dsub+0x110>
 8001d22:	4b66      	ldr	r3, [pc, #408]	@ (8001ebc <__aeabi_dsub+0x36c>)
 8001d24:	4311      	orrs	r1, r2
 8001d26:	468a      	mov	sl, r1
 8001d28:	18eb      	adds	r3, r5, r3
 8001d2a:	2900      	cmp	r1, #0
 8001d2c:	d028      	beq.n	8001d80 <__aeabi_dsub+0x230>
 8001d2e:	4566      	cmp	r6, ip
 8001d30:	d02c      	beq.n	8001d8c <__aeabi_dsub+0x23c>
 8001d32:	2b00      	cmp	r3, #0
 8001d34:	d05b      	beq.n	8001dee <__aeabi_dsub+0x29e>
 8001d36:	2d00      	cmp	r5, #0
 8001d38:	d100      	bne.n	8001d3c <__aeabi_dsub+0x1ec>
 8001d3a:	e12c      	b.n	8001f96 <__aeabi_dsub+0x446>
 8001d3c:	465b      	mov	r3, fp
 8001d3e:	4666      	mov	r6, ip
 8001d40:	075f      	lsls	r7, r3, #29
 8001d42:	08d2      	lsrs	r2, r2, #3
 8001d44:	4317      	orrs	r7, r2
 8001d46:	08dd      	lsrs	r5, r3, #3
 8001d48:	003b      	movs	r3, r7
 8001d4a:	432b      	orrs	r3, r5
 8001d4c:	d100      	bne.n	8001d50 <__aeabi_dsub+0x200>
 8001d4e:	e0e2      	b.n	8001f16 <__aeabi_dsub+0x3c6>
 8001d50:	2480      	movs	r4, #128	@ 0x80
 8001d52:	0324      	lsls	r4, r4, #12
 8001d54:	432c      	orrs	r4, r5
 8001d56:	0324      	lsls	r4, r4, #12
 8001d58:	4d56      	ldr	r5, [pc, #344]	@ (8001eb4 <__aeabi_dsub+0x364>)
 8001d5a:	0b24      	lsrs	r4, r4, #12
 8001d5c:	e08c      	b.n	8001e78 <__aeabi_dsub+0x328>
 8001d5e:	4659      	mov	r1, fp
 8001d60:	4311      	orrs	r1, r2
 8001d62:	d100      	bne.n	8001d66 <__aeabi_dsub+0x216>
 8001d64:	e0d5      	b.n	8001f12 <__aeabi_dsub+0x3c2>
 8001d66:	1e59      	subs	r1, r3, #1
 8001d68:	2b01      	cmp	r3, #1
 8001d6a:	d100      	bne.n	8001d6e <__aeabi_dsub+0x21e>
 8001d6c:	e1b9      	b.n	80020e2 <__aeabi_dsub+0x592>
 8001d6e:	42bb      	cmp	r3, r7
 8001d70:	d100      	bne.n	8001d74 <__aeabi_dsub+0x224>
 8001d72:	e1b1      	b.n	80020d8 <__aeabi_dsub+0x588>
 8001d74:	2701      	movs	r7, #1
 8001d76:	000b      	movs	r3, r1
 8001d78:	2938      	cmp	r1, #56	@ 0x38
 8001d7a:	dd00      	ble.n	8001d7e <__aeabi_dsub+0x22e>
 8001d7c:	e740      	b.n	8001c00 <__aeabi_dsub+0xb0>
 8001d7e:	e72a      	b.n	8001bd6 <__aeabi_dsub+0x86>
 8001d80:	4661      	mov	r1, ip
 8001d82:	2701      	movs	r7, #1
 8001d84:	4079      	eors	r1, r7
 8001d86:	468c      	mov	ip, r1
 8001d88:	4566      	cmp	r6, ip
 8001d8a:	d1d2      	bne.n	8001d32 <__aeabi_dsub+0x1e2>
 8001d8c:	2b00      	cmp	r3, #0
 8001d8e:	d100      	bne.n	8001d92 <__aeabi_dsub+0x242>
 8001d90:	e0c5      	b.n	8001f1e <__aeabi_dsub+0x3ce>
 8001d92:	2d00      	cmp	r5, #0
 8001d94:	d000      	beq.n	8001d98 <__aeabi_dsub+0x248>
 8001d96:	e155      	b.n	8002044 <__aeabi_dsub+0x4f4>
 8001d98:	464b      	mov	r3, r9
 8001d9a:	0025      	movs	r5, r4
 8001d9c:	4305      	orrs	r5, r0
 8001d9e:	d100      	bne.n	8001da2 <__aeabi_dsub+0x252>
 8001da0:	e212      	b.n	80021c8 <__aeabi_dsub+0x678>
 8001da2:	1e59      	subs	r1, r3, #1
 8001da4:	468c      	mov	ip, r1
 8001da6:	2b01      	cmp	r3, #1
 8001da8:	d100      	bne.n	8001dac <__aeabi_dsub+0x25c>
 8001daa:	e249      	b.n	8002240 <__aeabi_dsub+0x6f0>
 8001dac:	4d41      	ldr	r5, [pc, #260]	@ (8001eb4 <__aeabi_dsub+0x364>)
 8001dae:	42ab      	cmp	r3, r5
 8001db0:	d100      	bne.n	8001db4 <__aeabi_dsub+0x264>
 8001db2:	e28f      	b.n	80022d4 <__aeabi_dsub+0x784>
 8001db4:	2701      	movs	r7, #1
 8001db6:	2938      	cmp	r1, #56	@ 0x38
 8001db8:	dc11      	bgt.n	8001dde <__aeabi_dsub+0x28e>
 8001dba:	4663      	mov	r3, ip
 8001dbc:	2b1f      	cmp	r3, #31
 8001dbe:	dd00      	ble.n	8001dc2 <__aeabi_dsub+0x272>
 8001dc0:	e25b      	b.n	800227a <__aeabi_dsub+0x72a>
 8001dc2:	4661      	mov	r1, ip
 8001dc4:	2320      	movs	r3, #32
 8001dc6:	0027      	movs	r7, r4
 8001dc8:	1a5b      	subs	r3, r3, r1
 8001dca:	0005      	movs	r5, r0
 8001dcc:	4098      	lsls	r0, r3
 8001dce:	409f      	lsls	r7, r3
 8001dd0:	40cd      	lsrs	r5, r1
 8001dd2:	1e43      	subs	r3, r0, #1
 8001dd4:	4198      	sbcs	r0, r3
 8001dd6:	40cc      	lsrs	r4, r1
 8001dd8:	432f      	orrs	r7, r5
 8001dda:	4307      	orrs	r7, r0
 8001ddc:	44a3      	add	fp, r4
 8001dde:	18bf      	adds	r7, r7, r2
 8001de0:	4297      	cmp	r7, r2
 8001de2:	4192      	sbcs	r2, r2
 8001de4:	4252      	negs	r2, r2
 8001de6:	445a      	add	r2, fp
 8001de8:	0014      	movs	r4, r2
 8001dea:	464d      	mov	r5, r9
 8001dec:	e787      	b.n	8001cfe <__aeabi_dsub+0x1ae>
 8001dee:	4f34      	ldr	r7, [pc, #208]	@ (8001ec0 <__aeabi_dsub+0x370>)
 8001df0:	1c6b      	adds	r3, r5, #1
 8001df2:	423b      	tst	r3, r7
 8001df4:	d000      	beq.n	8001df8 <__aeabi_dsub+0x2a8>
 8001df6:	e0b6      	b.n	8001f66 <__aeabi_dsub+0x416>
 8001df8:	4659      	mov	r1, fp
 8001dfa:	0023      	movs	r3, r4
 8001dfc:	4311      	orrs	r1, r2
 8001dfe:	000f      	movs	r7, r1
 8001e00:	4303      	orrs	r3, r0
 8001e02:	2d00      	cmp	r5, #0
 8001e04:	d000      	beq.n	8001e08 <__aeabi_dsub+0x2b8>
 8001e06:	e126      	b.n	8002056 <__aeabi_dsub+0x506>
 8001e08:	2b00      	cmp	r3, #0
 8001e0a:	d100      	bne.n	8001e0e <__aeabi_dsub+0x2be>
 8001e0c:	e1c0      	b.n	8002190 <__aeabi_dsub+0x640>
 8001e0e:	2900      	cmp	r1, #0
 8001e10:	d100      	bne.n	8001e14 <__aeabi_dsub+0x2c4>
 8001e12:	e0a1      	b.n	8001f58 <__aeabi_dsub+0x408>
 8001e14:	1a83      	subs	r3, r0, r2
 8001e16:	4698      	mov	r8, r3
 8001e18:	465b      	mov	r3, fp
 8001e1a:	4540      	cmp	r0, r8
 8001e1c:	41ad      	sbcs	r5, r5
 8001e1e:	1ae3      	subs	r3, r4, r3
 8001e20:	426d      	negs	r5, r5
 8001e22:	1b5b      	subs	r3, r3, r5
 8001e24:	2580      	movs	r5, #128	@ 0x80
 8001e26:	042d      	lsls	r5, r5, #16
 8001e28:	422b      	tst	r3, r5
 8001e2a:	d100      	bne.n	8001e2e <__aeabi_dsub+0x2de>
 8001e2c:	e14b      	b.n	80020c6 <__aeabi_dsub+0x576>
 8001e2e:	465b      	mov	r3, fp
 8001e30:	1a10      	subs	r0, r2, r0
 8001e32:	4282      	cmp	r2, r0
 8001e34:	4192      	sbcs	r2, r2
 8001e36:	1b1c      	subs	r4, r3, r4
 8001e38:	0007      	movs	r7, r0
 8001e3a:	2601      	movs	r6, #1
 8001e3c:	4663      	mov	r3, ip
 8001e3e:	4252      	negs	r2, r2
 8001e40:	1aa4      	subs	r4, r4, r2
 8001e42:	4327      	orrs	r7, r4
 8001e44:	401e      	ands	r6, r3
 8001e46:	2f00      	cmp	r7, #0
 8001e48:	d100      	bne.n	8001e4c <__aeabi_dsub+0x2fc>
 8001e4a:	e142      	b.n	80020d2 <__aeabi_dsub+0x582>
 8001e4c:	422c      	tst	r4, r5
 8001e4e:	d100      	bne.n	8001e52 <__aeabi_dsub+0x302>
 8001e50:	e26d      	b.n	800232e <__aeabi_dsub+0x7de>
 8001e52:	4b19      	ldr	r3, [pc, #100]	@ (8001eb8 <__aeabi_dsub+0x368>)
 8001e54:	2501      	movs	r5, #1
 8001e56:	401c      	ands	r4, r3
 8001e58:	e71b      	b.n	8001c92 <__aeabi_dsub+0x142>
 8001e5a:	42bd      	cmp	r5, r7
 8001e5c:	d100      	bne.n	8001e60 <__aeabi_dsub+0x310>
 8001e5e:	e13b      	b.n	80020d8 <__aeabi_dsub+0x588>
 8001e60:	2701      	movs	r7, #1
 8001e62:	2b38      	cmp	r3, #56	@ 0x38
 8001e64:	dd00      	ble.n	8001e68 <__aeabi_dsub+0x318>
 8001e66:	e745      	b.n	8001cf4 <__aeabi_dsub+0x1a4>
 8001e68:	2780      	movs	r7, #128	@ 0x80
 8001e6a:	4659      	mov	r1, fp
 8001e6c:	043f      	lsls	r7, r7, #16
 8001e6e:	4339      	orrs	r1, r7
 8001e70:	468b      	mov	fp, r1
 8001e72:	e72a      	b.n	8001cca <__aeabi_dsub+0x17a>
 8001e74:	2400      	movs	r4, #0
 8001e76:	2700      	movs	r7, #0
 8001e78:	052d      	lsls	r5, r5, #20
 8001e7a:	4325      	orrs	r5, r4
 8001e7c:	07f6      	lsls	r6, r6, #31
 8001e7e:	4335      	orrs	r5, r6
 8001e80:	0038      	movs	r0, r7
 8001e82:	0029      	movs	r1, r5
 8001e84:	b003      	add	sp, #12
 8001e86:	bcf0      	pop	{r4, r5, r6, r7}
 8001e88:	46bb      	mov	fp, r7
 8001e8a:	46b2      	mov	sl, r6
 8001e8c:	46a9      	mov	r9, r5
 8001e8e:	46a0      	mov	r8, r4
 8001e90:	bdf0      	pop	{r4, r5, r6, r7, pc}
 8001e92:	077b      	lsls	r3, r7, #29
 8001e94:	d004      	beq.n	8001ea0 <__aeabi_dsub+0x350>
 8001e96:	230f      	movs	r3, #15
 8001e98:	403b      	ands	r3, r7
 8001e9a:	2b04      	cmp	r3, #4
 8001e9c:	d000      	beq.n	8001ea0 <__aeabi_dsub+0x350>
 8001e9e:	e6e7      	b.n	8001c70 <__aeabi_dsub+0x120>
 8001ea0:	002b      	movs	r3, r5
 8001ea2:	08f8      	lsrs	r0, r7, #3
 8001ea4:	4a03      	ldr	r2, [pc, #12]	@ (8001eb4 <__aeabi_dsub+0x364>)
 8001ea6:	0767      	lsls	r7, r4, #29
 8001ea8:	4307      	orrs	r7, r0
 8001eaa:	08e5      	lsrs	r5, r4, #3
 8001eac:	4293      	cmp	r3, r2
 8001eae:	d100      	bne.n	8001eb2 <__aeabi_dsub+0x362>
 8001eb0:	e74a      	b.n	8001d48 <__aeabi_dsub+0x1f8>
 8001eb2:	e0a5      	b.n	8002000 <__aeabi_dsub+0x4b0>
 8001eb4:	000007ff 	.word	0x000007ff
 8001eb8:	ff7fffff 	.word	0xff7fffff
 8001ebc:	fffff801 	.word	0xfffff801
 8001ec0:	000007fe 	.word	0x000007fe
 8001ec4:	0038      	movs	r0, r7
 8001ec6:	f000 fadb 	bl	8002480 <__clzsi2>
 8001eca:	0003      	movs	r3, r0
 8001ecc:	3318      	adds	r3, #24
 8001ece:	2b1f      	cmp	r3, #31
 8001ed0:	dc00      	bgt.n	8001ed4 <__aeabi_dsub+0x384>
 8001ed2:	e6a7      	b.n	8001c24 <__aeabi_dsub+0xd4>
 8001ed4:	003a      	movs	r2, r7
 8001ed6:	3808      	subs	r0, #8
 8001ed8:	4082      	lsls	r2, r0
 8001eda:	429d      	cmp	r5, r3
 8001edc:	dd00      	ble.n	8001ee0 <__aeabi_dsub+0x390>
 8001ede:	e08a      	b.n	8001ff6 <__aeabi_dsub+0x4a6>
 8001ee0:	1b5b      	subs	r3, r3, r5
 8001ee2:	1c58      	adds	r0, r3, #1
 8001ee4:	281f      	cmp	r0, #31
 8001ee6:	dc00      	bgt.n	8001eea <__aeabi_dsub+0x39a>
 8001ee8:	e1d8      	b.n	800229c <__aeabi_dsub+0x74c>
 8001eea:	0017      	movs	r7, r2
 8001eec:	3b1f      	subs	r3, #31
 8001eee:	40df      	lsrs	r7, r3
 8001ef0:	2820      	cmp	r0, #32
 8001ef2:	d005      	beq.n	8001f00 <__aeabi_dsub+0x3b0>
 8001ef4:	2340      	movs	r3, #64	@ 0x40
 8001ef6:	1a1b      	subs	r3, r3, r0
 8001ef8:	409a      	lsls	r2, r3
 8001efa:	1e53      	subs	r3, r2, #1
 8001efc:	419a      	sbcs	r2, r3
 8001efe:	4317      	orrs	r7, r2
 8001f00:	2500      	movs	r5, #0
 8001f02:	2f00      	cmp	r7, #0
 8001f04:	d100      	bne.n	8001f08 <__aeabi_dsub+0x3b8>
 8001f06:	e0e5      	b.n	80020d4 <__aeabi_dsub+0x584>
 8001f08:	077b      	lsls	r3, r7, #29
 8001f0a:	d000      	beq.n	8001f0e <__aeabi_dsub+0x3be>
 8001f0c:	e6ab      	b.n	8001c66 <__aeabi_dsub+0x116>
 8001f0e:	002c      	movs	r4, r5
 8001f10:	e7c6      	b.n	8001ea0 <__aeabi_dsub+0x350>
 8001f12:	08c0      	lsrs	r0, r0, #3
 8001f14:	e7c6      	b.n	8001ea4 <__aeabi_dsub+0x354>
 8001f16:	2700      	movs	r7, #0
 8001f18:	2400      	movs	r4, #0
 8001f1a:	4dd1      	ldr	r5, [pc, #836]	@ (8002260 <__aeabi_dsub+0x710>)
 8001f1c:	e7ac      	b.n	8001e78 <__aeabi_dsub+0x328>
 8001f1e:	4fd1      	ldr	r7, [pc, #836]	@ (8002264 <__aeabi_dsub+0x714>)
 8001f20:	1c6b      	adds	r3, r5, #1
 8001f22:	423b      	tst	r3, r7
 8001f24:	d171      	bne.n	800200a <__aeabi_dsub+0x4ba>
 8001f26:	0023      	movs	r3, r4
 8001f28:	4303      	orrs	r3, r0
 8001f2a:	2d00      	cmp	r5, #0
 8001f2c:	d000      	beq.n	8001f30 <__aeabi_dsub+0x3e0>
 8001f2e:	e14e      	b.n	80021ce <__aeabi_dsub+0x67e>
 8001f30:	4657      	mov	r7, sl
 8001f32:	2b00      	cmp	r3, #0
 8001f34:	d100      	bne.n	8001f38 <__aeabi_dsub+0x3e8>
 8001f36:	e1b5      	b.n	80022a4 <__aeabi_dsub+0x754>
 8001f38:	2f00      	cmp	r7, #0
 8001f3a:	d00d      	beq.n	8001f58 <__aeabi_dsub+0x408>
 8001f3c:	1883      	adds	r3, r0, r2
 8001f3e:	4283      	cmp	r3, r0
 8001f40:	4180      	sbcs	r0, r0
 8001f42:	445c      	add	r4, fp
 8001f44:	4240      	negs	r0, r0
 8001f46:	1824      	adds	r4, r4, r0
 8001f48:	0222      	lsls	r2, r4, #8
 8001f4a:	d500      	bpl.n	8001f4e <__aeabi_dsub+0x3fe>
 8001f4c:	e1c8      	b.n	80022e0 <__aeabi_dsub+0x790>
 8001f4e:	001f      	movs	r7, r3
 8001f50:	4698      	mov	r8, r3
 8001f52:	4327      	orrs	r7, r4
 8001f54:	d100      	bne.n	8001f58 <__aeabi_dsub+0x408>
 8001f56:	e0bc      	b.n	80020d2 <__aeabi_dsub+0x582>
 8001f58:	4643      	mov	r3, r8
 8001f5a:	0767      	lsls	r7, r4, #29
 8001f5c:	08db      	lsrs	r3, r3, #3
 8001f5e:	431f      	orrs	r7, r3
 8001f60:	08e5      	lsrs	r5, r4, #3
 8001f62:	2300      	movs	r3, #0
 8001f64:	e04c      	b.n	8002000 <__aeabi_dsub+0x4b0>
 8001f66:	1a83      	subs	r3, r0, r2
 8001f68:	4698      	mov	r8, r3
 8001f6a:	465b      	mov	r3, fp
 8001f6c:	4540      	cmp	r0, r8
 8001f6e:	41bf      	sbcs	r7, r7
 8001f70:	1ae3      	subs	r3, r4, r3
 8001f72:	427f      	negs	r7, r7
 8001f74:	1bdb      	subs	r3, r3, r7
 8001f76:	021f      	lsls	r7, r3, #8
 8001f78:	d47c      	bmi.n	8002074 <__aeabi_dsub+0x524>
 8001f7a:	4647      	mov	r7, r8
 8001f7c:	431f      	orrs	r7, r3
 8001f7e:	d100      	bne.n	8001f82 <__aeabi_dsub+0x432>
 8001f80:	e0a6      	b.n	80020d0 <__aeabi_dsub+0x580>
 8001f82:	001c      	movs	r4, r3
 8001f84:	4647      	mov	r7, r8
 8001f86:	e645      	b.n	8001c14 <__aeabi_dsub+0xc4>
 8001f88:	4cb7      	ldr	r4, [pc, #732]	@ (8002268 <__aeabi_dsub+0x718>)
 8001f8a:	1aed      	subs	r5, r5, r3
 8001f8c:	4014      	ands	r4, r2
 8001f8e:	077b      	lsls	r3, r7, #29
 8001f90:	d000      	beq.n	8001f94 <__aeabi_dsub+0x444>
 8001f92:	e780      	b.n	8001e96 <__aeabi_dsub+0x346>
 8001f94:	e784      	b.n	8001ea0 <__aeabi_dsub+0x350>
 8001f96:	464b      	mov	r3, r9
 8001f98:	0025      	movs	r5, r4
 8001f9a:	4305      	orrs	r5, r0
 8001f9c:	d066      	beq.n	800206c <__aeabi_dsub+0x51c>
 8001f9e:	1e5f      	subs	r7, r3, #1
 8001fa0:	2b01      	cmp	r3, #1
 8001fa2:	d100      	bne.n	8001fa6 <__aeabi_dsub+0x456>
 8001fa4:	e0fc      	b.n	80021a0 <__aeabi_dsub+0x650>
 8001fa6:	4dae      	ldr	r5, [pc, #696]	@ (8002260 <__aeabi_dsub+0x710>)
 8001fa8:	42ab      	cmp	r3, r5
 8001faa:	d100      	bne.n	8001fae <__aeabi_dsub+0x45e>
 8001fac:	e15e      	b.n	800226c <__aeabi_dsub+0x71c>
 8001fae:	4666      	mov	r6, ip
 8001fb0:	2f38      	cmp	r7, #56	@ 0x38
 8001fb2:	dc00      	bgt.n	8001fb6 <__aeabi_dsub+0x466>
 8001fb4:	e0b4      	b.n	8002120 <__aeabi_dsub+0x5d0>
 8001fb6:	2001      	movs	r0, #1
 8001fb8:	1a17      	subs	r7, r2, r0
 8001fba:	42ba      	cmp	r2, r7
 8001fbc:	4192      	sbcs	r2, r2
 8001fbe:	465b      	mov	r3, fp
 8001fc0:	4252      	negs	r2, r2
 8001fc2:	464d      	mov	r5, r9
 8001fc4:	1a9c      	subs	r4, r3, r2
 8001fc6:	e620      	b.n	8001c0a <__aeabi_dsub+0xba>
 8001fc8:	0767      	lsls	r7, r4, #29
 8001fca:	08c0      	lsrs	r0, r0, #3
 8001fcc:	4307      	orrs	r7, r0
 8001fce:	08e5      	lsrs	r5, r4, #3
 8001fd0:	e6ba      	b.n	8001d48 <__aeabi_dsub+0x1f8>
 8001fd2:	001f      	movs	r7, r3
 8001fd4:	4659      	mov	r1, fp
 8001fd6:	3f20      	subs	r7, #32
 8001fd8:	40f9      	lsrs	r1, r7
 8001fda:	000f      	movs	r7, r1
 8001fdc:	2b20      	cmp	r3, #32
 8001fde:	d005      	beq.n	8001fec <__aeabi_dsub+0x49c>
 8001fe0:	2140      	movs	r1, #64	@ 0x40
 8001fe2:	1acb      	subs	r3, r1, r3
 8001fe4:	4659      	mov	r1, fp
 8001fe6:	4099      	lsls	r1, r3
 8001fe8:	430a      	orrs	r2, r1
 8001fea:	4692      	mov	sl, r2
 8001fec:	4653      	mov	r3, sl
 8001fee:	1e5a      	subs	r2, r3, #1
 8001ff0:	4193      	sbcs	r3, r2
 8001ff2:	431f      	orrs	r7, r3
 8001ff4:	e604      	b.n	8001c00 <__aeabi_dsub+0xb0>
 8001ff6:	1aeb      	subs	r3, r5, r3
 8001ff8:	4d9b      	ldr	r5, [pc, #620]	@ (8002268 <__aeabi_dsub+0x718>)
 8001ffa:	4015      	ands	r5, r2
 8001ffc:	076f      	lsls	r7, r5, #29
 8001ffe:	08ed      	lsrs	r5, r5, #3
 8002000:	032c      	lsls	r4, r5, #12
 8002002:	055d      	lsls	r5, r3, #21
 8002004:	0b24      	lsrs	r4, r4, #12
 8002006:	0d6d      	lsrs	r5, r5, #21
 8002008:	e736      	b.n	8001e78 <__aeabi_dsub+0x328>
 800200a:	4d95      	ldr	r5, [pc, #596]	@ (8002260 <__aeabi_dsub+0x710>)
 800200c:	42ab      	cmp	r3, r5
 800200e:	d100      	bne.n	8002012 <__aeabi_dsub+0x4c2>
 8002010:	e0d6      	b.n	80021c0 <__aeabi_dsub+0x670>
 8002012:	1882      	adds	r2, r0, r2
 8002014:	0021      	movs	r1, r4
 8002016:	4282      	cmp	r2, r0
 8002018:	4180      	sbcs	r0, r0
 800201a:	4459      	add	r1, fp
 800201c:	4240      	negs	r0, r0
 800201e:	1808      	adds	r0, r1, r0
 8002020:	07c7      	lsls	r7, r0, #31
 8002022:	0852      	lsrs	r2, r2, #1
 8002024:	4317      	orrs	r7, r2
 8002026:	0844      	lsrs	r4, r0, #1
 8002028:	0752      	lsls	r2, r2, #29
 800202a:	d400      	bmi.n	800202e <__aeabi_dsub+0x4de>
 800202c:	e185      	b.n	800233a <__aeabi_dsub+0x7ea>
 800202e:	220f      	movs	r2, #15
 8002030:	001d      	movs	r5, r3
 8002032:	403a      	ands	r2, r7
 8002034:	2a04      	cmp	r2, #4
 8002036:	d000      	beq.n	800203a <__aeabi_dsub+0x4ea>
 8002038:	e61a      	b.n	8001c70 <__aeabi_dsub+0x120>
 800203a:	08ff      	lsrs	r7, r7, #3
 800203c:	0764      	lsls	r4, r4, #29
 800203e:	4327      	orrs	r7, r4
 8002040:	0905      	lsrs	r5, r0, #4
 8002042:	e7dd      	b.n	8002000 <__aeabi_dsub+0x4b0>
 8002044:	465b      	mov	r3, fp
 8002046:	08d2      	lsrs	r2, r2, #3
 8002048:	075f      	lsls	r7, r3, #29
 800204a:	4317      	orrs	r7, r2
 800204c:	08dd      	lsrs	r5, r3, #3
 800204e:	e67b      	b.n	8001d48 <__aeabi_dsub+0x1f8>
 8002050:	2700      	movs	r7, #0
 8002052:	2400      	movs	r4, #0
 8002054:	e710      	b.n	8001e78 <__aeabi_dsub+0x328>
 8002056:	2b00      	cmp	r3, #0
 8002058:	d000      	beq.n	800205c <__aeabi_dsub+0x50c>
 800205a:	e0d6      	b.n	800220a <__aeabi_dsub+0x6ba>
 800205c:	2900      	cmp	r1, #0
 800205e:	d000      	beq.n	8002062 <__aeabi_dsub+0x512>
 8002060:	e12f      	b.n	80022c2 <__aeabi_dsub+0x772>
 8002062:	2480      	movs	r4, #128	@ 0x80
 8002064:	2600      	movs	r6, #0
 8002066:	4d7e      	ldr	r5, [pc, #504]	@ (8002260 <__aeabi_dsub+0x710>)
 8002068:	0324      	lsls	r4, r4, #12
 800206a:	e705      	b.n	8001e78 <__aeabi_dsub+0x328>
 800206c:	4666      	mov	r6, ip
 800206e:	465c      	mov	r4, fp
 8002070:	08d0      	lsrs	r0, r2, #3
 8002072:	e717      	b.n	8001ea4 <__aeabi_dsub+0x354>
 8002074:	465b      	mov	r3, fp
 8002076:	1a17      	subs	r7, r2, r0
 8002078:	42ba      	cmp	r2, r7
 800207a:	4192      	sbcs	r2, r2
 800207c:	1b1c      	subs	r4, r3, r4
 800207e:	2601      	movs	r6, #1
 8002080:	4663      	mov	r3, ip
 8002082:	4252      	negs	r2, r2
 8002084:	1aa4      	subs	r4, r4, r2
 8002086:	401e      	ands	r6, r3
 8002088:	e5c4      	b.n	8001c14 <__aeabi_dsub+0xc4>
 800208a:	1883      	adds	r3, r0, r2
 800208c:	4283      	cmp	r3, r0
 800208e:	4180      	sbcs	r0, r0
 8002090:	445c      	add	r4, fp
 8002092:	4240      	negs	r0, r0
 8002094:	1825      	adds	r5, r4, r0
 8002096:	022a      	lsls	r2, r5, #8
 8002098:	d400      	bmi.n	800209c <__aeabi_dsub+0x54c>
 800209a:	e0da      	b.n	8002252 <__aeabi_dsub+0x702>
 800209c:	4a72      	ldr	r2, [pc, #456]	@ (8002268 <__aeabi_dsub+0x718>)
 800209e:	085b      	lsrs	r3, r3, #1
 80020a0:	4015      	ands	r5, r2
 80020a2:	07ea      	lsls	r2, r5, #31
 80020a4:	431a      	orrs	r2, r3
 80020a6:	0869      	lsrs	r1, r5, #1
 80020a8:	075b      	lsls	r3, r3, #29
 80020aa:	d400      	bmi.n	80020ae <__aeabi_dsub+0x55e>
 80020ac:	e14a      	b.n	8002344 <__aeabi_dsub+0x7f4>
 80020ae:	230f      	movs	r3, #15
 80020b0:	4013      	ands	r3, r2
 80020b2:	2b04      	cmp	r3, #4
 80020b4:	d100      	bne.n	80020b8 <__aeabi_dsub+0x568>
 80020b6:	e0fc      	b.n	80022b2 <__aeabi_dsub+0x762>
 80020b8:	1d17      	adds	r7, r2, #4
 80020ba:	4297      	cmp	r7, r2
 80020bc:	41a4      	sbcs	r4, r4
 80020be:	4264      	negs	r4, r4
 80020c0:	2502      	movs	r5, #2
 80020c2:	1864      	adds	r4, r4, r1
 80020c4:	e6ec      	b.n	8001ea0 <__aeabi_dsub+0x350>
 80020c6:	4647      	mov	r7, r8
 80020c8:	001c      	movs	r4, r3
 80020ca:	431f      	orrs	r7, r3
 80020cc:	d000      	beq.n	80020d0 <__aeabi_dsub+0x580>
 80020ce:	e743      	b.n	8001f58 <__aeabi_dsub+0x408>
 80020d0:	2600      	movs	r6, #0
 80020d2:	2500      	movs	r5, #0
 80020d4:	2400      	movs	r4, #0
 80020d6:	e6cf      	b.n	8001e78 <__aeabi_dsub+0x328>
 80020d8:	08c0      	lsrs	r0, r0, #3
 80020da:	0767      	lsls	r7, r4, #29
 80020dc:	4307      	orrs	r7, r0
 80020de:	08e5      	lsrs	r5, r4, #3
 80020e0:	e632      	b.n	8001d48 <__aeabi_dsub+0x1f8>
 80020e2:	1a87      	subs	r7, r0, r2
 80020e4:	465b      	mov	r3, fp
 80020e6:	42b8      	cmp	r0, r7
 80020e8:	4180      	sbcs	r0, r0
 80020ea:	1ae4      	subs	r4, r4, r3
 80020ec:	4240      	negs	r0, r0
 80020ee:	1a24      	subs	r4, r4, r0
 80020f0:	0223      	lsls	r3, r4, #8
 80020f2:	d428      	bmi.n	8002146 <__aeabi_dsub+0x5f6>
 80020f4:	0763      	lsls	r3, r4, #29
 80020f6:	08ff      	lsrs	r7, r7, #3
 80020f8:	431f      	orrs	r7, r3
 80020fa:	08e5      	lsrs	r5, r4, #3
 80020fc:	2301      	movs	r3, #1
 80020fe:	e77f      	b.n	8002000 <__aeabi_dsub+0x4b0>
 8002100:	2b00      	cmp	r3, #0
 8002102:	d100      	bne.n	8002106 <__aeabi_dsub+0x5b6>
 8002104:	e673      	b.n	8001dee <__aeabi_dsub+0x29e>
 8002106:	464b      	mov	r3, r9
 8002108:	1b5f      	subs	r7, r3, r5
 800210a:	003b      	movs	r3, r7
 800210c:	2d00      	cmp	r5, #0
 800210e:	d100      	bne.n	8002112 <__aeabi_dsub+0x5c2>
 8002110:	e742      	b.n	8001f98 <__aeabi_dsub+0x448>
 8002112:	2f38      	cmp	r7, #56	@ 0x38
 8002114:	dd00      	ble.n	8002118 <__aeabi_dsub+0x5c8>
 8002116:	e0ec      	b.n	80022f2 <__aeabi_dsub+0x7a2>
 8002118:	2380      	movs	r3, #128	@ 0x80
 800211a:	000e      	movs	r6, r1
 800211c:	041b      	lsls	r3, r3, #16
 800211e:	431c      	orrs	r4, r3
 8002120:	2f1f      	cmp	r7, #31
 8002122:	dc25      	bgt.n	8002170 <__aeabi_dsub+0x620>
 8002124:	2520      	movs	r5, #32
 8002126:	0023      	movs	r3, r4
 8002128:	1bed      	subs	r5, r5, r7
 800212a:	0001      	movs	r1, r0
 800212c:	40a8      	lsls	r0, r5
 800212e:	40ab      	lsls	r3, r5
 8002130:	40f9      	lsrs	r1, r7
 8002132:	1e45      	subs	r5, r0, #1
 8002134:	41a8      	sbcs	r0, r5
 8002136:	430b      	orrs	r3, r1
 8002138:	40fc      	lsrs	r4, r7
 800213a:	4318      	orrs	r0, r3
 800213c:	465b      	mov	r3, fp
 800213e:	1b1b      	subs	r3, r3, r4
 8002140:	469b      	mov	fp, r3
 8002142:	e739      	b.n	8001fb8 <__aeabi_dsub+0x468>
 8002144:	4666      	mov	r6, ip
 8002146:	2501      	movs	r5, #1
 8002148:	e562      	b.n	8001c10 <__aeabi_dsub+0xc0>
 800214a:	001f      	movs	r7, r3
 800214c:	4659      	mov	r1, fp
 800214e:	3f20      	subs	r7, #32
 8002150:	40f9      	lsrs	r1, r7
 8002152:	468c      	mov	ip, r1
 8002154:	2b20      	cmp	r3, #32
 8002156:	d005      	beq.n	8002164 <__aeabi_dsub+0x614>
 8002158:	2740      	movs	r7, #64	@ 0x40
 800215a:	4659      	mov	r1, fp
 800215c:	1afb      	subs	r3, r7, r3
 800215e:	4099      	lsls	r1, r3
 8002160:	430a      	orrs	r2, r1
 8002162:	4692      	mov	sl, r2
 8002164:	4657      	mov	r7, sl
 8002166:	1e7b      	subs	r3, r7, #1
 8002168:	419f      	sbcs	r7, r3
 800216a:	4663      	mov	r3, ip
 800216c:	431f      	orrs	r7, r3
 800216e:	e5c1      	b.n	8001cf4 <__aeabi_dsub+0x1a4>
 8002170:	003b      	movs	r3, r7
 8002172:	0025      	movs	r5, r4
 8002174:	3b20      	subs	r3, #32
 8002176:	40dd      	lsrs	r5, r3
 8002178:	2f20      	cmp	r7, #32
 800217a:	d004      	beq.n	8002186 <__aeabi_dsub+0x636>
 800217c:	2340      	movs	r3, #64	@ 0x40
 800217e:	1bdb      	subs	r3, r3, r7
 8002180:	409c      	lsls	r4, r3
 8002182:	4320      	orrs	r0, r4
 8002184:	4680      	mov	r8, r0
 8002186:	4640      	mov	r0, r8
 8002188:	1e43      	subs	r3, r0, #1
 800218a:	4198      	sbcs	r0, r3
 800218c:	4328      	orrs	r0, r5
 800218e:	e713      	b.n	8001fb8 <__aeabi_dsub+0x468>
 8002190:	2900      	cmp	r1, #0
 8002192:	d09d      	beq.n	80020d0 <__aeabi_dsub+0x580>
 8002194:	2601      	movs	r6, #1
 8002196:	4663      	mov	r3, ip
 8002198:	465c      	mov	r4, fp
 800219a:	4690      	mov	r8, r2
 800219c:	401e      	ands	r6, r3
 800219e:	e6db      	b.n	8001f58 <__aeabi_dsub+0x408>
 80021a0:	1a17      	subs	r7, r2, r0
 80021a2:	465b      	mov	r3, fp
 80021a4:	42ba      	cmp	r2, r7
 80021a6:	4192      	sbcs	r2, r2
 80021a8:	1b1c      	subs	r4, r3, r4
 80021aa:	4252      	negs	r2, r2
 80021ac:	1aa4      	subs	r4, r4, r2
 80021ae:	0223      	lsls	r3, r4, #8
 80021b0:	d4c8      	bmi.n	8002144 <__aeabi_dsub+0x5f4>
 80021b2:	0763      	lsls	r3, r4, #29
 80021b4:	08ff      	lsrs	r7, r7, #3
 80021b6:	431f      	orrs	r7, r3
 80021b8:	4666      	mov	r6, ip
 80021ba:	2301      	movs	r3, #1
 80021bc:	08e5      	lsrs	r5, r4, #3
 80021be:	e71f      	b.n	8002000 <__aeabi_dsub+0x4b0>
 80021c0:	001d      	movs	r5, r3
 80021c2:	2400      	movs	r4, #0
 80021c4:	2700      	movs	r7, #0
 80021c6:	e657      	b.n	8001e78 <__aeabi_dsub+0x328>
 80021c8:	465c      	mov	r4, fp
 80021ca:	08d0      	lsrs	r0, r2, #3
 80021cc:	e66a      	b.n	8001ea4 <__aeabi_dsub+0x354>
 80021ce:	2b00      	cmp	r3, #0
 80021d0:	d100      	bne.n	80021d4 <__aeabi_dsub+0x684>
 80021d2:	e737      	b.n	8002044 <__aeabi_dsub+0x4f4>
 80021d4:	4653      	mov	r3, sl
 80021d6:	08c0      	lsrs	r0, r0, #3
 80021d8:	0767      	lsls	r7, r4, #29
 80021da:	4307      	orrs	r7, r0
 80021dc:	08e5      	lsrs	r5, r4, #3
 80021de:	2b00      	cmp	r3, #0
 80021e0:	d100      	bne.n	80021e4 <__aeabi_dsub+0x694>
 80021e2:	e5b1      	b.n	8001d48 <__aeabi_dsub+0x1f8>
 80021e4:	2380      	movs	r3, #128	@ 0x80
 80021e6:	031b      	lsls	r3, r3, #12
 80021e8:	421d      	tst	r5, r3
 80021ea:	d008      	beq.n	80021fe <__aeabi_dsub+0x6ae>
 80021ec:	4659      	mov	r1, fp
 80021ee:	08c8      	lsrs	r0, r1, #3
 80021f0:	4218      	tst	r0, r3
 80021f2:	d104      	bne.n	80021fe <__aeabi_dsub+0x6ae>
 80021f4:	08d2      	lsrs	r2, r2, #3
 80021f6:	0749      	lsls	r1, r1, #29
 80021f8:	430a      	orrs	r2, r1
 80021fa:	0017      	movs	r7, r2
 80021fc:	0005      	movs	r5, r0
 80021fe:	0f7b      	lsrs	r3, r7, #29
 8002200:	00ff      	lsls	r7, r7, #3
 8002202:	08ff      	lsrs	r7, r7, #3
 8002204:	075b      	lsls	r3, r3, #29
 8002206:	431f      	orrs	r7, r3
 8002208:	e59e      	b.n	8001d48 <__aeabi_dsub+0x1f8>
 800220a:	08c0      	lsrs	r0, r0, #3
 800220c:	0763      	lsls	r3, r4, #29
 800220e:	4318      	orrs	r0, r3
 8002210:	08e5      	lsrs	r5, r4, #3
 8002212:	2900      	cmp	r1, #0
 8002214:	d053      	beq.n	80022be <__aeabi_dsub+0x76e>
 8002216:	2380      	movs	r3, #128	@ 0x80
 8002218:	031b      	lsls	r3, r3, #12
 800221a:	421d      	tst	r5, r3
 800221c:	d00a      	beq.n	8002234 <__aeabi_dsub+0x6e4>
 800221e:	4659      	mov	r1, fp
 8002220:	08cc      	lsrs	r4, r1, #3
 8002222:	421c      	tst	r4, r3
 8002224:	d106      	bne.n	8002234 <__aeabi_dsub+0x6e4>
 8002226:	2601      	movs	r6, #1
 8002228:	4663      	mov	r3, ip
 800222a:	0025      	movs	r5, r4
 800222c:	08d0      	lsrs	r0, r2, #3
 800222e:	0749      	lsls	r1, r1, #29
 8002230:	4308      	orrs	r0, r1
 8002232:	401e      	ands	r6, r3
 8002234:	0f47      	lsrs	r7, r0, #29
 8002236:	00c0      	lsls	r0, r0, #3
 8002238:	08c0      	lsrs	r0, r0, #3
 800223a:	077f      	lsls	r7, r7, #29
 800223c:	4307      	orrs	r7, r0
 800223e:	e583      	b.n	8001d48 <__aeabi_dsub+0x1f8>
 8002240:	1883      	adds	r3, r0, r2
 8002242:	4293      	cmp	r3, r2
 8002244:	4192      	sbcs	r2, r2
 8002246:	445c      	add	r4, fp
 8002248:	4252      	negs	r2, r2
 800224a:	18a5      	adds	r5, r4, r2
 800224c:	022a      	lsls	r2, r5, #8
 800224e:	d500      	bpl.n	8002252 <__aeabi_dsub+0x702>
 8002250:	e724      	b.n	800209c <__aeabi_dsub+0x54c>
 8002252:	076f      	lsls	r7, r5, #29
 8002254:	08db      	lsrs	r3, r3, #3
 8002256:	431f      	orrs	r7, r3
 8002258:	08ed      	lsrs	r5, r5, #3
 800225a:	2301      	movs	r3, #1
 800225c:	e6d0      	b.n	8002000 <__aeabi_dsub+0x4b0>
 800225e:	46c0      	nop			@ (mov r8, r8)
 8002260:	000007ff 	.word	0x000007ff
 8002264:	000007fe 	.word	0x000007fe
 8002268:	ff7fffff 	.word	0xff7fffff
 800226c:	465b      	mov	r3, fp
 800226e:	08d2      	lsrs	r2, r2, #3
 8002270:	075f      	lsls	r7, r3, #29
 8002272:	4666      	mov	r6, ip
 8002274:	4317      	orrs	r7, r2
 8002276:	08dd      	lsrs	r5, r3, #3
 8002278:	e566      	b.n	8001d48 <__aeabi_dsub+0x1f8>
 800227a:	0025      	movs	r5, r4
 800227c:	3b20      	subs	r3, #32
 800227e:	40dd      	lsrs	r5, r3
 8002280:	4663      	mov	r3, ip
 8002282:	2b20      	cmp	r3, #32
 8002284:	d005      	beq.n	8002292 <__aeabi_dsub+0x742>
 8002286:	2340      	movs	r3, #64	@ 0x40
 8002288:	4661      	mov	r1, ip
 800228a:	1a5b      	subs	r3, r3, r1
 800228c:	409c      	lsls	r4, r3
 800228e:	4320      	orrs	r0, r4
 8002290:	4680      	mov	r8, r0
 8002292:	4647      	mov	r7, r8
 8002294:	1e7b      	subs	r3, r7, #1
 8002296:	419f      	sbcs	r7, r3
 8002298:	432f      	orrs	r7, r5
 800229a:	e5a0      	b.n	8001dde <__aeabi_dsub+0x28e>
 800229c:	2120      	movs	r1, #32
 800229e:	2700      	movs	r7, #0
 80022a0:	1a09      	subs	r1, r1, r0
 80022a2:	e4d2      	b.n	8001c4a <__aeabi_dsub+0xfa>
 80022a4:	2f00      	cmp	r7, #0
 80022a6:	d100      	bne.n	80022aa <__aeabi_dsub+0x75a>
 80022a8:	e713      	b.n	80020d2 <__aeabi_dsub+0x582>
 80022aa:	465c      	mov	r4, fp
 80022ac:	0017      	movs	r7, r2
 80022ae:	2500      	movs	r5, #0
 80022b0:	e5f6      	b.n	8001ea0 <__aeabi_dsub+0x350>
 80022b2:	08d7      	lsrs	r7, r2, #3
 80022b4:	0749      	lsls	r1, r1, #29
 80022b6:	2302      	movs	r3, #2
 80022b8:	430f      	orrs	r7, r1
 80022ba:	092d      	lsrs	r5, r5, #4
 80022bc:	e6a0      	b.n	8002000 <__aeabi_dsub+0x4b0>
 80022be:	0007      	movs	r7, r0
 80022c0:	e542      	b.n	8001d48 <__aeabi_dsub+0x1f8>
 80022c2:	465b      	mov	r3, fp
 80022c4:	2601      	movs	r6, #1
 80022c6:	075f      	lsls	r7, r3, #29
 80022c8:	08dd      	lsrs	r5, r3, #3
 80022ca:	4663      	mov	r3, ip
 80022cc:	08d2      	lsrs	r2, r2, #3
 80022ce:	4317      	orrs	r7, r2
 80022d0:	401e      	ands	r6, r3
 80022d2:	e539      	b.n	8001d48 <__aeabi_dsub+0x1f8>
 80022d4:	465b      	mov	r3, fp
 80022d6:	08d2      	lsrs	r2, r2, #3
 80022d8:	075f      	lsls	r7, r3, #29
 80022da:	4317      	orrs	r7, r2
 80022dc:	08dd      	lsrs	r5, r3, #3
 80022de:	e533      	b.n	8001d48 <__aeabi_dsub+0x1f8>
 80022e0:	4a1e      	ldr	r2, [pc, #120]	@ (800235c <__aeabi_dsub+0x80c>)
 80022e2:	08db      	lsrs	r3, r3, #3
 80022e4:	4022      	ands	r2, r4
 80022e6:	0757      	lsls	r7, r2, #29
 80022e8:	0252      	lsls	r2, r2, #9
 80022ea:	2501      	movs	r5, #1
 80022ec:	431f      	orrs	r7, r3
 80022ee:	0b14      	lsrs	r4, r2, #12
 80022f0:	e5c2      	b.n	8001e78 <__aeabi_dsub+0x328>
 80022f2:	000e      	movs	r6, r1
 80022f4:	2001      	movs	r0, #1
 80022f6:	e65f      	b.n	8001fb8 <__aeabi_dsub+0x468>
 80022f8:	2b00      	cmp	r3, #0
 80022fa:	d00d      	beq.n	8002318 <__aeabi_dsub+0x7c8>
 80022fc:	464b      	mov	r3, r9
 80022fe:	1b5b      	subs	r3, r3, r5
 8002300:	469c      	mov	ip, r3
 8002302:	2d00      	cmp	r5, #0
 8002304:	d100      	bne.n	8002308 <__aeabi_dsub+0x7b8>
 8002306:	e548      	b.n	8001d9a <__aeabi_dsub+0x24a>
 8002308:	2701      	movs	r7, #1
 800230a:	2b38      	cmp	r3, #56	@ 0x38
 800230c:	dd00      	ble.n	8002310 <__aeabi_dsub+0x7c0>
 800230e:	e566      	b.n	8001dde <__aeabi_dsub+0x28e>
 8002310:	2380      	movs	r3, #128	@ 0x80
 8002312:	041b      	lsls	r3, r3, #16
 8002314:	431c      	orrs	r4, r3
 8002316:	e550      	b.n	8001dba <__aeabi_dsub+0x26a>
 8002318:	1c6b      	adds	r3, r5, #1
 800231a:	4d11      	ldr	r5, [pc, #68]	@ (8002360 <__aeabi_dsub+0x810>)
 800231c:	422b      	tst	r3, r5
 800231e:	d000      	beq.n	8002322 <__aeabi_dsub+0x7d2>
 8002320:	e673      	b.n	800200a <__aeabi_dsub+0x4ba>
 8002322:	4659      	mov	r1, fp
 8002324:	0023      	movs	r3, r4
 8002326:	4311      	orrs	r1, r2
 8002328:	468a      	mov	sl, r1
 800232a:	4303      	orrs	r3, r0
 800232c:	e600      	b.n	8001f30 <__aeabi_dsub+0x3e0>
 800232e:	0767      	lsls	r7, r4, #29
 8002330:	08c0      	lsrs	r0, r0, #3
 8002332:	2300      	movs	r3, #0
 8002334:	4307      	orrs	r7, r0
 8002336:	08e5      	lsrs	r5, r4, #3
 8002338:	e662      	b.n	8002000 <__aeabi_dsub+0x4b0>
 800233a:	0764      	lsls	r4, r4, #29
 800233c:	08ff      	lsrs	r7, r7, #3
 800233e:	4327      	orrs	r7, r4
 8002340:	0905      	lsrs	r5, r0, #4
 8002342:	e65d      	b.n	8002000 <__aeabi_dsub+0x4b0>
 8002344:	08d2      	lsrs	r2, r2, #3
 8002346:	0749      	lsls	r1, r1, #29
 8002348:	4311      	orrs	r1, r2
 800234a:	000f      	movs	r7, r1
 800234c:	2302      	movs	r3, #2
 800234e:	092d      	lsrs	r5, r5, #4
 8002350:	e656      	b.n	8002000 <__aeabi_dsub+0x4b0>
 8002352:	0007      	movs	r7, r0
 8002354:	e5a4      	b.n	8001ea0 <__aeabi_dsub+0x350>
 8002356:	0038      	movs	r0, r7
 8002358:	e48f      	b.n	8001c7a <__aeabi_dsub+0x12a>
 800235a:	46c0      	nop			@ (mov r8, r8)
 800235c:	ff7fffff 	.word	0xff7fffff
 8002360:	000007fe 	.word	0x000007fe

08002364 <__aeabi_d2iz>:
 8002364:	000b      	movs	r3, r1
 8002366:	0002      	movs	r2, r0
 8002368:	b570      	push	{r4, r5, r6, lr}
 800236a:	4d16      	ldr	r5, [pc, #88]	@ (80023c4 <__aeabi_d2iz+0x60>)
 800236c:	030c      	lsls	r4, r1, #12
 800236e:	b082      	sub	sp, #8
 8002370:	0049      	lsls	r1, r1, #1
 8002372:	2000      	movs	r0, #0
 8002374:	9200      	str	r2, [sp, #0]
 8002376:	9301      	str	r3, [sp, #4]
 8002378:	0b24      	lsrs	r4, r4, #12
 800237a:	0d49      	lsrs	r1, r1, #21
 800237c:	0fde      	lsrs	r6, r3, #31
 800237e:	42a9      	cmp	r1, r5
 8002380:	dd04      	ble.n	800238c <__aeabi_d2iz+0x28>
 8002382:	4811      	ldr	r0, [pc, #68]	@ (80023c8 <__aeabi_d2iz+0x64>)
 8002384:	4281      	cmp	r1, r0
 8002386:	dd03      	ble.n	8002390 <__aeabi_d2iz+0x2c>
 8002388:	4b10      	ldr	r3, [pc, #64]	@ (80023cc <__aeabi_d2iz+0x68>)
 800238a:	18f0      	adds	r0, r6, r3
 800238c:	b002      	add	sp, #8
 800238e:	bd70      	pop	{r4, r5, r6, pc}
 8002390:	2080      	movs	r0, #128	@ 0x80
 8002392:	0340      	lsls	r0, r0, #13
 8002394:	4320      	orrs	r0, r4
 8002396:	4c0e      	ldr	r4, [pc, #56]	@ (80023d0 <__aeabi_d2iz+0x6c>)
 8002398:	1a64      	subs	r4, r4, r1
 800239a:	2c1f      	cmp	r4, #31
 800239c:	dd08      	ble.n	80023b0 <__aeabi_d2iz+0x4c>
 800239e:	4b0d      	ldr	r3, [pc, #52]	@ (80023d4 <__aeabi_d2iz+0x70>)
 80023a0:	1a5b      	subs	r3, r3, r1
 80023a2:	40d8      	lsrs	r0, r3
 80023a4:	0003      	movs	r3, r0
 80023a6:	4258      	negs	r0, r3
 80023a8:	2e00      	cmp	r6, #0
 80023aa:	d1ef      	bne.n	800238c <__aeabi_d2iz+0x28>
 80023ac:	0018      	movs	r0, r3
 80023ae:	e7ed      	b.n	800238c <__aeabi_d2iz+0x28>
 80023b0:	4b09      	ldr	r3, [pc, #36]	@ (80023d8 <__aeabi_d2iz+0x74>)
 80023b2:	9a00      	ldr	r2, [sp, #0]
 80023b4:	469c      	mov	ip, r3
 80023b6:	0003      	movs	r3, r0
 80023b8:	4461      	add	r1, ip
 80023ba:	408b      	lsls	r3, r1
 80023bc:	40e2      	lsrs	r2, r4
 80023be:	4313      	orrs	r3, r2
 80023c0:	e7f1      	b.n	80023a6 <__aeabi_d2iz+0x42>
 80023c2:	46c0      	nop			@ (mov r8, r8)
 80023c4:	000003fe 	.word	0x000003fe
 80023c8:	0000041d 	.word	0x0000041d
 80023cc:	7fffffff 	.word	0x7fffffff
 80023d0:	00000433 	.word	0x00000433
 80023d4:	00000413 	.word	0x00000413
 80023d8:	fffffbed 	.word	0xfffffbed

080023dc <__aeabi_i2d>:
 80023dc:	b570      	push	{r4, r5, r6, lr}
 80023de:	2800      	cmp	r0, #0
 80023e0:	d016      	beq.n	8002410 <__aeabi_i2d+0x34>
 80023e2:	17c3      	asrs	r3, r0, #31
 80023e4:	18c5      	adds	r5, r0, r3
 80023e6:	405d      	eors	r5, r3
 80023e8:	0fc4      	lsrs	r4, r0, #31
 80023ea:	0028      	movs	r0, r5
 80023ec:	f000 f848 	bl	8002480 <__clzsi2>
 80023f0:	4b10      	ldr	r3, [pc, #64]	@ (8002434 <__aeabi_i2d+0x58>)
 80023f2:	1a1b      	subs	r3, r3, r0
 80023f4:	055b      	lsls	r3, r3, #21
 80023f6:	0d5b      	lsrs	r3, r3, #21
 80023f8:	280a      	cmp	r0, #10
 80023fa:	dc14      	bgt.n	8002426 <__aeabi_i2d+0x4a>
 80023fc:	0002      	movs	r2, r0
 80023fe:	002e      	movs	r6, r5
 8002400:	3215      	adds	r2, #21
 8002402:	4096      	lsls	r6, r2
 8002404:	220b      	movs	r2, #11
 8002406:	1a12      	subs	r2, r2, r0
 8002408:	40d5      	lsrs	r5, r2
 800240a:	032d      	lsls	r5, r5, #12
 800240c:	0b2d      	lsrs	r5, r5, #12
 800240e:	e003      	b.n	8002418 <__aeabi_i2d+0x3c>
 8002410:	2400      	movs	r4, #0
 8002412:	2300      	movs	r3, #0
 8002414:	2500      	movs	r5, #0
 8002416:	2600      	movs	r6, #0
 8002418:	051b      	lsls	r3, r3, #20
 800241a:	432b      	orrs	r3, r5
 800241c:	07e4      	lsls	r4, r4, #31
 800241e:	4323      	orrs	r3, r4
 8002420:	0030      	movs	r0, r6
 8002422:	0019      	movs	r1, r3
 8002424:	bd70      	pop	{r4, r5, r6, pc}
 8002426:	380b      	subs	r0, #11
 8002428:	4085      	lsls	r5, r0
 800242a:	032d      	lsls	r5, r5, #12
 800242c:	2600      	movs	r6, #0
 800242e:	0b2d      	lsrs	r5, r5, #12
 8002430:	e7f2      	b.n	8002418 <__aeabi_i2d+0x3c>
 8002432:	46c0      	nop			@ (mov r8, r8)
 8002434:	0000041e 	.word	0x0000041e

08002438 <__aeabi_ui2d>:
 8002438:	b510      	push	{r4, lr}
 800243a:	1e04      	subs	r4, r0, #0
 800243c:	d010      	beq.n	8002460 <__aeabi_ui2d+0x28>
 800243e:	f000 f81f 	bl	8002480 <__clzsi2>
 8002442:	4b0e      	ldr	r3, [pc, #56]	@ (800247c <__aeabi_ui2d+0x44>)
 8002444:	1a1b      	subs	r3, r3, r0
 8002446:	055b      	lsls	r3, r3, #21
 8002448:	0d5b      	lsrs	r3, r3, #21
 800244a:	280a      	cmp	r0, #10
 800244c:	dc0f      	bgt.n	800246e <__aeabi_ui2d+0x36>
 800244e:	220b      	movs	r2, #11
 8002450:	0021      	movs	r1, r4
 8002452:	1a12      	subs	r2, r2, r0
 8002454:	40d1      	lsrs	r1, r2
 8002456:	3015      	adds	r0, #21
 8002458:	030a      	lsls	r2, r1, #12
 800245a:	4084      	lsls	r4, r0
 800245c:	0b12      	lsrs	r2, r2, #12
 800245e:	e001      	b.n	8002464 <__aeabi_ui2d+0x2c>
 8002460:	2300      	movs	r3, #0
 8002462:	2200      	movs	r2, #0
 8002464:	051b      	lsls	r3, r3, #20
 8002466:	4313      	orrs	r3, r2
 8002468:	0020      	movs	r0, r4
 800246a:	0019      	movs	r1, r3
 800246c:	bd10      	pop	{r4, pc}
 800246e:	0022      	movs	r2, r4
 8002470:	380b      	subs	r0, #11
 8002472:	4082      	lsls	r2, r0
 8002474:	0312      	lsls	r2, r2, #12
 8002476:	2400      	movs	r4, #0
 8002478:	0b12      	lsrs	r2, r2, #12
 800247a:	e7f3      	b.n	8002464 <__aeabi_ui2d+0x2c>
 800247c:	0000041e 	.word	0x0000041e

08002480 <__clzsi2>:
 8002480:	211c      	movs	r1, #28
 8002482:	2301      	movs	r3, #1
 8002484:	041b      	lsls	r3, r3, #16
 8002486:	4298      	cmp	r0, r3
 8002488:	d301      	bcc.n	800248e <__clzsi2+0xe>
 800248a:	0c00      	lsrs	r0, r0, #16
 800248c:	3910      	subs	r1, #16
 800248e:	0a1b      	lsrs	r3, r3, #8
 8002490:	4298      	cmp	r0, r3
 8002492:	d301      	bcc.n	8002498 <__clzsi2+0x18>
 8002494:	0a00      	lsrs	r0, r0, #8
 8002496:	3908      	subs	r1, #8
 8002498:	091b      	lsrs	r3, r3, #4
 800249a:	4298      	cmp	r0, r3
 800249c:	d301      	bcc.n	80024a2 <__clzsi2+0x22>
 800249e:	0900      	lsrs	r0, r0, #4
 80024a0:	3904      	subs	r1, #4
 80024a2:	a202      	add	r2, pc, #8	@ (adr r2, 80024ac <__clzsi2+0x2c>)
 80024a4:	5c10      	ldrb	r0, [r2, r0]
 80024a6:	1840      	adds	r0, r0, r1
 80024a8:	4770      	bx	lr
 80024aa:	46c0      	nop			@ (mov r8, r8)
 80024ac:	02020304 	.word	0x02020304
 80024b0:	01010101 	.word	0x01010101
	...

080024bc <nmea_to_decimal>:
#include <string.h>
#include <stdlib.h>

/* Helper: convert ddmm.mmmm (NMEA) + N/S or E/W to decimal degrees */
static double nmea_to_decimal(const char *field, char hemi)
{
 80024bc:	b5f0      	push	{r4, r5, r6, r7, lr}
 80024be:	b091      	sub	sp, #68	@ 0x44
 80024c0:	af00      	add	r7, sp, #0
 80024c2:	6078      	str	r0, [r7, #4]
 80024c4:	000a      	movs	r2, r1
 80024c6:	1cfb      	adds	r3, r7, #3
 80024c8:	701a      	strb	r2, [r3, #0]
    if (field == NULL || *field == '\0') {
 80024ca:	687b      	ldr	r3, [r7, #4]
 80024cc:	2b00      	cmp	r3, #0
 80024ce:	d003      	beq.n	80024d8 <nmea_to_decimal+0x1c>
 80024d0:	687b      	ldr	r3, [r7, #4]
 80024d2:	781b      	ldrb	r3, [r3, #0]
 80024d4:	2b00      	cmp	r3, #0
 80024d6:	d102      	bne.n	80024de <nmea_to_decimal+0x22>
        return 0.0;
 80024d8:	2200      	movs	r2, #0
 80024da:	2300      	movs	r3, #0
 80024dc:	e073      	b.n	80025c6 <nmea_to_decimal+0x10a>
    }

    /* Find decimal point to split degrees and minutes */
    const char *dot = strchr(field, '.');
 80024de:	687b      	ldr	r3, [r7, #4]
 80024e0:	212e      	movs	r1, #46	@ 0x2e
 80024e2:	0018      	movs	r0, r3
 80024e4:	f003 ffd0 	bl	8006488 <strchr>
 80024e8:	0003      	movs	r3, r0
 80024ea:	637b      	str	r3, [r7, #52]	@ 0x34
    if (dot == NULL || dot - field < 2) {
 80024ec:	6b7b      	ldr	r3, [r7, #52]	@ 0x34
 80024ee:	2b00      	cmp	r3, #0
 80024f0:	d004      	beq.n	80024fc <nmea_to_decimal+0x40>
 80024f2:	6b7a      	ldr	r2, [r7, #52]	@ 0x34
 80024f4:	687b      	ldr	r3, [r7, #4]
 80024f6:	1ad3      	subs	r3, r2, r3
 80024f8:	2b01      	cmp	r3, #1
 80024fa:	dc02      	bgt.n	8002502 <nmea_to_decimal+0x46>
        return 0.0;
 80024fc:	2200      	movs	r2, #0
 80024fe:	2300      	movs	r3, #0
 8002500:	e061      	b.n	80025c6 <nmea_to_decimal+0x10a>
    }

    int deg_digits = (int)(dot - field) - 2;
 8002502:	6b7a      	ldr	r2, [r7, #52]	@ 0x34
 8002504:	687b      	ldr	r3, [r7, #4]
 8002506:	1ad3      	subs	r3, r2, r3
 8002508:	3b02      	subs	r3, #2
 800250a:	633b      	str	r3, [r7, #48]	@ 0x30
    if (deg_digits <= 0) {
 800250c:	6b3b      	ldr	r3, [r7, #48]	@ 0x30
 800250e:	2b00      	cmp	r3, #0
 8002510:	dc02      	bgt.n	8002518 <nmea_to_decimal+0x5c>
        return 0.0;
 8002512:	2200      	movs	r2, #0
 8002514:	2300      	movs	r3, #0
 8002516:	e056      	b.n	80025c6 <nmea_to_decimal+0x10a>
    }

    char deg_str[4] = {0};
 8002518:	261c      	movs	r6, #28
 800251a:	19bb      	adds	r3, r7, r6
 800251c:	2200      	movs	r2, #0
 800251e:	601a      	str	r2, [r3, #0]
    char min_str[16] = {0};
 8002520:	230c      	movs	r3, #12
 8002522:	18fb      	adds	r3, r7, r3
 8002524:	0018      	movs	r0, r3
 8002526:	2310      	movs	r3, #16
 8002528:	001a      	movs	r2, r3
 800252a:	2100      	movs	r1, #0
 800252c:	f003 ffa4 	bl	8006478 <memset>

    memcpy(deg_str, field, (size_t)deg_digits);
 8002530:	6b3a      	ldr	r2, [r7, #48]	@ 0x30
 8002532:	6879      	ldr	r1, [r7, #4]
 8002534:	19bb      	adds	r3, r7, r6
 8002536:	0018      	movs	r0, r3
 8002538:	f004 f85f 	bl	80065fa <memcpy>
    strcpy(min_str, field + deg_digits);
 800253c:	6b3b      	ldr	r3, [r7, #48]	@ 0x30
 800253e:	687a      	ldr	r2, [r7, #4]
 8002540:	18d2      	adds	r2, r2, r3
 8002542:	230c      	movs	r3, #12
 8002544:	18fb      	adds	r3, r7, r3
 8002546:	0011      	movs	r1, r2
 8002548:	0018      	movs	r0, r3
 800254a:	f004 f84e 	bl	80065ea <strcpy>

    double deg = atof(deg_str);
 800254e:	19bb      	adds	r3, r7, r6
 8002550:	0018      	movs	r0, r3
 8002552:	f002 ff48 	bl	80053e6 <atof>
 8002556:	0002      	movs	r2, r0
 8002558:	000b      	movs	r3, r1
 800255a:	62ba      	str	r2, [r7, #40]	@ 0x28
 800255c:	62fb      	str	r3, [r7, #44]	@ 0x2c
    double minutes = atof(min_str);
 800255e:	230c      	movs	r3, #12
 8002560:	18fb      	adds	r3, r7, r3
 8002562:	0018      	movs	r0, r3
 8002564:	f002 ff3f 	bl	80053e6 <atof>
 8002568:	0002      	movs	r2, r0
 800256a:	000b      	movs	r3, r1
 800256c:	623a      	str	r2, [r7, #32]
 800256e:	627b      	str	r3, [r7, #36]	@ 0x24

    double dec = deg + minutes / 60.0;
 8002570:	2200      	movs	r2, #0
 8002572:	4b17      	ldr	r3, [pc, #92]	@ (80025d0 <nmea_to_decimal+0x114>)
 8002574:	6a38      	ldr	r0, [r7, #32]
 8002576:	6a79      	ldr	r1, [r7, #36]	@ 0x24
 8002578:	f7fe fbca 	bl	8000d10 <__aeabi_ddiv>
 800257c:	0002      	movs	r2, r0
 800257e:	000b      	movs	r3, r1
 8002580:	6ab8      	ldr	r0, [r7, #40]	@ 0x28
 8002582:	6af9      	ldr	r1, [r7, #44]	@ 0x2c
 8002584:	f7fd fffe 	bl	8000584 <__aeabi_dadd>
 8002588:	0002      	movs	r2, r0
 800258a:	000b      	movs	r3, r1
 800258c:	63ba      	str	r2, [r7, #56]	@ 0x38
 800258e:	63fb      	str	r3, [r7, #60]	@ 0x3c

    if (hemi == 'S' || hemi == 's' || hemi == 'W' || hemi == 'w') {
 8002590:	1cfb      	adds	r3, r7, #3
 8002592:	781b      	ldrb	r3, [r3, #0]
 8002594:	2b53      	cmp	r3, #83	@ 0x53
 8002596:	d00b      	beq.n	80025b0 <nmea_to_decimal+0xf4>
 8002598:	1cfb      	adds	r3, r7, #3
 800259a:	781b      	ldrb	r3, [r3, #0]
 800259c:	2b73      	cmp	r3, #115	@ 0x73
 800259e:	d007      	beq.n	80025b0 <nmea_to_decimal+0xf4>
 80025a0:	1cfb      	adds	r3, r7, #3
 80025a2:	781b      	ldrb	r3, [r3, #0]
 80025a4:	2b57      	cmp	r3, #87	@ 0x57
 80025a6:	d003      	beq.n	80025b0 <nmea_to_decimal+0xf4>
 80025a8:	1cfb      	adds	r3, r7, #3
 80025aa:	781b      	ldrb	r3, [r3, #0]
 80025ac:	2b77      	cmp	r3, #119	@ 0x77
 80025ae:	d108      	bne.n	80025c2 <nmea_to_decimal+0x106>
        dec = -dec;
 80025b0:	6bbb      	ldr	r3, [r7, #56]	@ 0x38
 80025b2:	001c      	movs	r4, r3
 80025b4:	6bfb      	ldr	r3, [r7, #60]	@ 0x3c
 80025b6:	2280      	movs	r2, #128	@ 0x80
 80025b8:	0612      	lsls	r2, r2, #24
 80025ba:	405a      	eors	r2, r3
 80025bc:	0015      	movs	r5, r2
 80025be:	63bc      	str	r4, [r7, #56]	@ 0x38
 80025c0:	63fd      	str	r5, [r7, #60]	@ 0x3c
    }

    return dec;
 80025c2:	6bba      	ldr	r2, [r7, #56]	@ 0x38
 80025c4:	6bfb      	ldr	r3, [r7, #60]	@ 0x3c
}
 80025c6:	0010      	movs	r0, r2
 80025c8:	0019      	movs	r1, r3
 80025ca:	46bd      	mov	sp, r7
 80025cc:	b011      	add	sp, #68	@ 0x44
 80025ce:	bdf0      	pop	{r4, r5, r6, r7, pc}
 80025d0:	404e0000 	.word	0x404e0000

080025d4 <split_fields>:

/* Split line into commaseparated fields in-place */
static int split_fields(char *line, char *fields[], int max_fields)
{
 80025d4:	b580      	push	{r7, lr}
 80025d6:	b086      	sub	sp, #24
 80025d8:	af00      	add	r7, sp, #0
 80025da:	60f8      	str	r0, [r7, #12]
 80025dc:	60b9      	str	r1, [r7, #8]
 80025de:	607a      	str	r2, [r7, #4]
    int count = 0;
 80025e0:	2300      	movs	r3, #0
 80025e2:	617b      	str	r3, [r7, #20]
    char *p = line;
 80025e4:	68fb      	ldr	r3, [r7, #12]
 80025e6:	613b      	str	r3, [r7, #16]

    if (*p == '$') {
 80025e8:	693b      	ldr	r3, [r7, #16]
 80025ea:	781b      	ldrb	r3, [r3, #0]
 80025ec:	2b24      	cmp	r3, #36	@ 0x24
 80025ee:	d102      	bne.n	80025f6 <split_fields+0x22>
        p++; /* skip leading $ */
 80025f0:	693b      	ldr	r3, [r7, #16]
 80025f2:	3301      	adds	r3, #1
 80025f4:	613b      	str	r3, [r7, #16]
    }

    fields[count++] = p;
 80025f6:	697b      	ldr	r3, [r7, #20]
 80025f8:	1c5a      	adds	r2, r3, #1
 80025fa:	617a      	str	r2, [r7, #20]
 80025fc:	009b      	lsls	r3, r3, #2
 80025fe:	68ba      	ldr	r2, [r7, #8]
 8002600:	18d3      	adds	r3, r2, r3
 8002602:	693a      	ldr	r2, [r7, #16]
 8002604:	601a      	str	r2, [r3, #0]

    while (*p != '\0' && count < max_fields) {
 8002606:	e01b      	b.n	8002640 <split_fields+0x6c>
        if (*p == ',') {
 8002608:	693b      	ldr	r3, [r7, #16]
 800260a:	781b      	ldrb	r3, [r3, #0]
 800260c:	2b2c      	cmp	r3, #44	@ 0x2c
 800260e:	d10c      	bne.n	800262a <split_fields+0x56>
            *p = '\0';
 8002610:	693b      	ldr	r3, [r7, #16]
 8002612:	2200      	movs	r2, #0
 8002614:	701a      	strb	r2, [r3, #0]
            fields[count++] = p + 1;
 8002616:	697b      	ldr	r3, [r7, #20]
 8002618:	1c5a      	adds	r2, r3, #1
 800261a:	617a      	str	r2, [r7, #20]
 800261c:	009b      	lsls	r3, r3, #2
 800261e:	68ba      	ldr	r2, [r7, #8]
 8002620:	18d3      	adds	r3, r2, r3
 8002622:	693a      	ldr	r2, [r7, #16]
 8002624:	3201      	adds	r2, #1
 8002626:	601a      	str	r2, [r3, #0]
 8002628:	e007      	b.n	800263a <split_fields+0x66>
        } else if (*p == '*') {
 800262a:	693b      	ldr	r3, [r7, #16]
 800262c:	781b      	ldrb	r3, [r3, #0]
 800262e:	2b2a      	cmp	r3, #42	@ 0x2a
 8002630:	d103      	bne.n	800263a <split_fields+0x66>
            *p = '\0';
 8002632:	693b      	ldr	r3, [r7, #16]
 8002634:	2200      	movs	r2, #0
 8002636:	701a      	strb	r2, [r3, #0]
            break;
 8002638:	e00a      	b.n	8002650 <split_fields+0x7c>
        }
        p++;
 800263a:	693b      	ldr	r3, [r7, #16]
 800263c:	3301      	adds	r3, #1
 800263e:	613b      	str	r3, [r7, #16]
    while (*p != '\0' && count < max_fields) {
 8002640:	693b      	ldr	r3, [r7, #16]
 8002642:	781b      	ldrb	r3, [r3, #0]
 8002644:	2b00      	cmp	r3, #0
 8002646:	d003      	beq.n	8002650 <split_fields+0x7c>
 8002648:	697a      	ldr	r2, [r7, #20]
 800264a:	687b      	ldr	r3, [r7, #4]
 800264c:	429a      	cmp	r2, r3
 800264e:	dbdb      	blt.n	8002608 <split_fields+0x34>
    }

    return count;
 8002650:	697b      	ldr	r3, [r7, #20]
}
 8002652:	0018      	movs	r0, r3
 8002654:	46bd      	mov	sp, r7
 8002656:	b006      	add	sp, #24
 8002658:	bd80      	pop	{r7, pc}
	...

0800265c <gps_parse_nmea>:

int gps_parse_nmea(const char *line_in, gps_fix_t *out)
{
 800265c:	b5b0      	push	{r4, r5, r7, lr}
 800265e:	b0be      	sub	sp, #248	@ 0xf8
 8002660:	af00      	add	r7, sp, #0
 8002662:	6078      	str	r0, [r7, #4]
 8002664:	6039      	str	r1, [r7, #0]
    if (line_in == NULL || out == NULL) {
 8002666:	687b      	ldr	r3, [r7, #4]
 8002668:	2b00      	cmp	r3, #0
 800266a:	d002      	beq.n	8002672 <gps_parse_nmea+0x16>
 800266c:	683b      	ldr	r3, [r7, #0]
 800266e:	2b00      	cmp	r3, #0
 8002670:	d101      	bne.n	8002676 <gps_parse_nmea+0x1a>
        return 0;
 8002672:	2300      	movs	r3, #0
 8002674:	e0b8      	b.n	80027e8 <gps_parse_nmea+0x18c>
    }

    /* Make a local modifiable copy */
    char buf[128];
    size_t len = strlen(line_in);
 8002676:	687b      	ldr	r3, [r7, #4]
 8002678:	0018      	movs	r0, r3
 800267a:	f7fd fd45 	bl	8000108 <strlen>
 800267e:	0003      	movs	r3, r0
 8002680:	22f4      	movs	r2, #244	@ 0xf4
 8002682:	18b9      	adds	r1, r7, r2
 8002684:	600b      	str	r3, [r1, #0]
    if (len >= sizeof(buf)) {
 8002686:	18bb      	adds	r3, r7, r2
 8002688:	681b      	ldr	r3, [r3, #0]
 800268a:	2b7f      	cmp	r3, #127	@ 0x7f
 800268c:	d901      	bls.n	8002692 <gps_parse_nmea+0x36>
        return 0;
 800268e:	2300      	movs	r3, #0
 8002690:	e0aa      	b.n	80027e8 <gps_parse_nmea+0x18c>
    }
    strcpy(buf, line_in);
 8002692:	687a      	ldr	r2, [r7, #4]
 8002694:	2448      	movs	r4, #72	@ 0x48
 8002696:	193b      	adds	r3, r7, r4
 8002698:	0011      	movs	r1, r2
 800269a:	0018      	movs	r0, r3
 800269c:	f003 ffa5 	bl	80065ea <strcpy>

    /* Quick check for GPRMC */
    if (strstr(buf, "GPRMC,") != buf + 1) {
 80026a0:	4a53      	ldr	r2, [pc, #332]	@ (80027f0 <gps_parse_nmea+0x194>)
 80026a2:	193b      	adds	r3, r7, r4
 80026a4:	0011      	movs	r1, r2
 80026a6:	0018      	movs	r0, r3
 80026a8:	f003 ff0d 	bl	80064c6 <strstr>
 80026ac:	0002      	movs	r2, r0
 80026ae:	193b      	adds	r3, r7, r4
 80026b0:	3301      	adds	r3, #1
 80026b2:	429a      	cmp	r2, r3
 80026b4:	d001      	beq.n	80026ba <gps_parse_nmea+0x5e>
        /* Not a $GPRMC sentence */
        return 0;
 80026b6:	2300      	movs	r3, #0
 80026b8:	e096      	b.n	80027e8 <gps_parse_nmea+0x18c>
    }

    /* Split into fields */
    char *fields[16] = {0};
 80026ba:	2408      	movs	r4, #8
 80026bc:	193b      	adds	r3, r7, r4
 80026be:	0018      	movs	r0, r3
 80026c0:	2340      	movs	r3, #64	@ 0x40
 80026c2:	001a      	movs	r2, r3
 80026c4:	2100      	movs	r1, #0
 80026c6:	f003 fed7 	bl	8006478 <memset>
    int n = split_fields(buf, fields, 16);
 80026ca:	1939      	adds	r1, r7, r4
 80026cc:	2348      	movs	r3, #72	@ 0x48
 80026ce:	18fb      	adds	r3, r7, r3
 80026d0:	2210      	movs	r2, #16
 80026d2:	0018      	movs	r0, r3
 80026d4:	f7ff ff7e 	bl	80025d4 <split_fields>
 80026d8:	0003      	movs	r3, r0
 80026da:	22f0      	movs	r2, #240	@ 0xf0
 80026dc:	18b9      	adds	r1, r7, r2
 80026de:	600b      	str	r3, [r1, #0]
    if (n < 10) {
 80026e0:	18bb      	adds	r3, r7, r2
 80026e2:	681b      	ldr	r3, [r3, #0]
 80026e4:	2b09      	cmp	r3, #9
 80026e6:	dc01      	bgt.n	80026ec <gps_parse_nmea+0x90>
        return 0;
 80026e8:	2300      	movs	r3, #0
 80026ea:	e07d      	b.n	80027e8 <gps_parse_nmea+0x18c>
       5: longitude
       6: E/W
       ... (we only need 2,3,4,5,6 for now)
    */

    const char status = (fields[2] && fields[2][0]) ? fields[2][0] : 'V';
 80026ec:	2208      	movs	r2, #8
 80026ee:	18bb      	adds	r3, r7, r2
 80026f0:	689b      	ldr	r3, [r3, #8]
 80026f2:	2b00      	cmp	r3, #0
 80026f4:	d008      	beq.n	8002708 <gps_parse_nmea+0xac>
 80026f6:	18bb      	adds	r3, r7, r2
 80026f8:	689b      	ldr	r3, [r3, #8]
 80026fa:	781b      	ldrb	r3, [r3, #0]
 80026fc:	2b00      	cmp	r3, #0
 80026fe:	d003      	beq.n	8002708 <gps_parse_nmea+0xac>
 8002700:	18bb      	adds	r3, r7, r2
 8002702:	689b      	ldr	r3, [r3, #8]
 8002704:	781a      	ldrb	r2, [r3, #0]
 8002706:	e000      	b.n	800270a <gps_parse_nmea+0xae>
 8002708:	2256      	movs	r2, #86	@ 0x56
 800270a:	21ef      	movs	r1, #239	@ 0xef
 800270c:	187b      	adds	r3, r7, r1
 800270e:	701a      	strb	r2, [r3, #0]
    if (status != 'A') {
 8002710:	187b      	adds	r3, r7, r1
 8002712:	781b      	ldrb	r3, [r3, #0]
 8002714:	2b41      	cmp	r3, #65	@ 0x41
 8002716:	d004      	beq.n	8002722 <gps_parse_nmea+0xc6>
        out->valid_fix = 0;
 8002718:	683b      	ldr	r3, [r7, #0]
 800271a:	2200      	movs	r2, #0
 800271c:	601a      	str	r2, [r3, #0]
        return 1; /* Parsed but no valid fix */
 800271e:	2301      	movs	r3, #1
 8002720:	e062      	b.n	80027e8 <gps_parse_nmea+0x18c>
    }

    const char *lat_str = fields[3];
 8002722:	2208      	movs	r2, #8
 8002724:	18bb      	adds	r3, r7, r2
 8002726:	68db      	ldr	r3, [r3, #12]
 8002728:	21e8      	movs	r1, #232	@ 0xe8
 800272a:	1878      	adds	r0, r7, r1
 800272c:	6003      	str	r3, [r0, #0]
    const char *lat_hemi_str = fields[4];
 800272e:	18bb      	adds	r3, r7, r2
 8002730:	691b      	ldr	r3, [r3, #16]
 8002732:	20e4      	movs	r0, #228	@ 0xe4
 8002734:	183c      	adds	r4, r7, r0
 8002736:	6023      	str	r3, [r4, #0]
    const char *lon_str = fields[5];
 8002738:	18bb      	adds	r3, r7, r2
 800273a:	695b      	ldr	r3, [r3, #20]
 800273c:	24e0      	movs	r4, #224	@ 0xe0
 800273e:	193d      	adds	r5, r7, r4
 8002740:	602b      	str	r3, [r5, #0]
    const char *lon_hemi_str = fields[6];
 8002742:	18bb      	adds	r3, r7, r2
 8002744:	699b      	ldr	r3, [r3, #24]
 8002746:	22dc      	movs	r2, #220	@ 0xdc
 8002748:	18bd      	adds	r5, r7, r2
 800274a:	602b      	str	r3, [r5, #0]

    if (!lat_str || !lat_hemi_str || !lon_str || !lon_hemi_str) {
 800274c:	187b      	adds	r3, r7, r1
 800274e:	681b      	ldr	r3, [r3, #0]
 8002750:	2b00      	cmp	r3, #0
 8002752:	d00b      	beq.n	800276c <gps_parse_nmea+0x110>
 8002754:	183b      	adds	r3, r7, r0
 8002756:	681b      	ldr	r3, [r3, #0]
 8002758:	2b00      	cmp	r3, #0
 800275a:	d007      	beq.n	800276c <gps_parse_nmea+0x110>
 800275c:	193b      	adds	r3, r7, r4
 800275e:	681b      	ldr	r3, [r3, #0]
 8002760:	2b00      	cmp	r3, #0
 8002762:	d003      	beq.n	800276c <gps_parse_nmea+0x110>
 8002764:	18bb      	adds	r3, r7, r2
 8002766:	681b      	ldr	r3, [r3, #0]
 8002768:	2b00      	cmp	r3, #0
 800276a:	d101      	bne.n	8002770 <gps_parse_nmea+0x114>
        return 0;
 800276c:	2300      	movs	r3, #0
 800276e:	e03b      	b.n	80027e8 <gps_parse_nmea+0x18c>
    }

    char lat_hemi = lat_hemi_str[0];
 8002770:	21db      	movs	r1, #219	@ 0xdb
 8002772:	187b      	adds	r3, r7, r1
 8002774:	22e4      	movs	r2, #228	@ 0xe4
 8002776:	18ba      	adds	r2, r7, r2
 8002778:	6812      	ldr	r2, [r2, #0]
 800277a:	7812      	ldrb	r2, [r2, #0]
 800277c:	701a      	strb	r2, [r3, #0]
    char lon_hemi = lon_hemi_str[0];
 800277e:	24da      	movs	r4, #218	@ 0xda
 8002780:	193b      	adds	r3, r7, r4
 8002782:	22dc      	movs	r2, #220	@ 0xdc
 8002784:	18ba      	adds	r2, r7, r2
 8002786:	6812      	ldr	r2, [r2, #0]
 8002788:	7812      	ldrb	r2, [r2, #0]
 800278a:	701a      	strb	r2, [r3, #0]

    double lat = nmea_to_decimal(lat_str, lat_hemi);
 800278c:	187b      	adds	r3, r7, r1
 800278e:	781a      	ldrb	r2, [r3, #0]
 8002790:	23e8      	movs	r3, #232	@ 0xe8
 8002792:	18fb      	adds	r3, r7, r3
 8002794:	681b      	ldr	r3, [r3, #0]
 8002796:	0011      	movs	r1, r2
 8002798:	0018      	movs	r0, r3
 800279a:	f7ff fe8f 	bl	80024bc <nmea_to_decimal>
 800279e:	0002      	movs	r2, r0
 80027a0:	000b      	movs	r3, r1
 80027a2:	25d0      	movs	r5, #208	@ 0xd0
 80027a4:	1979      	adds	r1, r7, r5
 80027a6:	600a      	str	r2, [r1, #0]
 80027a8:	604b      	str	r3, [r1, #4]
    double lon = nmea_to_decimal(lon_str, lon_hemi);
 80027aa:	193b      	adds	r3, r7, r4
 80027ac:	781a      	ldrb	r2, [r3, #0]
 80027ae:	23e0      	movs	r3, #224	@ 0xe0
 80027b0:	18fb      	adds	r3, r7, r3
 80027b2:	681b      	ldr	r3, [r3, #0]
 80027b4:	0011      	movs	r1, r2
 80027b6:	0018      	movs	r0, r3
 80027b8:	f7ff fe80 	bl	80024bc <nmea_to_decimal>
 80027bc:	0002      	movs	r2, r0
 80027be:	000b      	movs	r3, r1
 80027c0:	20c8      	movs	r0, #200	@ 0xc8
 80027c2:	1839      	adds	r1, r7, r0
 80027c4:	600a      	str	r2, [r1, #0]
 80027c6:	604b      	str	r3, [r1, #4]

    out->valid_fix = 1;
 80027c8:	683b      	ldr	r3, [r7, #0]
 80027ca:	2201      	movs	r2, #1
 80027cc:	601a      	str	r2, [r3, #0]
    out->latitude  = lat;
 80027ce:	6839      	ldr	r1, [r7, #0]
 80027d0:	197b      	adds	r3, r7, r5
 80027d2:	681a      	ldr	r2, [r3, #0]
 80027d4:	685b      	ldr	r3, [r3, #4]
 80027d6:	608a      	str	r2, [r1, #8]
 80027d8:	60cb      	str	r3, [r1, #12]
    out->longitude = lon;
 80027da:	6839      	ldr	r1, [r7, #0]
 80027dc:	183b      	adds	r3, r7, r0
 80027de:	681a      	ldr	r2, [r3, #0]
 80027e0:	685b      	ldr	r3, [r3, #4]
 80027e2:	610a      	str	r2, [r1, #16]
 80027e4:	614b      	str	r3, [r1, #20]

    return 1;
 80027e6:	2301      	movs	r3, #1
}
 80027e8:	0018      	movs	r0, r3
 80027ea:	46bd      	mov	sp, r7
 80027ec:	b03e      	add	sp, #248	@ 0xf8
 80027ee:	bdb0      	pop	{r4, r5, r7, pc}
 80027f0:	080082e0 	.word	0x080082e0

080027f4 <gps_uart_rx_byte>:

static uint8_t rx_byte; /* singlebyte buffer for HAL UART IT */

/* Push a byte into ring buffer */
void gps_uart_rx_byte(uint8_t byte)
{
 80027f4:	b580      	push	{r7, lr}
 80027f6:	b084      	sub	sp, #16
 80027f8:	af00      	add	r7, sp, #0
 80027fa:	0002      	movs	r2, r0
 80027fc:	1dfb      	adds	r3, r7, #7
 80027fe:	701a      	strb	r2, [r3, #0]
    uint16_t next = (uint16_t)((rx_head + 1U) % GPS_RX_BUFFER_SIZE);
 8002800:	4b10      	ldr	r3, [pc, #64]	@ (8002844 <gps_uart_rx_byte+0x50>)
 8002802:	881b      	ldrh	r3, [r3, #0]
 8002804:	b29b      	uxth	r3, r3
 8002806:	3301      	adds	r3, #1
 8002808:	b29a      	uxth	r2, r3
 800280a:	200e      	movs	r0, #14
 800280c:	183b      	adds	r3, r7, r0
 800280e:	21ff      	movs	r1, #255	@ 0xff
 8002810:	400a      	ands	r2, r1
 8002812:	801a      	strh	r2, [r3, #0]
    if (next != rx_tail) {
 8002814:	4b0c      	ldr	r3, [pc, #48]	@ (8002848 <gps_uart_rx_byte+0x54>)
 8002816:	881b      	ldrh	r3, [r3, #0]
 8002818:	b29b      	uxth	r3, r3
 800281a:	183a      	adds	r2, r7, r0
 800281c:	8812      	ldrh	r2, [r2, #0]
 800281e:	429a      	cmp	r2, r3
 8002820:	d00b      	beq.n	800283a <gps_uart_rx_byte+0x46>
        rx_buf[rx_head] = byte;
 8002822:	4b08      	ldr	r3, [pc, #32]	@ (8002844 <gps_uart_rx_byte+0x50>)
 8002824:	881b      	ldrh	r3, [r3, #0]
 8002826:	b29b      	uxth	r3, r3
 8002828:	0019      	movs	r1, r3
 800282a:	4b08      	ldr	r3, [pc, #32]	@ (800284c <gps_uart_rx_byte+0x58>)
 800282c:	1dfa      	adds	r2, r7, #7
 800282e:	7812      	ldrb	r2, [r2, #0]
 8002830:	545a      	strb	r2, [r3, r1]
        rx_head = next;
 8002832:	4b04      	ldr	r3, [pc, #16]	@ (8002844 <gps_uart_rx_byte+0x50>)
 8002834:	183a      	adds	r2, r7, r0
 8002836:	8812      	ldrh	r2, [r2, #0]
 8002838:	801a      	strh	r2, [r3, #0]
    }
    /* else: buffer overflow, byte is dropped */
}
 800283a:	46c0      	nop			@ (mov r8, r8)
 800283c:	46bd      	mov	sp, r7
 800283e:	b004      	add	sp, #16
 8002840:	bd80      	pop	{r7, pc}
 8002842:	46c0      	nop			@ (mov r8, r8)
 8002844:	20000304 	.word	0x20000304
 8002848:	20000306 	.word	0x20000306
 800284c:	20000204 	.word	0x20000204

08002850 <gps_uart_init>:

/* Initialize UART2 reception in interrupt mode */
void gps_uart_init(void)
{
 8002850:	b580      	push	{r7, lr}
 8002852:	af00      	add	r7, sp, #0
    /* Start first interruptdriven receive */
    HAL_UART_Receive_IT(&huart2, &rx_byte, 1);
 8002854:	4904      	ldr	r1, [pc, #16]	@ (8002868 <gps_uart_init+0x18>)
 8002856:	4b05      	ldr	r3, [pc, #20]	@ (800286c <gps_uart_init+0x1c>)
 8002858:	2201      	movs	r2, #1
 800285a:	0018      	movs	r0, r3
 800285c:	f001 fc3f 	bl	80040de <HAL_UART_Receive_IT>
}
 8002860:	46c0      	nop			@ (mov r8, r8)
 8002862:	46bd      	mov	sp, r7
 8002864:	bd80      	pop	{r7, pc}
 8002866:	46c0      	nop			@ (mov r8, r8)
 8002868:	20000308 	.word	0x20000308
 800286c:	20000390 	.word	0x20000390

08002870 <gps_uart_on_rx_complete>:

/* Called from HAL UART RX complete callback (see main.c) */
void gps_uart_on_rx_complete(void)
{
 8002870:	b580      	push	{r7, lr}
 8002872:	af00      	add	r7, sp, #0
    gps_uart_rx_byte(rx_byte);
 8002874:	4b06      	ldr	r3, [pc, #24]	@ (8002890 <gps_uart_on_rx_complete+0x20>)
 8002876:	781b      	ldrb	r3, [r3, #0]
 8002878:	0018      	movs	r0, r3
 800287a:	f7ff ffbb 	bl	80027f4 <gps_uart_rx_byte>
    /* Restart reception for next byte */
    HAL_UART_Receive_IT(&huart2, &rx_byte, 1);
 800287e:	4904      	ldr	r1, [pc, #16]	@ (8002890 <gps_uart_on_rx_complete+0x20>)
 8002880:	4b04      	ldr	r3, [pc, #16]	@ (8002894 <gps_uart_on_rx_complete+0x24>)
 8002882:	2201      	movs	r2, #1
 8002884:	0018      	movs	r0, r3
 8002886:	f001 fc2a 	bl	80040de <HAL_UART_Receive_IT>
}
 800288a:	46c0      	nop			@ (mov r8, r8)
 800288c:	46bd      	mov	sp, r7
 800288e:	bd80      	pop	{r7, pc}
 8002890:	20000308 	.word	0x20000308
 8002894:	20000390 	.word	0x20000390

08002898 <rb_get_char>:

/* Get one byte from ring buffer, return -1 if empty */
static int rb_get_char(void)
{
 8002898:	b580      	push	{r7, lr}
 800289a:	b082      	sub	sp, #8
 800289c:	af00      	add	r7, sp, #0
    if (rx_head == rx_tail) {
 800289e:	4b11      	ldr	r3, [pc, #68]	@ (80028e4 <rb_get_char+0x4c>)
 80028a0:	881b      	ldrh	r3, [r3, #0]
 80028a2:	b29a      	uxth	r2, r3
 80028a4:	4b10      	ldr	r3, [pc, #64]	@ (80028e8 <rb_get_char+0x50>)
 80028a6:	881b      	ldrh	r3, [r3, #0]
 80028a8:	b29b      	uxth	r3, r3
 80028aa:	429a      	cmp	r2, r3
 80028ac:	d102      	bne.n	80028b4 <rb_get_char+0x1c>
        return -1; /* empty */
 80028ae:	2301      	movs	r3, #1
 80028b0:	425b      	negs	r3, r3
 80028b2:	e013      	b.n	80028dc <rb_get_char+0x44>
    }
    uint8_t c = rx_buf[rx_tail];
 80028b4:	4b0c      	ldr	r3, [pc, #48]	@ (80028e8 <rb_get_char+0x50>)
 80028b6:	881b      	ldrh	r3, [r3, #0]
 80028b8:	b29b      	uxth	r3, r3
 80028ba:	0019      	movs	r1, r3
 80028bc:	1dfb      	adds	r3, r7, #7
 80028be:	4a0b      	ldr	r2, [pc, #44]	@ (80028ec <rb_get_char+0x54>)
 80028c0:	5c52      	ldrb	r2, [r2, r1]
 80028c2:	701a      	strb	r2, [r3, #0]
    rx_tail = (uint16_t)((rx_tail + 1U) % GPS_RX_BUFFER_SIZE);
 80028c4:	4b08      	ldr	r3, [pc, #32]	@ (80028e8 <rb_get_char+0x50>)
 80028c6:	881b      	ldrh	r3, [r3, #0]
 80028c8:	b29b      	uxth	r3, r3
 80028ca:	3301      	adds	r3, #1
 80028cc:	b29b      	uxth	r3, r3
 80028ce:	22ff      	movs	r2, #255	@ 0xff
 80028d0:	4013      	ands	r3, r2
 80028d2:	b29a      	uxth	r2, r3
 80028d4:	4b04      	ldr	r3, [pc, #16]	@ (80028e8 <rb_get_char+0x50>)
 80028d6:	801a      	strh	r2, [r3, #0]
    return (int)c;
 80028d8:	1dfb      	adds	r3, r7, #7
 80028da:	781b      	ldrb	r3, [r3, #0]
}
 80028dc:	0018      	movs	r0, r3
 80028de:	46bd      	mov	sp, r7
 80028e0:	b002      	add	sp, #8
 80028e2:	bd80      	pop	{r7, pc}
 80028e4:	20000304 	.word	0x20000304
 80028e8:	20000306 	.word	0x20000306
 80028ec:	20000204 	.word	0x20000204

080028f0 <gps_uart_get_line>:

/* Assemble a full NMEA line ending with \n. Returns 1 if a line is copied. */
int gps_uart_get_line(char *out, int max_len)
{
 80028f0:	b580      	push	{r7, lr}
 80028f2:	b084      	sub	sp, #16
 80028f4:	af00      	add	r7, sp, #0
 80028f6:	6078      	str	r0, [r7, #4]
 80028f8:	6039      	str	r1, [r7, #0]
    static char line[GPS_LINE_BUFFER_SIZE];
    static int  idx = 0;

    if (out == NULL || max_len <= 0) {
 80028fa:	687b      	ldr	r3, [r7, #4]
 80028fc:	2b00      	cmp	r3, #0
 80028fe:	d002      	beq.n	8002906 <gps_uart_get_line+0x16>
 8002900:	683b      	ldr	r3, [r7, #0]
 8002902:	2b00      	cmp	r3, #0
 8002904:	dc01      	bgt.n	800290a <gps_uart_get_line+0x1a>
        return 0;
 8002906:	2300      	movs	r3, #0
 8002908:	e04c      	b.n	80029a4 <gps_uart_get_line+0xb4>
    }

    while (1) {
        int ch = rb_get_char();
 800290a:	f7ff ffc5 	bl	8002898 <rb_get_char>
 800290e:	0003      	movs	r3, r0
 8002910:	60fb      	str	r3, [r7, #12]
        if (ch < 0) {
 8002912:	68fb      	ldr	r3, [r7, #12]
 8002914:	2b00      	cmp	r3, #0
 8002916:	da01      	bge.n	800291c <gps_uart_get_line+0x2c>
            /* no more data */
            return 0;
 8002918:	2300      	movs	r3, #0
 800291a:	e043      	b.n	80029a4 <gps_uart_get_line+0xb4>
        }

        char c = (char)ch;
 800291c:	210b      	movs	r1, #11
 800291e:	187b      	adds	r3, r7, r1
 8002920:	68fa      	ldr	r2, [r7, #12]
 8002922:	701a      	strb	r2, [r3, #0]
        if (c == '\r') {
 8002924:	000a      	movs	r2, r1
 8002926:	18bb      	adds	r3, r7, r2
 8002928:	781b      	ldrb	r3, [r3, #0]
 800292a:	2b0d      	cmp	r3, #13
 800292c:	d038      	beq.n	80029a0 <gps_uart_get_line+0xb0>
            /* skip */
            continue;
        }

        if (c == '\n') {
 800292e:	18bb      	adds	r3, r7, r2
 8002930:	781b      	ldrb	r3, [r3, #0]
 8002932:	2b0a      	cmp	r3, #10
 8002934:	d121      	bne.n	800297a <gps_uart_get_line+0x8a>
            /* end of line */
            line[idx] = '\0';
 8002936:	4b1d      	ldr	r3, [pc, #116]	@ (80029ac <gps_uart_get_line+0xbc>)
 8002938:	681b      	ldr	r3, [r3, #0]
 800293a:	4a1d      	ldr	r2, [pc, #116]	@ (80029b0 <gps_uart_get_line+0xc0>)
 800293c:	2100      	movs	r1, #0
 800293e:	54d1      	strb	r1, [r2, r3]
            if (idx > 0) {
 8002940:	4b1a      	ldr	r3, [pc, #104]	@ (80029ac <gps_uart_get_line+0xbc>)
 8002942:	681b      	ldr	r3, [r3, #0]
 8002944:	2b00      	cmp	r3, #0
 8002946:	dd14      	ble.n	8002972 <gps_uart_get_line+0x82>
                /* copy to user buffer */
                if (idx >= max_len) {
 8002948:	4b18      	ldr	r3, [pc, #96]	@ (80029ac <gps_uart_get_line+0xbc>)
 800294a:	681b      	ldr	r3, [r3, #0]
 800294c:	683a      	ldr	r2, [r7, #0]
 800294e:	429a      	cmp	r2, r3
 8002950:	dc04      	bgt.n	800295c <gps_uart_get_line+0x6c>
                    idx = 0;
 8002952:	4b16      	ldr	r3, [pc, #88]	@ (80029ac <gps_uart_get_line+0xbc>)
 8002954:	2200      	movs	r2, #0
 8002956:	601a      	str	r2, [r3, #0]
                    return 0; /* line too long; drop */
 8002958:	2300      	movs	r3, #0
 800295a:	e023      	b.n	80029a4 <gps_uart_get_line+0xb4>
                }
                strcpy(out, line);
 800295c:	4a14      	ldr	r2, [pc, #80]	@ (80029b0 <gps_uart_get_line+0xc0>)
 800295e:	687b      	ldr	r3, [r7, #4]
 8002960:	0011      	movs	r1, r2
 8002962:	0018      	movs	r0, r3
 8002964:	f003 fe41 	bl	80065ea <strcpy>
                idx = 0;
 8002968:	4b10      	ldr	r3, [pc, #64]	@ (80029ac <gps_uart_get_line+0xbc>)
 800296a:	2200      	movs	r2, #0
 800296c:	601a      	str	r2, [r3, #0]
                return 1;
 800296e:	2301      	movs	r3, #1
 8002970:	e018      	b.n	80029a4 <gps_uart_get_line+0xb4>
            } else {
                /* empty line; ignore */
                idx = 0;
 8002972:	4b0e      	ldr	r3, [pc, #56]	@ (80029ac <gps_uart_get_line+0xbc>)
 8002974:	2200      	movs	r2, #0
 8002976:	601a      	str	r2, [r3, #0]
                continue;
 8002978:	e013      	b.n	80029a2 <gps_uart_get_line+0xb2>
            }
        }

        if (idx < (GPS_LINE_BUFFER_SIZE - 1)) {
 800297a:	4b0c      	ldr	r3, [pc, #48]	@ (80029ac <gps_uart_get_line+0xbc>)
 800297c:	681b      	ldr	r3, [r3, #0]
 800297e:	2b7e      	cmp	r3, #126	@ 0x7e
 8002980:	dc0a      	bgt.n	8002998 <gps_uart_get_line+0xa8>
            line[idx++] = c;
 8002982:	4b0a      	ldr	r3, [pc, #40]	@ (80029ac <gps_uart_get_line+0xbc>)
 8002984:	681b      	ldr	r3, [r3, #0]
 8002986:	1c59      	adds	r1, r3, #1
 8002988:	4a08      	ldr	r2, [pc, #32]	@ (80029ac <gps_uart_get_line+0xbc>)
 800298a:	6011      	str	r1, [r2, #0]
 800298c:	4a08      	ldr	r2, [pc, #32]	@ (80029b0 <gps_uart_get_line+0xc0>)
 800298e:	210b      	movs	r1, #11
 8002990:	1879      	adds	r1, r7, r1
 8002992:	7809      	ldrb	r1, [r1, #0]
 8002994:	54d1      	strb	r1, [r2, r3]
 8002996:	e7b8      	b.n	800290a <gps_uart_get_line+0x1a>
        } else {
            /* overflow in line buffer; reset */
            idx = 0;
 8002998:	4b04      	ldr	r3, [pc, #16]	@ (80029ac <gps_uart_get_line+0xbc>)
 800299a:	2200      	movs	r2, #0
 800299c:	601a      	str	r2, [r3, #0]
 800299e:	e7b4      	b.n	800290a <gps_uart_get_line+0x1a>
            continue;
 80029a0:	46c0      	nop			@ (mov r8, r8)
    while (1) {
 80029a2:	e7b2      	b.n	800290a <gps_uart_get_line+0x1a>
        }
    }
}
 80029a4:	0018      	movs	r0, r3
 80029a6:	46bd      	mov	sp, r7
 80029a8:	b004      	add	sp, #16
 80029aa:	bd80      	pop	{r7, pc}
 80029ac:	2000030c 	.word	0x2000030c
 80029b0:	20000310 	.word	0x20000310

080029b4 <main>:
/**
  * @brief  The application entry point.
  * @retval int
  */
int main(void)
{
 80029b4:	b590      	push	{r4, r7, lr}
 80029b6:	b0a9      	sub	sp, #164	@ 0xa4
 80029b8:	af02      	add	r7, sp, #8
  /* USER CODE BEGIN 1 */
  /* USER CODE END 1 */

  /* MCU Configuration */
  HAL_Init();
 80029ba:	f000 fb01 	bl	8002fc0 <HAL_Init>

  /* USER CODE BEGIN Init */
  /* USER CODE END Init */

  SystemClock_Config();
 80029be:	f000 f88b 	bl	8002ad8 <SystemClock_Config>

  /* USER CODE BEGIN SysInit */
  /* USER CODE END SysInit */

  /* Initialize all configured peripherals */
  MX_GPIO_Init();
 80029c2:	f000 f901 	bl	8002bc8 <MX_GPIO_Init>
  MX_USART2_UART_Init();
 80029c6:	f000 f8cf 	bl	8002b68 <MX_USART2_UART_Init>
  gps_uart_init();
 80029ca:	f7ff ff41 	bl	8002850 <gps_uart_init>

  /* USER CODE BEGIN 2 */

  /* Welcome message */
  printf("\r\n");
 80029ce:	4b39      	ldr	r3, [pc, #228]	@ (8002ab4 <main+0x100>)
 80029d0:	0018      	movs	r0, r3
 80029d2:	f003 fc5b 	bl	800628c <puts>
  printf("=============================================\r\n");
 80029d6:	4b38      	ldr	r3, [pc, #224]	@ (8002ab8 <main+0x104>)
 80029d8:	0018      	movs	r0, r3
 80029da:	f003 fc57 	bl	800628c <puts>
  printf("  STM32F030C8 GPS Tracker - Phase 3 Demo\r\n");
 80029de:	4b37      	ldr	r3, [pc, #220]	@ (8002abc <main+0x108>)
 80029e0:	0018      	movs	r0, r3
 80029e2:	f003 fc53 	bl	800628c <puts>
  printf("  Hardware-Free Testing Mode\r\n");
 80029e6:	4b36      	ldr	r3, [pc, #216]	@ (8002ac0 <main+0x10c>)
 80029e8:	0018      	movs	r0, r3
 80029ea:	f003 fc4f 	bl	800628c <puts>
  printf("=============================================\r\n");
 80029ee:	4b32      	ldr	r3, [pc, #200]	@ (8002ab8 <main+0x104>)
 80029f0:	0018      	movs	r0, r3
 80029f2:	f003 fc4b 	bl	800628c <puts>
  printf("\r\n");
 80029f6:	4b2f      	ldr	r3, [pc, #188]	@ (8002ab4 <main+0x100>)
 80029f8:	0018      	movs	r0, r3
 80029fa:	f003 fc47 	bl	800628c <puts>

  /* Run demo parser */
  demo_gps_parser();
 80029fe:	f000 f973 	bl	8002ce8 <demo_gps_parser>

  printf("Press button or wait for real GPS data...\r\n");
 8002a02:	4b30      	ldr	r3, [pc, #192]	@ (8002ac4 <main+0x110>)
 8002a04:	0018      	movs	r0, r3
 8002a06:	f003 fc41 	bl	800628c <puts>

    /* In demo mode: just wait or blink LED */
    /* If real hardware: this would poll UART for GPS data */

    static uint32_t last_blink = 0;
    if (HAL_GetTick() - last_blink >= 500) {
 8002a0a:	f000 fb33 	bl	8003074 <HAL_GetTick>
 8002a0e:	0002      	movs	r2, r0
 8002a10:	4b2d      	ldr	r3, [pc, #180]	@ (8002ac8 <main+0x114>)
 8002a12:	681b      	ldr	r3, [r3, #0]
 8002a14:	1ad2      	subs	r2, r2, r3
 8002a16:	23fa      	movs	r3, #250	@ 0xfa
 8002a18:	005b      	lsls	r3, r3, #1
 8002a1a:	429a      	cmp	r2, r3
 8002a1c:	d30a      	bcc.n	8002a34 <main+0x80>
        last_blink = HAL_GetTick();
 8002a1e:	f000 fb29 	bl	8003074 <HAL_GetTick>
 8002a22:	0002      	movs	r2, r0
 8002a24:	4b28      	ldr	r3, [pc, #160]	@ (8002ac8 <main+0x114>)
 8002a26:	601a      	str	r2, [r3, #0]
        HAL_GPIO_TogglePin(LED1_GPIO_Port, LED1_Pin);  /* Blink LED */
 8002a28:	2390      	movs	r3, #144	@ 0x90
 8002a2a:	05db      	lsls	r3, r3, #23
 8002a2c:	2110      	movs	r1, #16
 8002a2e:	0018      	movs	r0, r3
 8002a30:	f000 fde9 	bl	8003606 <HAL_GPIO_TogglePin>
    }

    /* If UART data arrives, process it */
    char nmea_line[GPS_LINE_BUFFER_SIZE];
    if (gps_uart_get_line(nmea_line, sizeof(nmea_line))) {
 8002a34:	003b      	movs	r3, r7
 8002a36:	2180      	movs	r1, #128	@ 0x80
 8002a38:	0018      	movs	r0, r3
 8002a3a:	f7ff ff59 	bl	80028f0 <gps_uart_get_line>
 8002a3e:	1e03      	subs	r3, r0, #0
 8002a40:	d0e3      	beq.n	8002a0a <main+0x56>
        gps_fix_t fix;
        if (gps_parse_nmea(nmea_line, &fix)) {
 8002a42:	2480      	movs	r4, #128	@ 0x80
 8002a44:	193a      	adds	r2, r7, r4
 8002a46:	003b      	movs	r3, r7
 8002a48:	0011      	movs	r1, r2
 8002a4a:	0018      	movs	r0, r3
 8002a4c:	f7ff fe06 	bl	800265c <gps_parse_nmea>
 8002a50:	1e03      	subs	r3, r0, #0
 8002a52:	d0da      	beq.n	8002a0a <main+0x56>
            if (fix.valid_fix) {
 8002a54:	0021      	movs	r1, r4
 8002a56:	187b      	adds	r3, r7, r1
 8002a58:	681b      	ldr	r3, [r3, #0]
 8002a5a:	2b00      	cmp	r3, #0
 8002a5c:	d01d      	beq.n	8002a9a <main+0xe6>
                g_gps_fix = fix;
 8002a5e:	4a1b      	ldr	r2, [pc, #108]	@ (8002acc <main+0x118>)
 8002a60:	187b      	adds	r3, r7, r1
 8002a62:	0010      	movs	r0, r2
 8002a64:	0019      	movs	r1, r3
 8002a66:	2318      	movs	r3, #24
 8002a68:	001a      	movs	r2, r3
 8002a6a:	f003 fdc6 	bl	80065fa <memcpy>
                printf("[LIVE GPS] Lat: %.6f  Lon: %.6f\r\n",
 8002a6e:	4b17      	ldr	r3, [pc, #92]	@ (8002acc <main+0x118>)
 8002a70:	6898      	ldr	r0, [r3, #8]
 8002a72:	68d9      	ldr	r1, [r3, #12]
 8002a74:	4b15      	ldr	r3, [pc, #84]	@ (8002acc <main+0x118>)
 8002a76:	691a      	ldr	r2, [r3, #16]
 8002a78:	695b      	ldr	r3, [r3, #20]
 8002a7a:	4c15      	ldr	r4, [pc, #84]	@ (8002ad0 <main+0x11c>)
 8002a7c:	9200      	str	r2, [sp, #0]
 8002a7e:	9301      	str	r3, [sp, #4]
 8002a80:	0002      	movs	r2, r0
 8002a82:	000b      	movs	r3, r1
 8002a84:	0020      	movs	r0, r4
 8002a86:	f003 fb9b 	bl	80061c0 <iprintf>
                       g_gps_fix.latitude, g_gps_fix.longitude);
                HAL_GPIO_WritePin(LED1_GPIO_Port, LED1_Pin, GPIO_PIN_SET);
 8002a8a:	2390      	movs	r3, #144	@ 0x90
 8002a8c:	05db      	lsls	r3, r3, #23
 8002a8e:	2201      	movs	r2, #1
 8002a90:	2110      	movs	r1, #16
 8002a92:	0018      	movs	r0, r3
 8002a94:	f000 fd9a 	bl	80035cc <HAL_GPIO_WritePin>
 8002a98:	e7b7      	b.n	8002a0a <main+0x56>
            } else {
                printf("[NO FIX]\r\n");
 8002a9a:	4b0e      	ldr	r3, [pc, #56]	@ (8002ad4 <main+0x120>)
 8002a9c:	0018      	movs	r0, r3
 8002a9e:	f003 fbf5 	bl	800628c <puts>
                HAL_GPIO_WritePin(LED1_GPIO_Port, LED1_Pin, GPIO_PIN_RESET);
 8002aa2:	2390      	movs	r3, #144	@ 0x90
 8002aa4:	05db      	lsls	r3, r3, #23
 8002aa6:	2200      	movs	r2, #0
 8002aa8:	2110      	movs	r1, #16
 8002aaa:	0018      	movs	r0, r3
 8002aac:	f000 fd8e 	bl	80035cc <HAL_GPIO_WritePin>
  {
 8002ab0:	e7ab      	b.n	8002a0a <main+0x56>
 8002ab2:	46c0      	nop			@ (mov r8, r8)
 8002ab4:	08008404 	.word	0x08008404
 8002ab8:	08008408 	.word	0x08008408
 8002abc:	08008438 	.word	0x08008438
 8002ac0:	08008464 	.word	0x08008464
 8002ac4:	08008484 	.word	0x08008484
 8002ac8:	200004b8 	.word	0x200004b8
 8002acc:	200004a0 	.word	0x200004a0
 8002ad0:	080084b0 	.word	0x080084b0
 8002ad4:	080084d4 	.word	0x080084d4

08002ad8 <SystemClock_Config>:
/**
  * @brief System Clock Configuration
  * @retval None
  */
void SystemClock_Config(void)
{
 8002ad8:	b590      	push	{r4, r7, lr}
 8002ada:	b091      	sub	sp, #68	@ 0x44
 8002adc:	af00      	add	r7, sp, #0
  RCC_OscInitTypeDef RCC_OscInitStruct = {0};
 8002ade:	2410      	movs	r4, #16
 8002ae0:	193b      	adds	r3, r7, r4
 8002ae2:	0018      	movs	r0, r3
 8002ae4:	2330      	movs	r3, #48	@ 0x30
 8002ae6:	001a      	movs	r2, r3
 8002ae8:	2100      	movs	r1, #0
 8002aea:	f003 fcc5 	bl	8006478 <memset>
  RCC_ClkInitTypeDef RCC_ClkInitStruct = {0};
 8002aee:	003b      	movs	r3, r7
 8002af0:	0018      	movs	r0, r3
 8002af2:	2310      	movs	r3, #16
 8002af4:	001a      	movs	r2, r3
 8002af6:	2100      	movs	r1, #0
 8002af8:	f003 fcbe 	bl	8006478 <memset>

  /** Initializes the RCC Oscillators according to the specified parameters
  * in the RCC_OscInitTypeDef structure.
  */
  RCC_OscInitStruct.OscillatorType = RCC_OSCILLATORTYPE_HSE;
 8002afc:	0021      	movs	r1, r4
 8002afe:	187b      	adds	r3, r7, r1
 8002b00:	2201      	movs	r2, #1
 8002b02:	601a      	str	r2, [r3, #0]
  RCC_OscInitStruct.HSEState = RCC_HSE_ON;
 8002b04:	187b      	adds	r3, r7, r1
 8002b06:	2201      	movs	r2, #1
 8002b08:	605a      	str	r2, [r3, #4]
  RCC_OscInitStruct.PLL.PLLState = RCC_PLL_ON;
 8002b0a:	187b      	adds	r3, r7, r1
 8002b0c:	2202      	movs	r2, #2
 8002b0e:	621a      	str	r2, [r3, #32]
  RCC_OscInitStruct.PLL.PLLSource = RCC_PLLSOURCE_HSE;
 8002b10:	187b      	adds	r3, r7, r1
 8002b12:	2280      	movs	r2, #128	@ 0x80
 8002b14:	0252      	lsls	r2, r2, #9
 8002b16:	625a      	str	r2, [r3, #36]	@ 0x24
  RCC_OscInitStruct.PLL.PLLMUL = RCC_PLL_MUL6;
 8002b18:	187b      	adds	r3, r7, r1
 8002b1a:	2280      	movs	r2, #128	@ 0x80
 8002b1c:	0352      	lsls	r2, r2, #13
 8002b1e:	629a      	str	r2, [r3, #40]	@ 0x28
  RCC_OscInitStruct.PLL.PREDIV = RCC_PREDIV_DIV1;
 8002b20:	187b      	adds	r3, r7, r1
 8002b22:	2200      	movs	r2, #0
 8002b24:	62da      	str	r2, [r3, #44]	@ 0x2c
  if (HAL_RCC_OscConfig(&RCC_OscInitStruct) != HAL_OK)
 8002b26:	187b      	adds	r3, r7, r1
 8002b28:	0018      	movs	r0, r3
 8002b2a:	f000 fd87 	bl	800363c <HAL_RCC_OscConfig>
 8002b2e:	1e03      	subs	r3, r0, #0
 8002b30:	d001      	beq.n	8002b36 <SystemClock_Config+0x5e>
  {
    Error_Handler();
 8002b32:	f000 f955 	bl	8002de0 <Error_Handler>
  }

  /** Initializes the CPU, AHB and APB buses clocks
  */
  RCC_ClkInitStruct.ClockType = RCC_CLOCKTYPE_HCLK|RCC_CLOCKTYPE_SYSCLK
 8002b36:	003b      	movs	r3, r7
 8002b38:	2207      	movs	r2, #7
 8002b3a:	601a      	str	r2, [r3, #0]
                              |RCC_CLOCKTYPE_PCLK1;
  RCC_ClkInitStruct.SYSCLKSource = RCC_SYSCLKSOURCE_PLLCLK;
 8002b3c:	003b      	movs	r3, r7
 8002b3e:	2202      	movs	r2, #2
 8002b40:	605a      	str	r2, [r3, #4]
  RCC_ClkInitStruct.AHBCLKDivider = RCC_SYSCLK_DIV1;
 8002b42:	003b      	movs	r3, r7
 8002b44:	2200      	movs	r2, #0
 8002b46:	609a      	str	r2, [r3, #8]
  RCC_ClkInitStruct.APB1CLKDivider = RCC_HCLK_DIV1;
 8002b48:	003b      	movs	r3, r7
 8002b4a:	2200      	movs	r2, #0
 8002b4c:	60da      	str	r2, [r3, #12]

  if (HAL_RCC_ClockConfig(&RCC_ClkInitStruct, FLASH_LATENCY_1) != HAL_OK)
 8002b4e:	003b      	movs	r3, r7
 8002b50:	2101      	movs	r1, #1
 8002b52:	0018      	movs	r0, r3
 8002b54:	f001 f88c 	bl	8003c70 <HAL_RCC_ClockConfig>
 8002b58:	1e03      	subs	r3, r0, #0
 8002b5a:	d001      	beq.n	8002b60 <SystemClock_Config+0x88>
  {
    Error_Handler();
 8002b5c:	f000 f940 	bl	8002de0 <Error_Handler>
  }
}
 8002b60:	46c0      	nop			@ (mov r8, r8)
 8002b62:	46bd      	mov	sp, r7
 8002b64:	b011      	add	sp, #68	@ 0x44
 8002b66:	bd90      	pop	{r4, r7, pc}

08002b68 <MX_USART2_UART_Init>:
  * @brief USART2 Initialization Function
  * @param None
  * @retval None
  */
static void MX_USART2_UART_Init(void)
{
 8002b68:	b580      	push	{r7, lr}
 8002b6a:	af00      	add	r7, sp, #0
  /* USER CODE END USART2_Init 0 */

  /* USER CODE BEGIN USART2_Init 1 */

  /* USER CODE END USART2_Init 1 */
  huart2.Instance = USART2;
 8002b6c:	4b14      	ldr	r3, [pc, #80]	@ (8002bc0 <MX_USART2_UART_Init+0x58>)
 8002b6e:	4a15      	ldr	r2, [pc, #84]	@ (8002bc4 <MX_USART2_UART_Init+0x5c>)
 8002b70:	601a      	str	r2, [r3, #0]
  huart2.Init.BaudRate = 115200;
 8002b72:	4b13      	ldr	r3, [pc, #76]	@ (8002bc0 <MX_USART2_UART_Init+0x58>)
 8002b74:	22e1      	movs	r2, #225	@ 0xe1
 8002b76:	0252      	lsls	r2, r2, #9
 8002b78:	605a      	str	r2, [r3, #4]
  huart2.Init.WordLength = UART_WORDLENGTH_8B;
 8002b7a:	4b11      	ldr	r3, [pc, #68]	@ (8002bc0 <MX_USART2_UART_Init+0x58>)
 8002b7c:	2200      	movs	r2, #0
 8002b7e:	609a      	str	r2, [r3, #8]
  huart2.Init.StopBits = UART_STOPBITS_1;
 8002b80:	4b0f      	ldr	r3, [pc, #60]	@ (8002bc0 <MX_USART2_UART_Init+0x58>)
 8002b82:	2200      	movs	r2, #0
 8002b84:	60da      	str	r2, [r3, #12]
  huart2.Init.Parity = UART_PARITY_NONE;
 8002b86:	4b0e      	ldr	r3, [pc, #56]	@ (8002bc0 <MX_USART2_UART_Init+0x58>)
 8002b88:	2200      	movs	r2, #0
 8002b8a:	611a      	str	r2, [r3, #16]
  huart2.Init.Mode = UART_MODE_TX_RX;
 8002b8c:	4b0c      	ldr	r3, [pc, #48]	@ (8002bc0 <MX_USART2_UART_Init+0x58>)
 8002b8e:	220c      	movs	r2, #12
 8002b90:	615a      	str	r2, [r3, #20]
  huart2.Init.HwFlowCtl = UART_HWCONTROL_NONE;
 8002b92:	4b0b      	ldr	r3, [pc, #44]	@ (8002bc0 <MX_USART2_UART_Init+0x58>)
 8002b94:	2200      	movs	r2, #0
 8002b96:	619a      	str	r2, [r3, #24]
  huart2.Init.OverSampling = UART_OVERSAMPLING_16;
 8002b98:	4b09      	ldr	r3, [pc, #36]	@ (8002bc0 <MX_USART2_UART_Init+0x58>)
 8002b9a:	2200      	movs	r2, #0
 8002b9c:	61da      	str	r2, [r3, #28]
  huart2.Init.OneBitSampling = UART_ONE_BIT_SAMPLE_DISABLE;
 8002b9e:	4b08      	ldr	r3, [pc, #32]	@ (8002bc0 <MX_USART2_UART_Init+0x58>)
 8002ba0:	2200      	movs	r2, #0
 8002ba2:	621a      	str	r2, [r3, #32]
  huart2.AdvancedInit.AdvFeatureInit = UART_ADVFEATURE_NO_INIT;
 8002ba4:	4b06      	ldr	r3, [pc, #24]	@ (8002bc0 <MX_USART2_UART_Init+0x58>)
 8002ba6:	2200      	movs	r2, #0
 8002ba8:	625a      	str	r2, [r3, #36]	@ 0x24
  if (HAL_UART_Init(&huart2) != HAL_OK)
 8002baa:	4b05      	ldr	r3, [pc, #20]	@ (8002bc0 <MX_USART2_UART_Init+0x58>)
 8002bac:	0018      	movs	r0, r3
 8002bae:	f001 f9a3 	bl	8003ef8 <HAL_UART_Init>
 8002bb2:	1e03      	subs	r3, r0, #0
 8002bb4:	d001      	beq.n	8002bba <MX_USART2_UART_Init+0x52>
  {
    Error_Handler();
 8002bb6:	f000 f913 	bl	8002de0 <Error_Handler>
  }
  /* USER CODE BEGIN USART2_Init 2 */

  /* USER CODE END USART2_Init 2 */

}
 8002bba:	46c0      	nop			@ (mov r8, r8)
 8002bbc:	46bd      	mov	sp, r7
 8002bbe:	bd80      	pop	{r7, pc}
 8002bc0:	20000390 	.word	0x20000390
 8002bc4:	40004400 	.word	0x40004400

08002bc8 <MX_GPIO_Init>:
  * @brief GPIO Initialization Function
  * @param None
  * @retval None
  */
static void MX_GPIO_Init(void)
{
 8002bc8:	b590      	push	{r4, r7, lr}
 8002bca:	b089      	sub	sp, #36	@ 0x24
 8002bcc:	af00      	add	r7, sp, #0
  GPIO_InitTypeDef GPIO_InitStruct = {0};
 8002bce:	240c      	movs	r4, #12
 8002bd0:	193b      	adds	r3, r7, r4
 8002bd2:	0018      	movs	r0, r3
 8002bd4:	2314      	movs	r3, #20
 8002bd6:	001a      	movs	r2, r3
 8002bd8:	2100      	movs	r1, #0
 8002bda:	f003 fc4d 	bl	8006478 <memset>
  /* USER CODE BEGIN MX_GPIO_Init_1 */

  /* USER CODE END MX_GPIO_Init_1 */

  /* GPIO Ports Clock Enable */
  __HAL_RCC_GPIOC_CLK_ENABLE();
 8002bde:	4b40      	ldr	r3, [pc, #256]	@ (8002ce0 <MX_GPIO_Init+0x118>)
 8002be0:	695a      	ldr	r2, [r3, #20]
 8002be2:	4b3f      	ldr	r3, [pc, #252]	@ (8002ce0 <MX_GPIO_Init+0x118>)
 8002be4:	2180      	movs	r1, #128	@ 0x80
 8002be6:	0309      	lsls	r1, r1, #12
 8002be8:	430a      	orrs	r2, r1
 8002bea:	615a      	str	r2, [r3, #20]
 8002bec:	4b3c      	ldr	r3, [pc, #240]	@ (8002ce0 <MX_GPIO_Init+0x118>)
 8002bee:	695a      	ldr	r2, [r3, #20]
 8002bf0:	2380      	movs	r3, #128	@ 0x80
 8002bf2:	031b      	lsls	r3, r3, #12
 8002bf4:	4013      	ands	r3, r2
 8002bf6:	60bb      	str	r3, [r7, #8]
 8002bf8:	68bb      	ldr	r3, [r7, #8]
  __HAL_RCC_GPIOF_CLK_ENABLE();
 8002bfa:	4b39      	ldr	r3, [pc, #228]	@ (8002ce0 <MX_GPIO_Init+0x118>)
 8002bfc:	695a      	ldr	r2, [r3, #20]
 8002bfe:	4b38      	ldr	r3, [pc, #224]	@ (8002ce0 <MX_GPIO_Init+0x118>)
 8002c00:	2180      	movs	r1, #128	@ 0x80
 8002c02:	03c9      	lsls	r1, r1, #15
 8002c04:	430a      	orrs	r2, r1
 8002c06:	615a      	str	r2, [r3, #20]
 8002c08:	4b35      	ldr	r3, [pc, #212]	@ (8002ce0 <MX_GPIO_Init+0x118>)
 8002c0a:	695a      	ldr	r2, [r3, #20]
 8002c0c:	2380      	movs	r3, #128	@ 0x80
 8002c0e:	03db      	lsls	r3, r3, #15
 8002c10:	4013      	ands	r3, r2
 8002c12:	607b      	str	r3, [r7, #4]
 8002c14:	687b      	ldr	r3, [r7, #4]
  __HAL_RCC_GPIOA_CLK_ENABLE();
 8002c16:	4b32      	ldr	r3, [pc, #200]	@ (8002ce0 <MX_GPIO_Init+0x118>)
 8002c18:	695a      	ldr	r2, [r3, #20]
 8002c1a:	4b31      	ldr	r3, [pc, #196]	@ (8002ce0 <MX_GPIO_Init+0x118>)
 8002c1c:	2180      	movs	r1, #128	@ 0x80
 8002c1e:	0289      	lsls	r1, r1, #10
 8002c20:	430a      	orrs	r2, r1
 8002c22:	615a      	str	r2, [r3, #20]
 8002c24:	4b2e      	ldr	r3, [pc, #184]	@ (8002ce0 <MX_GPIO_Init+0x118>)
 8002c26:	695a      	ldr	r2, [r3, #20]
 8002c28:	2380      	movs	r3, #128	@ 0x80
 8002c2a:	029b      	lsls	r3, r3, #10
 8002c2c:	4013      	ands	r3, r2
 8002c2e:	603b      	str	r3, [r7, #0]
 8002c30:	683b      	ldr	r3, [r7, #0]

  /*Configure GPIO pin Output Level */
  HAL_GPIO_WritePin(LED1_GPIO_Port, LED1_Pin, GPIO_PIN_RESET);
 8002c32:	2390      	movs	r3, #144	@ 0x90
 8002c34:	05db      	lsls	r3, r3, #23
 8002c36:	2200      	movs	r2, #0
 8002c38:	2110      	movs	r1, #16
 8002c3a:	0018      	movs	r0, r3
 8002c3c:	f000 fcc6 	bl	80035cc <HAL_GPIO_WritePin>

  /*Configure GPIO pin : BUTTON1_Pin */
  GPIO_InitStruct.Pin = BUTTON1_Pin;
 8002c40:	193b      	adds	r3, r7, r4
 8002c42:	2280      	movs	r2, #128	@ 0x80
 8002c44:	0192      	lsls	r2, r2, #6
 8002c46:	601a      	str	r2, [r3, #0]
  GPIO_InitStruct.Mode = GPIO_MODE_INPUT;
 8002c48:	193b      	adds	r3, r7, r4
 8002c4a:	2200      	movs	r2, #0
 8002c4c:	605a      	str	r2, [r3, #4]
  GPIO_InitStruct.Pull = GPIO_NOPULL;
 8002c4e:	193b      	adds	r3, r7, r4
 8002c50:	2200      	movs	r2, #0
 8002c52:	609a      	str	r2, [r3, #8]
  HAL_GPIO_Init(BUTTON1_GPIO_Port, &GPIO_InitStruct);
 8002c54:	193b      	adds	r3, r7, r4
 8002c56:	4a23      	ldr	r2, [pc, #140]	@ (8002ce4 <MX_GPIO_Init+0x11c>)
 8002c58:	0019      	movs	r1, r3
 8002c5a:	0010      	movs	r0, r2
 8002c5c:	f000 fb46 	bl	80032ec <HAL_GPIO_Init>

  /*Configure GPIO pin : BUTTON2_Pin */
  GPIO_InitStruct.Pin = BUTTON2_Pin;
 8002c60:	193b      	adds	r3, r7, r4
 8002c62:	2201      	movs	r2, #1
 8002c64:	601a      	str	r2, [r3, #0]
  GPIO_InitStruct.Mode = GPIO_MODE_INPUT;
 8002c66:	193b      	adds	r3, r7, r4
 8002c68:	2200      	movs	r2, #0
 8002c6a:	605a      	str	r2, [r3, #4]
  GPIO_InitStruct.Pull = GPIO_NOPULL;
 8002c6c:	193b      	adds	r3, r7, r4
 8002c6e:	2200      	movs	r2, #0
 8002c70:	609a      	str	r2, [r3, #8]
  HAL_GPIO_Init(BUTTON2_GPIO_Port, &GPIO_InitStruct);
 8002c72:	193a      	adds	r2, r7, r4
 8002c74:	2390      	movs	r3, #144	@ 0x90
 8002c76:	05db      	lsls	r3, r3, #23
 8002c78:	0011      	movs	r1, r2
 8002c7a:	0018      	movs	r0, r3
 8002c7c:	f000 fb36 	bl	80032ec <HAL_GPIO_Init>

  /*Configure GPIO pin : LED1_Pin */
  GPIO_InitStruct.Pin = LED1_Pin;
 8002c80:	193b      	adds	r3, r7, r4
 8002c82:	2210      	movs	r2, #16
 8002c84:	601a      	str	r2, [r3, #0]
  GPIO_InitStruct.Mode = GPIO_MODE_OUTPUT_PP;
 8002c86:	193b      	adds	r3, r7, r4
 8002c88:	2201      	movs	r2, #1
 8002c8a:	605a      	str	r2, [r3, #4]
  GPIO_InitStruct.Pull = GPIO_NOPULL;
 8002c8c:	193b      	adds	r3, r7, r4
 8002c8e:	2200      	movs	r2, #0
 8002c90:	609a      	str	r2, [r3, #8]
  GPIO_InitStruct.Speed = GPIO_SPEED_FREQ_LOW;
 8002c92:	193b      	adds	r3, r7, r4
 8002c94:	2200      	movs	r2, #0
 8002c96:	60da      	str	r2, [r3, #12]
  HAL_GPIO_Init(LED1_GPIO_Port, &GPIO_InitStruct);
 8002c98:	193a      	adds	r2, r7, r4
 8002c9a:	2390      	movs	r3, #144	@ 0x90
 8002c9c:	05db      	lsls	r3, r3, #23
 8002c9e:	0011      	movs	r1, r2
 8002ca0:	0018      	movs	r0, r3
 8002ca2:	f000 fb23 	bl	80032ec <HAL_GPIO_Init>

  /* USER CODE BEGIN MX_GPIO_Init_2 */
  /*Configure GPIO pins for USART1 (PA9=TX, PA10=RX) */
  GPIO_InitStruct.Pin = GPIO_PIN_9 | GPIO_PIN_10;  /* PA9, PA10 */
 8002ca6:	0021      	movs	r1, r4
 8002ca8:	187b      	adds	r3, r7, r1
 8002caa:	22c0      	movs	r2, #192	@ 0xc0
 8002cac:	00d2      	lsls	r2, r2, #3
 8002cae:	601a      	str	r2, [r3, #0]
  GPIO_InitStruct.Mode = GPIO_MODE_AF_PP;
 8002cb0:	187b      	adds	r3, r7, r1
 8002cb2:	2202      	movs	r2, #2
 8002cb4:	605a      	str	r2, [r3, #4]
  GPIO_InitStruct.Pull = GPIO_NOPULL;
 8002cb6:	187b      	adds	r3, r7, r1
 8002cb8:	2200      	movs	r2, #0
 8002cba:	609a      	str	r2, [r3, #8]
  GPIO_InitStruct.Speed = GPIO_SPEED_FREQ_HIGH;
 8002cbc:	187b      	adds	r3, r7, r1
 8002cbe:	2203      	movs	r2, #3
 8002cc0:	60da      	str	r2, [r3, #12]
  GPIO_InitStruct.Alternate = GPIO_AF1_USART1;     /* AF1 for USART1 on STM32F0 */
 8002cc2:	187b      	adds	r3, r7, r1
 8002cc4:	2201      	movs	r2, #1
 8002cc6:	611a      	str	r2, [r3, #16]
  HAL_GPIO_Init(GPIOA, &GPIO_InitStruct);
 8002cc8:	187a      	adds	r2, r7, r1
 8002cca:	2390      	movs	r3, #144	@ 0x90
 8002ccc:	05db      	lsls	r3, r3, #23
 8002cce:	0011      	movs	r1, r2
 8002cd0:	0018      	movs	r0, r3
 8002cd2:	f000 fb0b 	bl	80032ec <HAL_GPIO_Init>


  /* USER CODE END MX_GPIO_Init_2 */
}
 8002cd6:	46c0      	nop			@ (mov r8, r8)
 8002cd8:	46bd      	mov	sp, r7
 8002cda:	b009      	add	sp, #36	@ 0x24
 8002cdc:	bd90      	pop	{r4, r7, pc}
 8002cde:	46c0      	nop			@ (mov r8, r8)
 8002ce0:	40021000 	.word	0x40021000
 8002ce4:	48000800 	.word	0x48000800

08002ce8 <demo_gps_parser>:
  * @brief Demo mode: test GPS parser with sample NMEA sentences
  * @param None
  * @retval None
  */
static void demo_gps_parser(void)
{
 8002ce8:	b590      	push	{r4, r7, lr}
 8002cea:	b08b      	sub	sp, #44	@ 0x2c
 8002cec:	af02      	add	r7, sp, #8
    printf("\n=== GPS Parser Demo Mode ===\n");
 8002cee:	4b25      	ldr	r3, [pc, #148]	@ (8002d84 <demo_gps_parser+0x9c>)
 8002cf0:	0018      	movs	r0, r3
 8002cf2:	f003 facb 	bl	800628c <puts>
    printf("Testing %d NMEA sentences...\n\n", DEMO_NMEA_COUNT);
 8002cf6:	4b24      	ldr	r3, [pc, #144]	@ (8002d88 <demo_gps_parser+0xa0>)
 8002cf8:	2104      	movs	r1, #4
 8002cfa:	0018      	movs	r0, r3
 8002cfc:	f003 fa60 	bl	80061c0 <iprintf>

    gps_fix_t fix;

    for (int i = 0; i < DEMO_NMEA_COUNT; i++) {
 8002d00:	2300      	movs	r3, #0
 8002d02:	61fb      	str	r3, [r7, #28]
 8002d04:	e033      	b.n	8002d6e <demo_gps_parser+0x86>
        printf("Sentence %d: %s\n", i + 1, demo_nmea_sentences[i]);
 8002d06:	69fb      	ldr	r3, [r7, #28]
 8002d08:	1c59      	adds	r1, r3, #1
 8002d0a:	4b20      	ldr	r3, [pc, #128]	@ (8002d8c <demo_gps_parser+0xa4>)
 8002d0c:	69fa      	ldr	r2, [r7, #28]
 8002d0e:	0092      	lsls	r2, r2, #2
 8002d10:	58d2      	ldr	r2, [r2, r3]
 8002d12:	4b1f      	ldr	r3, [pc, #124]	@ (8002d90 <demo_gps_parser+0xa8>)
 8002d14:	0018      	movs	r0, r3
 8002d16:	f003 fa53 	bl	80061c0 <iprintf>

        if (gps_parse_nmea(demo_nmea_sentences[i], &fix)) {
 8002d1a:	4b1c      	ldr	r3, [pc, #112]	@ (8002d8c <demo_gps_parser+0xa4>)
 8002d1c:	69fa      	ldr	r2, [r7, #28]
 8002d1e:	0092      	lsls	r2, r2, #2
 8002d20:	58d3      	ldr	r3, [r2, r3]
 8002d22:	003a      	movs	r2, r7
 8002d24:	0011      	movs	r1, r2
 8002d26:	0018      	movs	r0, r3
 8002d28:	f7ff fc98 	bl	800265c <gps_parse_nmea>
 8002d2c:	1e03      	subs	r3, r0, #0
 8002d2e:	d017      	beq.n	8002d60 <demo_gps_parser+0x78>
            if (fix.valid_fix) {
 8002d30:	003b      	movs	r3, r7
 8002d32:	681b      	ldr	r3, [r3, #0]
 8002d34:	2b00      	cmp	r3, #0
 8002d36:	d00e      	beq.n	8002d56 <demo_gps_parser+0x6e>
                printf("  [VALID] Lat: %.6f  Lon: %.6f\n\n",
 8002d38:	003b      	movs	r3, r7
 8002d3a:	6898      	ldr	r0, [r3, #8]
 8002d3c:	68d9      	ldr	r1, [r3, #12]
 8002d3e:	003b      	movs	r3, r7
 8002d40:	691a      	ldr	r2, [r3, #16]
 8002d42:	695b      	ldr	r3, [r3, #20]
 8002d44:	4c13      	ldr	r4, [pc, #76]	@ (8002d94 <demo_gps_parser+0xac>)
 8002d46:	9200      	str	r2, [sp, #0]
 8002d48:	9301      	str	r3, [sp, #4]
 8002d4a:	0002      	movs	r2, r0
 8002d4c:	000b      	movs	r3, r1
 8002d4e:	0020      	movs	r0, r4
 8002d50:	f003 fa36 	bl	80061c0 <iprintf>
 8002d54:	e008      	b.n	8002d68 <demo_gps_parser+0x80>
                       fix.latitude, fix.longitude);
            } else {
                printf("  [INVALID FIX] No GPS lock in this sentence\n\n");
 8002d56:	4b10      	ldr	r3, [pc, #64]	@ (8002d98 <demo_gps_parser+0xb0>)
 8002d58:	0018      	movs	r0, r3
 8002d5a:	f003 fa97 	bl	800628c <puts>
 8002d5e:	e003      	b.n	8002d68 <demo_gps_parser+0x80>
            }
        } else {
            printf("  [PARSE ERROR] Failed to parse sentence\n\n");
 8002d60:	4b0e      	ldr	r3, [pc, #56]	@ (8002d9c <demo_gps_parser+0xb4>)
 8002d62:	0018      	movs	r0, r3
 8002d64:	f003 fa92 	bl	800628c <puts>
    for (int i = 0; i < DEMO_NMEA_COUNT; i++) {
 8002d68:	69fb      	ldr	r3, [r7, #28]
 8002d6a:	3301      	adds	r3, #1
 8002d6c:	61fb      	str	r3, [r7, #28]
 8002d6e:	69fb      	ldr	r3, [r7, #28]
 8002d70:	2b03      	cmp	r3, #3
 8002d72:	d9c8      	bls.n	8002d06 <demo_gps_parser+0x1e>
        }
    }

    printf("=== Demo Complete ===\n\n");
 8002d74:	4b0a      	ldr	r3, [pc, #40]	@ (8002da0 <demo_gps_parser+0xb8>)
 8002d76:	0018      	movs	r0, r3
 8002d78:	f003 fa88 	bl	800628c <puts>
}
 8002d7c:	46c0      	nop			@ (mov r8, r8)
 8002d7e:	46bd      	mov	sp, r7
 8002d80:	b009      	add	sp, #36	@ 0x24
 8002d82:	bd90      	pop	{r4, r7, pc}
 8002d84:	080084e0 	.word	0x080084e0
 8002d88:	08008500 	.word	0x08008500
 8002d8c:	20000000 	.word	0x20000000
 8002d90:	08008520 	.word	0x08008520
 8002d94:	08008534 	.word	0x08008534
 8002d98:	0800855c 	.word	0x0800855c
 8002d9c:	0800858c 	.word	0x0800858c
 8002da0:	080085b8 	.word	0x080085b8

08002da4 <_write>:

/* USER CODE BEGIN 4 */
/* Override newlib _write for printf redirection */
int _write(int file, char *ptr, int len)
{
 8002da4:	b580      	push	{r7, lr}
 8002da6:	b084      	sub	sp, #16
 8002da8:	af00      	add	r7, sp, #0
 8002daa:	60f8      	str	r0, [r7, #12]
 8002dac:	60b9      	str	r1, [r7, #8]
 8002dae:	607a      	str	r2, [r7, #4]
    if (file == STDOUT_FILENO || file == STDERR_FILENO) {
 8002db0:	68fb      	ldr	r3, [r7, #12]
 8002db2:	2b01      	cmp	r3, #1
 8002db4:	d002      	beq.n	8002dbc <_write+0x18>
 8002db6:	68fb      	ldr	r3, [r7, #12]
 8002db8:	2b02      	cmp	r3, #2
 8002dba:	d109      	bne.n	8002dd0 <_write+0x2c>
        HAL_UART_Transmit(&huart1, (uint8_t *)ptr, len, 1000);
 8002dbc:	687b      	ldr	r3, [r7, #4]
 8002dbe:	b29a      	uxth	r2, r3
 8002dc0:	23fa      	movs	r3, #250	@ 0xfa
 8002dc2:	009b      	lsls	r3, r3, #2
 8002dc4:	68b9      	ldr	r1, [r7, #8]
 8002dc6:	4805      	ldr	r0, [pc, #20]	@ (8002ddc <_write+0x38>)
 8002dc8:	f001 f8ea 	bl	8003fa0 <HAL_UART_Transmit>
        return len;
 8002dcc:	687b      	ldr	r3, [r7, #4]
 8002dce:	e001      	b.n	8002dd4 <_write+0x30>
    }
    return -1;
 8002dd0:	2301      	movs	r3, #1
 8002dd2:	425b      	negs	r3, r3
}
 8002dd4:	0018      	movs	r0, r3
 8002dd6:	46bd      	mov	sp, r7
 8002dd8:	b004      	add	sp, #16
 8002dda:	bd80      	pop	{r7, pc}
 8002ddc:	20000418 	.word	0x20000418

08002de0 <Error_Handler>:
/**
  * @brief  This function is executed in case of error occurrence.
  * @retval None
  */
void Error_Handler(void)
{
 8002de0:	b580      	push	{r7, lr}
 8002de2:	af00      	add	r7, sp, #0
  \details Disables IRQ interrupts by setting the I-bit in the CPSR.
           Can only be executed in Privileged modes.
 */
__STATIC_FORCEINLINE void __disable_irq(void)
{
  __ASM volatile ("cpsid i" : : : "memory");
 8002de4:	b672      	cpsid	i
}
 8002de6:	46c0      	nop			@ (mov r8, r8)
  /* USER CODE BEGIN Error_Handler_Debug */
  /* User can add his own implementation to report the HAL error return state */
  __disable_irq();
  while (1)
 8002de8:	46c0      	nop			@ (mov r8, r8)
 8002dea:	e7fd      	b.n	8002de8 <Error_Handler+0x8>

08002dec <HAL_UART_RxCpltCallback>:
  {
  }
  /* USER CODE END Error_Handler_Debug */
}
void HAL_UART_RxCpltCallback(UART_HandleTypeDef *huart)
{
 8002dec:	b580      	push	{r7, lr}
 8002dee:	b082      	sub	sp, #8
 8002df0:	af00      	add	r7, sp, #0
 8002df2:	6078      	str	r0, [r7, #4]
    if (huart->Instance == USART2) {
 8002df4:	687b      	ldr	r3, [r7, #4]
 8002df6:	681b      	ldr	r3, [r3, #0]
 8002df8:	4a04      	ldr	r2, [pc, #16]	@ (8002e0c <HAL_UART_RxCpltCallback+0x20>)
 8002dfa:	4293      	cmp	r3, r2
 8002dfc:	d101      	bne.n	8002e02 <HAL_UART_RxCpltCallback+0x16>
        gps_uart_on_rx_complete();
 8002dfe:	f7ff fd37 	bl	8002870 <gps_uart_on_rx_complete>
    }
}
 8002e02:	46c0      	nop			@ (mov r8, r8)
 8002e04:	46bd      	mov	sp, r7
 8002e06:	b002      	add	sp, #8
 8002e08:	bd80      	pop	{r7, pc}
 8002e0a:	46c0      	nop			@ (mov r8, r8)
 8002e0c:	40004400 	.word	0x40004400

08002e10 <HAL_MspInit>:
/* USER CODE END 0 */
/**
  * Initializes the Global MSP.
  */
void HAL_MspInit(void)
{
 8002e10:	b580      	push	{r7, lr}
 8002e12:	b082      	sub	sp, #8
 8002e14:	af00      	add	r7, sp, #0

  /* USER CODE BEGIN MspInit 0 */

  /* USER CODE END MspInit 0 */

  __HAL_RCC_SYSCFG_CLK_ENABLE();
 8002e16:	4b0f      	ldr	r3, [pc, #60]	@ (8002e54 <HAL_MspInit+0x44>)
 8002e18:	699a      	ldr	r2, [r3, #24]
 8002e1a:	4b0e      	ldr	r3, [pc, #56]	@ (8002e54 <HAL_MspInit+0x44>)
 8002e1c:	2101      	movs	r1, #1
 8002e1e:	430a      	orrs	r2, r1
 8002e20:	619a      	str	r2, [r3, #24]
 8002e22:	4b0c      	ldr	r3, [pc, #48]	@ (8002e54 <HAL_MspInit+0x44>)
 8002e24:	699b      	ldr	r3, [r3, #24]
 8002e26:	2201      	movs	r2, #1
 8002e28:	4013      	ands	r3, r2
 8002e2a:	607b      	str	r3, [r7, #4]
 8002e2c:	687b      	ldr	r3, [r7, #4]
  __HAL_RCC_PWR_CLK_ENABLE();
 8002e2e:	4b09      	ldr	r3, [pc, #36]	@ (8002e54 <HAL_MspInit+0x44>)
 8002e30:	69da      	ldr	r2, [r3, #28]
 8002e32:	4b08      	ldr	r3, [pc, #32]	@ (8002e54 <HAL_MspInit+0x44>)
 8002e34:	2180      	movs	r1, #128	@ 0x80
 8002e36:	0549      	lsls	r1, r1, #21
 8002e38:	430a      	orrs	r2, r1
 8002e3a:	61da      	str	r2, [r3, #28]
 8002e3c:	4b05      	ldr	r3, [pc, #20]	@ (8002e54 <HAL_MspInit+0x44>)
 8002e3e:	69da      	ldr	r2, [r3, #28]
 8002e40:	2380      	movs	r3, #128	@ 0x80
 8002e42:	055b      	lsls	r3, r3, #21
 8002e44:	4013      	ands	r3, r2
 8002e46:	603b      	str	r3, [r7, #0]
 8002e48:	683b      	ldr	r3, [r7, #0]
  /* System interrupt init*/

  /* USER CODE BEGIN MspInit 1 */

  /* USER CODE END MspInit 1 */
}
 8002e4a:	46c0      	nop			@ (mov r8, r8)
 8002e4c:	46bd      	mov	sp, r7
 8002e4e:	b002      	add	sp, #8
 8002e50:	bd80      	pop	{r7, pc}
 8002e52:	46c0      	nop			@ (mov r8, r8)
 8002e54:	40021000 	.word	0x40021000

08002e58 <HAL_UART_MspInit>:
  * This function configures the hardware resources used in this example
  * @param huart: UART handle pointer
  * @retval None
  */
void HAL_UART_MspInit(UART_HandleTypeDef* huart)
{
 8002e58:	b590      	push	{r4, r7, lr}
 8002e5a:	b08d      	sub	sp, #52	@ 0x34
 8002e5c:	af00      	add	r7, sp, #0
 8002e5e:	6078      	str	r0, [r7, #4]
  GPIO_InitTypeDef GPIO_InitStruct = {0};
 8002e60:	241c      	movs	r4, #28
 8002e62:	193b      	adds	r3, r7, r4
 8002e64:	0018      	movs	r0, r3
 8002e66:	2314      	movs	r3, #20
 8002e68:	001a      	movs	r2, r3
 8002e6a:	2100      	movs	r1, #0
 8002e6c:	f003 fb04 	bl	8006478 <memset>
  if(huart->Instance==USART1)
 8002e70:	687b      	ldr	r3, [r7, #4]
 8002e72:	681b      	ldr	r3, [r3, #0]
 8002e74:	4a39      	ldr	r2, [pc, #228]	@ (8002f5c <HAL_UART_MspInit+0x104>)
 8002e76:	4293      	cmp	r3, r2
 8002e78:	d134      	bne.n	8002ee4 <HAL_UART_MspInit+0x8c>
  {
    /* Peripheral clock enable */
    __HAL_RCC_USART1_CLK_ENABLE();
 8002e7a:	4b39      	ldr	r3, [pc, #228]	@ (8002f60 <HAL_UART_MspInit+0x108>)
 8002e7c:	699a      	ldr	r2, [r3, #24]
 8002e7e:	4b38      	ldr	r3, [pc, #224]	@ (8002f60 <HAL_UART_MspInit+0x108>)
 8002e80:	2180      	movs	r1, #128	@ 0x80
 8002e82:	01c9      	lsls	r1, r1, #7
 8002e84:	430a      	orrs	r2, r1
 8002e86:	619a      	str	r2, [r3, #24]
 8002e88:	4b35      	ldr	r3, [pc, #212]	@ (8002f60 <HAL_UART_MspInit+0x108>)
 8002e8a:	699a      	ldr	r2, [r3, #24]
 8002e8c:	2380      	movs	r3, #128	@ 0x80
 8002e8e:	01db      	lsls	r3, r3, #7
 8002e90:	4013      	ands	r3, r2
 8002e92:	61bb      	str	r3, [r7, #24]
 8002e94:	69bb      	ldr	r3, [r7, #24]
    __HAL_RCC_GPIOA_CLK_ENABLE();
 8002e96:	4b32      	ldr	r3, [pc, #200]	@ (8002f60 <HAL_UART_MspInit+0x108>)
 8002e98:	695a      	ldr	r2, [r3, #20]
 8002e9a:	4b31      	ldr	r3, [pc, #196]	@ (8002f60 <HAL_UART_MspInit+0x108>)
 8002e9c:	2180      	movs	r1, #128	@ 0x80
 8002e9e:	0289      	lsls	r1, r1, #10
 8002ea0:	430a      	orrs	r2, r1
 8002ea2:	615a      	str	r2, [r3, #20]
 8002ea4:	4b2e      	ldr	r3, [pc, #184]	@ (8002f60 <HAL_UART_MspInit+0x108>)
 8002ea6:	695a      	ldr	r2, [r3, #20]
 8002ea8:	2380      	movs	r3, #128	@ 0x80
 8002eaa:	029b      	lsls	r3, r3, #10
 8002eac:	4013      	ands	r3, r2
 8002eae:	617b      	str	r3, [r7, #20]
 8002eb0:	697b      	ldr	r3, [r7, #20]

    /**USART1 GPIO Configuration
    PA9     ------> USART1_TX
    PA10    ------> USART1_RX
    */
    GPIO_InitStruct.Pin = GPIO_PIN_9|GPIO_PIN_10;
 8002eb2:	193b      	adds	r3, r7, r4
 8002eb4:	22c0      	movs	r2, #192	@ 0xc0
 8002eb6:	00d2      	lsls	r2, r2, #3
 8002eb8:	601a      	str	r2, [r3, #0]
    GPIO_InitStruct.Mode = GPIO_MODE_AF_PP;
 8002eba:	0021      	movs	r1, r4
 8002ebc:	187b      	adds	r3, r7, r1
 8002ebe:	2202      	movs	r2, #2
 8002ec0:	605a      	str	r2, [r3, #4]
    GPIO_InitStruct.Pull = GPIO_NOPULL;
 8002ec2:	187b      	adds	r3, r7, r1
 8002ec4:	2200      	movs	r2, #0
 8002ec6:	609a      	str	r2, [r3, #8]
    GPIO_InitStruct.Speed = GPIO_SPEED_FREQ_HIGH;
 8002ec8:	187b      	adds	r3, r7, r1
 8002eca:	2203      	movs	r2, #3
 8002ecc:	60da      	str	r2, [r3, #12]
    GPIO_InitStruct.Alternate = GPIO_AF1_USART1;
 8002ece:	187b      	adds	r3, r7, r1
 8002ed0:	2201      	movs	r2, #1
 8002ed2:	611a      	str	r2, [r3, #16]
    HAL_GPIO_Init(GPIOA, &GPIO_InitStruct);
 8002ed4:	187a      	adds	r2, r7, r1
 8002ed6:	2390      	movs	r3, #144	@ 0x90
 8002ed8:	05db      	lsls	r3, r3, #23
 8002eda:	0011      	movs	r1, r2
 8002edc:	0018      	movs	r0, r3
 8002ede:	f000 fa05 	bl	80032ec <HAL_GPIO_Init>
    GPIO_InitStruct.Pull = GPIO_NOPULL;
    GPIO_InitStruct.Speed = GPIO_SPEED_FREQ_HIGH;
    GPIO_InitStruct.Alternate = GPIO_AF1_USART2;
    HAL_GPIO_Init(GPIOA, &GPIO_InitStruct);
  }
}
 8002ee2:	e037      	b.n	8002f54 <HAL_UART_MspInit+0xfc>
  else if(huart->Instance==USART2)
 8002ee4:	687b      	ldr	r3, [r7, #4]
 8002ee6:	681b      	ldr	r3, [r3, #0]
 8002ee8:	4a1e      	ldr	r2, [pc, #120]	@ (8002f64 <HAL_UART_MspInit+0x10c>)
 8002eea:	4293      	cmp	r3, r2
 8002eec:	d132      	bne.n	8002f54 <HAL_UART_MspInit+0xfc>
    __HAL_RCC_USART2_CLK_ENABLE();
 8002eee:	4b1c      	ldr	r3, [pc, #112]	@ (8002f60 <HAL_UART_MspInit+0x108>)
 8002ef0:	69da      	ldr	r2, [r3, #28]
 8002ef2:	4b1b      	ldr	r3, [pc, #108]	@ (8002f60 <HAL_UART_MspInit+0x108>)
 8002ef4:	2180      	movs	r1, #128	@ 0x80
 8002ef6:	0289      	lsls	r1, r1, #10
 8002ef8:	430a      	orrs	r2, r1
 8002efa:	61da      	str	r2, [r3, #28]
 8002efc:	4b18      	ldr	r3, [pc, #96]	@ (8002f60 <HAL_UART_MspInit+0x108>)
 8002efe:	69da      	ldr	r2, [r3, #28]
 8002f00:	2380      	movs	r3, #128	@ 0x80
 8002f02:	029b      	lsls	r3, r3, #10
 8002f04:	4013      	ands	r3, r2
 8002f06:	613b      	str	r3, [r7, #16]
 8002f08:	693b      	ldr	r3, [r7, #16]
    __HAL_RCC_GPIOA_CLK_ENABLE();
 8002f0a:	4b15      	ldr	r3, [pc, #84]	@ (8002f60 <HAL_UART_MspInit+0x108>)
 8002f0c:	695a      	ldr	r2, [r3, #20]
 8002f0e:	4b14      	ldr	r3, [pc, #80]	@ (8002f60 <HAL_UART_MspInit+0x108>)
 8002f10:	2180      	movs	r1, #128	@ 0x80
 8002f12:	0289      	lsls	r1, r1, #10
 8002f14:	430a      	orrs	r2, r1
 8002f16:	615a      	str	r2, [r3, #20]
 8002f18:	4b11      	ldr	r3, [pc, #68]	@ (8002f60 <HAL_UART_MspInit+0x108>)
 8002f1a:	695a      	ldr	r2, [r3, #20]
 8002f1c:	2380      	movs	r3, #128	@ 0x80
 8002f1e:	029b      	lsls	r3, r3, #10
 8002f20:	4013      	ands	r3, r2
 8002f22:	60fb      	str	r3, [r7, #12]
 8002f24:	68fb      	ldr	r3, [r7, #12]
    GPIO_InitStruct.Pin = GPIO_PIN_2|GPIO_PIN_3;
 8002f26:	211c      	movs	r1, #28
 8002f28:	187b      	adds	r3, r7, r1
 8002f2a:	220c      	movs	r2, #12
 8002f2c:	601a      	str	r2, [r3, #0]
    GPIO_InitStruct.Mode = GPIO_MODE_AF_PP;
 8002f2e:	187b      	adds	r3, r7, r1
 8002f30:	2202      	movs	r2, #2
 8002f32:	605a      	str	r2, [r3, #4]
    GPIO_InitStruct.Pull = GPIO_NOPULL;
 8002f34:	187b      	adds	r3, r7, r1
 8002f36:	2200      	movs	r2, #0
 8002f38:	609a      	str	r2, [r3, #8]
    GPIO_InitStruct.Speed = GPIO_SPEED_FREQ_HIGH;
 8002f3a:	187b      	adds	r3, r7, r1
 8002f3c:	2203      	movs	r2, #3
 8002f3e:	60da      	str	r2, [r3, #12]
    GPIO_InitStruct.Alternate = GPIO_AF1_USART2;
 8002f40:	187b      	adds	r3, r7, r1
 8002f42:	2201      	movs	r2, #1
 8002f44:	611a      	str	r2, [r3, #16]
    HAL_GPIO_Init(GPIOA, &GPIO_InitStruct);
 8002f46:	187a      	adds	r2, r7, r1
 8002f48:	2390      	movs	r3, #144	@ 0x90
 8002f4a:	05db      	lsls	r3, r3, #23
 8002f4c:	0011      	movs	r1, r2
 8002f4e:	0018      	movs	r0, r3
 8002f50:	f000 f9cc 	bl	80032ec <HAL_GPIO_Init>
}
 8002f54:	46c0      	nop			@ (mov r8, r8)
 8002f56:	46bd      	mov	sp, r7
 8002f58:	b00d      	add	sp, #52	@ 0x34
 8002f5a:	bd90      	pop	{r4, r7, pc}
 8002f5c:	40013800 	.word	0x40013800
 8002f60:	40021000 	.word	0x40021000
 8002f64:	40004400 	.word	0x40004400

08002f68 <NMI_Handler>:
/******************************************************************************/
/**
  * @brief This function handles Non maskable interrupt.
  */
void NMI_Handler(void)
{
 8002f68:	b580      	push	{r7, lr}
 8002f6a:	af00      	add	r7, sp, #0
  /* USER CODE BEGIN NonMaskableInt_IRQn 0 */

  /* USER CODE END NonMaskableInt_IRQn 0 */
  /* USER CODE BEGIN NonMaskableInt_IRQn 1 */
   while (1)
 8002f6c:	46c0      	nop			@ (mov r8, r8)
 8002f6e:	e7fd      	b.n	8002f6c <NMI_Handler+0x4>

08002f70 <HardFault_Handler>:

/**
  * @brief This function handles Hard fault interrupt.
  */
void HardFault_Handler(void)
{
 8002f70:	b580      	push	{r7, lr}
 8002f72:	af00      	add	r7, sp, #0
  /* USER CODE BEGIN HardFault_IRQn 0 */

  /* USER CODE END HardFault_IRQn 0 */
  while (1)
 8002f74:	46c0      	nop			@ (mov r8, r8)
 8002f76:	e7fd      	b.n	8002f74 <HardFault_Handler+0x4>

08002f78 <SVC_Handler>:

/**
  * @brief This function handles System service call via SWI instruction.
  */
void SVC_Handler(void)
{
 8002f78:	b580      	push	{r7, lr}
 8002f7a:	af00      	add	r7, sp, #0

  /* USER CODE END SVC_IRQn 0 */
  /* USER CODE BEGIN SVC_IRQn 1 */

  /* USER CODE END SVC_IRQn 1 */
}
 8002f7c:	46c0      	nop			@ (mov r8, r8)
 8002f7e:	46bd      	mov	sp, r7
 8002f80:	bd80      	pop	{r7, pc}

08002f82 <PendSV_Handler>:

/**
  * @brief This function handles Pendable request for system service.
  */
void PendSV_Handler(void)
{
 8002f82:	b580      	push	{r7, lr}
 8002f84:	af00      	add	r7, sp, #0

  /* USER CODE END PendSV_IRQn 0 */
  /* USER CODE BEGIN PendSV_IRQn 1 */

  /* USER CODE END PendSV_IRQn 1 */
}
 8002f86:	46c0      	nop			@ (mov r8, r8)
 8002f88:	46bd      	mov	sp, r7
 8002f8a:	bd80      	pop	{r7, pc}

08002f8c <SysTick_Handler>:

/**
  * @brief This function handles System tick timer.
  */
void SysTick_Handler(void)
{
 8002f8c:	b580      	push	{r7, lr}
 8002f8e:	af00      	add	r7, sp, #0
  /* USER CODE BEGIN SysTick_IRQn 0 */

  /* USER CODE END SysTick_IRQn 0 */
  HAL_IncTick();
 8002f90:	f000 f85e 	bl	8003050 <HAL_IncTick>
  /* USER CODE BEGIN SysTick_IRQn 1 */

  /* USER CODE END SysTick_IRQn 1 */
}
 8002f94:	46c0      	nop			@ (mov r8, r8)
 8002f96:	46bd      	mov	sp, r7
 8002f98:	bd80      	pop	{r7, pc}
	...

08002f9c <USART2_IRQHandler>:

/**
  * @brief This function handles USART2 global interrupt.
  */
void USART2_IRQHandler(void)
{
 8002f9c:	b580      	push	{r7, lr}
 8002f9e:	af00      	add	r7, sp, #0
  /* USER CODE BEGIN USART2_IRQn 0 */

  /* USER CODE END USART2_IRQn 0 */
  HAL_UART_IRQHandler(&huart2);
 8002fa0:	4b03      	ldr	r3, [pc, #12]	@ (8002fb0 <USART2_IRQHandler+0x14>)
 8002fa2:	0018      	movs	r0, r3
 8002fa4:	f001 f8f2 	bl	800418c <HAL_UART_IRQHandler>
  /* USER CODE BEGIN USART2_IRQn 1 */

  /* USER CODE END USART2_IRQn 1 */
}
 8002fa8:	46c0      	nop			@ (mov r8, r8)
 8002faa:	46bd      	mov	sp, r7
 8002fac:	bd80      	pop	{r7, pc}
 8002fae:	46c0      	nop			@ (mov r8, r8)
 8002fb0:	20000390 	.word	0x20000390

08002fb4 <SystemInit>:
  * @brief  Setup the microcontroller system
  * @param  None
  * @retval None
  */
void SystemInit(void)
{
 8002fb4:	b580      	push	{r7, lr}
 8002fb6:	af00      	add	r7, sp, #0
                         before branch to main program. This call is made inside
                         the "startup_stm32f0xx.s" file.
                         User can setups the default system clock (System clock source, PLL Multiplier
                         and Divider factors, AHB/APBx prescalers and Flash settings).
   */
}
 8002fb8:	46c0      	nop			@ (mov r8, r8)
 8002fba:	46bd      	mov	sp, r7
 8002fbc:	bd80      	pop	{r7, pc}
	...

08002fc0 <HAL_Init>:
  *       In the default implementation,Systick is used as source of time base.
  *       The tick variable is incremented each 1ms in its ISR.
  * @retval HAL status
  */
HAL_StatusTypeDef HAL_Init(void)
{
 8002fc0:	b580      	push	{r7, lr}
 8002fc2:	af00      	add	r7, sp, #0
  /* Configure Flash prefetch */ 
#if (PREFETCH_ENABLE != 0)
  __HAL_FLASH_PREFETCH_BUFFER_ENABLE();
 8002fc4:	4b07      	ldr	r3, [pc, #28]	@ (8002fe4 <HAL_Init+0x24>)
 8002fc6:	681a      	ldr	r2, [r3, #0]
 8002fc8:	4b06      	ldr	r3, [pc, #24]	@ (8002fe4 <HAL_Init+0x24>)
 8002fca:	2110      	movs	r1, #16
 8002fcc:	430a      	orrs	r2, r1
 8002fce:	601a      	str	r2, [r3, #0]
#endif /* PREFETCH_ENABLE */

  /* Use systick as time base source and configure 1ms tick (default clock after Reset is HSI) */

  HAL_InitTick(TICK_INT_PRIORITY);
 8002fd0:	2003      	movs	r0, #3
 8002fd2:	f000 f809 	bl	8002fe8 <HAL_InitTick>

  /* Init the low level hardware */
  HAL_MspInit();
 8002fd6:	f7ff ff1b 	bl	8002e10 <HAL_MspInit>

  /* Return function status */
  return HAL_OK;
 8002fda:	2300      	movs	r3, #0
}
 8002fdc:	0018      	movs	r0, r3
 8002fde:	46bd      	mov	sp, r7
 8002fe0:	bd80      	pop	{r7, pc}
 8002fe2:	46c0      	nop			@ (mov r8, r8)
 8002fe4:	40022000 	.word	0x40022000

08002fe8 <HAL_InitTick>:
  *       implementation  in user file.
  * @param TickPriority Tick interrupt priority.
  * @retval HAL status
  */
__weak HAL_StatusTypeDef HAL_InitTick(uint32_t TickPriority)
{
 8002fe8:	b590      	push	{r4, r7, lr}
 8002fea:	b083      	sub	sp, #12
 8002fec:	af00      	add	r7, sp, #0
 8002fee:	6078      	str	r0, [r7, #4]
  /*Configure the SysTick to have interrupt in 1ms time basis*/
  if (HAL_SYSTICK_Config(SystemCoreClock / (1000U / uwTickFreq)) > 0U)
 8002ff0:	4b14      	ldr	r3, [pc, #80]	@ (8003044 <HAL_InitTick+0x5c>)
 8002ff2:	681c      	ldr	r4, [r3, #0]
 8002ff4:	4b14      	ldr	r3, [pc, #80]	@ (8003048 <HAL_InitTick+0x60>)
 8002ff6:	781b      	ldrb	r3, [r3, #0]
 8002ff8:	0019      	movs	r1, r3
 8002ffa:	23fa      	movs	r3, #250	@ 0xfa
 8002ffc:	0098      	lsls	r0, r3, #2
 8002ffe:	f7fd f89f 	bl	8000140 <__udivsi3>
 8003002:	0003      	movs	r3, r0
 8003004:	0019      	movs	r1, r3
 8003006:	0020      	movs	r0, r4
 8003008:	f7fd f89a 	bl	8000140 <__udivsi3>
 800300c:	0003      	movs	r3, r0
 800300e:	0018      	movs	r0, r3
 8003010:	f000 f8e1 	bl	80031d6 <HAL_SYSTICK_Config>
 8003014:	1e03      	subs	r3, r0, #0
 8003016:	d001      	beq.n	800301c <HAL_InitTick+0x34>
  {
    return HAL_ERROR;
 8003018:	2301      	movs	r3, #1
 800301a:	e00f      	b.n	800303c <HAL_InitTick+0x54>
  }

  /* Configure the SysTick IRQ priority */
  if (TickPriority < (1UL << __NVIC_PRIO_BITS))
 800301c:	687b      	ldr	r3, [r7, #4]
 800301e:	2b03      	cmp	r3, #3
 8003020:	d80b      	bhi.n	800303a <HAL_InitTick+0x52>
  {
    HAL_NVIC_SetPriority(SysTick_IRQn, TickPriority, 0U);
 8003022:	6879      	ldr	r1, [r7, #4]
 8003024:	2301      	movs	r3, #1
 8003026:	425b      	negs	r3, r3
 8003028:	2200      	movs	r2, #0
 800302a:	0018      	movs	r0, r3
 800302c:	f000 f8be 	bl	80031ac <HAL_NVIC_SetPriority>
    uwTickPrio = TickPriority;
 8003030:	4b06      	ldr	r3, [pc, #24]	@ (800304c <HAL_InitTick+0x64>)
 8003032:	687a      	ldr	r2, [r7, #4]
 8003034:	601a      	str	r2, [r3, #0]
  {
    return HAL_ERROR;
  }

   /* Return function status */
  return HAL_OK;
 8003036:	2300      	movs	r3, #0
 8003038:	e000      	b.n	800303c <HAL_InitTick+0x54>
    return HAL_ERROR;
 800303a:	2301      	movs	r3, #1
}
 800303c:	0018      	movs	r0, r3
 800303e:	46bd      	mov	sp, r7
 8003040:	b003      	add	sp, #12
 8003042:	bd90      	pop	{r4, r7, pc}
 8003044:	20000010 	.word	0x20000010
 8003048:	20000018 	.word	0x20000018
 800304c:	20000014 	.word	0x20000014

08003050 <HAL_IncTick>:
  * @note This function is declared as __weak to be overwritten in case of other 
  *       implementations in user file.
  * @retval None
  */
__weak void HAL_IncTick(void)
{
 8003050:	b580      	push	{r7, lr}
 8003052:	af00      	add	r7, sp, #0
  uwTick += uwTickFreq;
 8003054:	4b05      	ldr	r3, [pc, #20]	@ (800306c <HAL_IncTick+0x1c>)
 8003056:	781b      	ldrb	r3, [r3, #0]
 8003058:	001a      	movs	r2, r3
 800305a:	4b05      	ldr	r3, [pc, #20]	@ (8003070 <HAL_IncTick+0x20>)
 800305c:	681b      	ldr	r3, [r3, #0]
 800305e:	18d2      	adds	r2, r2, r3
 8003060:	4b03      	ldr	r3, [pc, #12]	@ (8003070 <HAL_IncTick+0x20>)
 8003062:	601a      	str	r2, [r3, #0]
}
 8003064:	46c0      	nop			@ (mov r8, r8)
 8003066:	46bd      	mov	sp, r7
 8003068:	bd80      	pop	{r7, pc}
 800306a:	46c0      	nop			@ (mov r8, r8)
 800306c:	20000018 	.word	0x20000018
 8003070:	200004bc 	.word	0x200004bc

08003074 <HAL_GetTick>:
  * @note   This function is declared as __weak  to be overwritten  in case of other 
  *       implementations in user file.
  * @retval tick value
  */
__weak uint32_t HAL_GetTick(void)
{
 8003074:	b580      	push	{r7, lr}
 8003076:	af00      	add	r7, sp, #0
  return uwTick;
 8003078:	4b02      	ldr	r3, [pc, #8]	@ (8003084 <HAL_GetTick+0x10>)
 800307a:	681b      	ldr	r3, [r3, #0]
}
 800307c:	0018      	movs	r0, r3
 800307e:	46bd      	mov	sp, r7
 8003080:	bd80      	pop	{r7, pc}
 8003082:	46c0      	nop			@ (mov r8, r8)
 8003084:	200004bc 	.word	0x200004bc

08003088 <__NVIC_SetPriority>:
  \param [in]      IRQn  Interrupt number.
  \param [in]  priority  Priority to set.
  \note    The priority cannot be set for every processor exception.
 */
__STATIC_INLINE void __NVIC_SetPriority(IRQn_Type IRQn, uint32_t priority)
{
 8003088:	b590      	push	{r4, r7, lr}
 800308a:	b083      	sub	sp, #12
 800308c:	af00      	add	r7, sp, #0
 800308e:	0002      	movs	r2, r0
 8003090:	6039      	str	r1, [r7, #0]
 8003092:	1dfb      	adds	r3, r7, #7
 8003094:	701a      	strb	r2, [r3, #0]
  if ((int32_t)(IRQn) >= 0)
 8003096:	1dfb      	adds	r3, r7, #7
 8003098:	781b      	ldrb	r3, [r3, #0]
 800309a:	2b7f      	cmp	r3, #127	@ 0x7f
 800309c:	d828      	bhi.n	80030f0 <__NVIC_SetPriority+0x68>
  {
    NVIC->IP[_IP_IDX(IRQn)]  = ((uint32_t)(NVIC->IP[_IP_IDX(IRQn)]  & ~(0xFFUL << _BIT_SHIFT(IRQn))) |
 800309e:	4a2f      	ldr	r2, [pc, #188]	@ (800315c <__NVIC_SetPriority+0xd4>)
 80030a0:	1dfb      	adds	r3, r7, #7
 80030a2:	781b      	ldrb	r3, [r3, #0]
 80030a4:	b25b      	sxtb	r3, r3
 80030a6:	089b      	lsrs	r3, r3, #2
 80030a8:	33c0      	adds	r3, #192	@ 0xc0
 80030aa:	009b      	lsls	r3, r3, #2
 80030ac:	589b      	ldr	r3, [r3, r2]
 80030ae:	1dfa      	adds	r2, r7, #7
 80030b0:	7812      	ldrb	r2, [r2, #0]
 80030b2:	0011      	movs	r1, r2
 80030b4:	2203      	movs	r2, #3
 80030b6:	400a      	ands	r2, r1
 80030b8:	00d2      	lsls	r2, r2, #3
 80030ba:	21ff      	movs	r1, #255	@ 0xff
 80030bc:	4091      	lsls	r1, r2
 80030be:	000a      	movs	r2, r1
 80030c0:	43d2      	mvns	r2, r2
 80030c2:	401a      	ands	r2, r3
 80030c4:	0011      	movs	r1, r2
       (((priority << (8U - __NVIC_PRIO_BITS)) & (uint32_t)0xFFUL) << _BIT_SHIFT(IRQn)));
 80030c6:	683b      	ldr	r3, [r7, #0]
 80030c8:	019b      	lsls	r3, r3, #6
 80030ca:	22ff      	movs	r2, #255	@ 0xff
 80030cc:	401a      	ands	r2, r3
 80030ce:	1dfb      	adds	r3, r7, #7
 80030d0:	781b      	ldrb	r3, [r3, #0]
 80030d2:	0018      	movs	r0, r3
 80030d4:	2303      	movs	r3, #3
 80030d6:	4003      	ands	r3, r0
 80030d8:	00db      	lsls	r3, r3, #3
 80030da:	409a      	lsls	r2, r3
    NVIC->IP[_IP_IDX(IRQn)]  = ((uint32_t)(NVIC->IP[_IP_IDX(IRQn)]  & ~(0xFFUL << _BIT_SHIFT(IRQn))) |
 80030dc:	481f      	ldr	r0, [pc, #124]	@ (800315c <__NVIC_SetPriority+0xd4>)
 80030de:	1dfb      	adds	r3, r7, #7
 80030e0:	781b      	ldrb	r3, [r3, #0]
 80030e2:	b25b      	sxtb	r3, r3
 80030e4:	089b      	lsrs	r3, r3, #2
 80030e6:	430a      	orrs	r2, r1
 80030e8:	33c0      	adds	r3, #192	@ 0xc0
 80030ea:	009b      	lsls	r3, r3, #2
 80030ec:	501a      	str	r2, [r3, r0]
  else
  {
    SCB->SHP[_SHP_IDX(IRQn)] = ((uint32_t)(SCB->SHP[_SHP_IDX(IRQn)] & ~(0xFFUL << _BIT_SHIFT(IRQn))) |
       (((priority << (8U - __NVIC_PRIO_BITS)) & (uint32_t)0xFFUL) << _BIT_SHIFT(IRQn)));
  }
}
 80030ee:	e031      	b.n	8003154 <__NVIC_SetPriority+0xcc>
    SCB->SHP[_SHP_IDX(IRQn)] = ((uint32_t)(SCB->SHP[_SHP_IDX(IRQn)] & ~(0xFFUL << _BIT_SHIFT(IRQn))) |
 80030f0:	4a1b      	ldr	r2, [pc, #108]	@ (8003160 <__NVIC_SetPriority+0xd8>)
 80030f2:	1dfb      	adds	r3, r7, #7
 80030f4:	781b      	ldrb	r3, [r3, #0]
 80030f6:	0019      	movs	r1, r3
 80030f8:	230f      	movs	r3, #15
 80030fa:	400b      	ands	r3, r1
 80030fc:	3b08      	subs	r3, #8
 80030fe:	089b      	lsrs	r3, r3, #2
 8003100:	3306      	adds	r3, #6
 8003102:	009b      	lsls	r3, r3, #2
 8003104:	18d3      	adds	r3, r2, r3
 8003106:	3304      	adds	r3, #4
 8003108:	681b      	ldr	r3, [r3, #0]
 800310a:	1dfa      	adds	r2, r7, #7
 800310c:	7812      	ldrb	r2, [r2, #0]
 800310e:	0011      	movs	r1, r2
 8003110:	2203      	movs	r2, #3
 8003112:	400a      	ands	r2, r1
 8003114:	00d2      	lsls	r2, r2, #3
 8003116:	21ff      	movs	r1, #255	@ 0xff
 8003118:	4091      	lsls	r1, r2
 800311a:	000a      	movs	r2, r1
 800311c:	43d2      	mvns	r2, r2
 800311e:	401a      	ands	r2, r3
 8003120:	0011      	movs	r1, r2
       (((priority << (8U - __NVIC_PRIO_BITS)) & (uint32_t)0xFFUL) << _BIT_SHIFT(IRQn)));
 8003122:	683b      	ldr	r3, [r7, #0]
 8003124:	019b      	lsls	r3, r3, #6
 8003126:	22ff      	movs	r2, #255	@ 0xff
 8003128:	401a      	ands	r2, r3
 800312a:	1dfb      	adds	r3, r7, #7
 800312c:	781b      	ldrb	r3, [r3, #0]
 800312e:	0018      	movs	r0, r3
 8003130:	2303      	movs	r3, #3
 8003132:	4003      	ands	r3, r0
 8003134:	00db      	lsls	r3, r3, #3
 8003136:	409a      	lsls	r2, r3
    SCB->SHP[_SHP_IDX(IRQn)] = ((uint32_t)(SCB->SHP[_SHP_IDX(IRQn)] & ~(0xFFUL << _BIT_SHIFT(IRQn))) |
 8003138:	4809      	ldr	r0, [pc, #36]	@ (8003160 <__NVIC_SetPriority+0xd8>)
 800313a:	1dfb      	adds	r3, r7, #7
 800313c:	781b      	ldrb	r3, [r3, #0]
 800313e:	001c      	movs	r4, r3
 8003140:	230f      	movs	r3, #15
 8003142:	4023      	ands	r3, r4
 8003144:	3b08      	subs	r3, #8
 8003146:	089b      	lsrs	r3, r3, #2
 8003148:	430a      	orrs	r2, r1
 800314a:	3306      	adds	r3, #6
 800314c:	009b      	lsls	r3, r3, #2
 800314e:	18c3      	adds	r3, r0, r3
 8003150:	3304      	adds	r3, #4
 8003152:	601a      	str	r2, [r3, #0]
}
 8003154:	46c0      	nop			@ (mov r8, r8)
 8003156:	46bd      	mov	sp, r7
 8003158:	b003      	add	sp, #12
 800315a:	bd90      	pop	{r4, r7, pc}
 800315c:	e000e100 	.word	0xe000e100
 8003160:	e000ed00 	.word	0xe000ed00

08003164 <SysTick_Config>:
  \note    When the variable <b>__Vendor_SysTickConfig</b> is set to 1, then the
           function <b>SysTick_Config</b> is not included. In this case, the file <b><i>device</i>.h</b>
           must contain a vendor-specific implementation of this function.
 */
__STATIC_INLINE uint32_t SysTick_Config(uint32_t ticks)
{
 8003164:	b580      	push	{r7, lr}
 8003166:	b082      	sub	sp, #8
 8003168:	af00      	add	r7, sp, #0
 800316a:	6078      	str	r0, [r7, #4]
  if ((ticks - 1UL) > SysTick_LOAD_RELOAD_Msk)
 800316c:	687b      	ldr	r3, [r7, #4]
 800316e:	1e5a      	subs	r2, r3, #1
 8003170:	2380      	movs	r3, #128	@ 0x80
 8003172:	045b      	lsls	r3, r3, #17
 8003174:	429a      	cmp	r2, r3
 8003176:	d301      	bcc.n	800317c <SysTick_Config+0x18>
  {
    return (1UL);                                                   /* Reload value impossible */
 8003178:	2301      	movs	r3, #1
 800317a:	e010      	b.n	800319e <SysTick_Config+0x3a>
  }

  SysTick->LOAD  = (uint32_t)(ticks - 1UL);                         /* set reload register */
 800317c:	4b0a      	ldr	r3, [pc, #40]	@ (80031a8 <SysTick_Config+0x44>)
 800317e:	687a      	ldr	r2, [r7, #4]
 8003180:	3a01      	subs	r2, #1
 8003182:	605a      	str	r2, [r3, #4]
  NVIC_SetPriority (SysTick_IRQn, (1UL << __NVIC_PRIO_BITS) - 1UL); /* set Priority for Systick Interrupt */
 8003184:	2301      	movs	r3, #1
 8003186:	425b      	negs	r3, r3
 8003188:	2103      	movs	r1, #3
 800318a:	0018      	movs	r0, r3
 800318c:	f7ff ff7c 	bl	8003088 <__NVIC_SetPriority>
  SysTick->VAL   = 0UL;                                             /* Load the SysTick Counter Value */
 8003190:	4b05      	ldr	r3, [pc, #20]	@ (80031a8 <SysTick_Config+0x44>)
 8003192:	2200      	movs	r2, #0
 8003194:	609a      	str	r2, [r3, #8]
  SysTick->CTRL  = SysTick_CTRL_CLKSOURCE_Msk |
 8003196:	4b04      	ldr	r3, [pc, #16]	@ (80031a8 <SysTick_Config+0x44>)
 8003198:	2207      	movs	r2, #7
 800319a:	601a      	str	r2, [r3, #0]
                   SysTick_CTRL_TICKINT_Msk   |
                   SysTick_CTRL_ENABLE_Msk;                         /* Enable SysTick IRQ and SysTick Timer */
  return (0UL);                                                     /* Function successful */
 800319c:	2300      	movs	r3, #0
}
 800319e:	0018      	movs	r0, r3
 80031a0:	46bd      	mov	sp, r7
 80031a2:	b002      	add	sp, #8
 80031a4:	bd80      	pop	{r7, pc}
 80031a6:	46c0      	nop			@ (mov r8, r8)
 80031a8:	e000e010 	.word	0xe000e010

080031ac <HAL_NVIC_SetPriority>:
  *         with stm32f0xx devices, this parameter is a dummy value and it is ignored, because 
  *         no subpriority supported in Cortex M0 based products.   
  * @retval None
  */
void HAL_NVIC_SetPriority(IRQn_Type IRQn, uint32_t PreemptPriority, uint32_t SubPriority)
{
 80031ac:	b580      	push	{r7, lr}
 80031ae:	b084      	sub	sp, #16
 80031b0:	af00      	add	r7, sp, #0
 80031b2:	60b9      	str	r1, [r7, #8]
 80031b4:	607a      	str	r2, [r7, #4]
 80031b6:	210f      	movs	r1, #15
 80031b8:	187b      	adds	r3, r7, r1
 80031ba:	1c02      	adds	r2, r0, #0
 80031bc:	701a      	strb	r2, [r3, #0]
  /* Check the parameters */
  assert_param(IS_NVIC_PREEMPTION_PRIORITY(PreemptPriority));
  NVIC_SetPriority(IRQn,PreemptPriority);
 80031be:	68ba      	ldr	r2, [r7, #8]
 80031c0:	187b      	adds	r3, r7, r1
 80031c2:	781b      	ldrb	r3, [r3, #0]
 80031c4:	b25b      	sxtb	r3, r3
 80031c6:	0011      	movs	r1, r2
 80031c8:	0018      	movs	r0, r3
 80031ca:	f7ff ff5d 	bl	8003088 <__NVIC_SetPriority>

  /* Prevent unused argument(s) compilation warning */
  UNUSED(SubPriority);
}
 80031ce:	46c0      	nop			@ (mov r8, r8)
 80031d0:	46bd      	mov	sp, r7
 80031d2:	b004      	add	sp, #16
 80031d4:	bd80      	pop	{r7, pc}

080031d6 <HAL_SYSTICK_Config>:
  * @param  TicksNumb Specifies the ticks Number of ticks between two interrupts.
  * @retval status:  - 0  Function succeeded.
  *                  - 1  Function failed.
  */
uint32_t HAL_SYSTICK_Config(uint32_t TicksNumb)
{
 80031d6:	b580      	push	{r7, lr}
 80031d8:	b082      	sub	sp, #8
 80031da:	af00      	add	r7, sp, #0
 80031dc:	6078      	str	r0, [r7, #4]
   return SysTick_Config(TicksNumb);
 80031de:	687b      	ldr	r3, [r7, #4]
 80031e0:	0018      	movs	r0, r3
 80031e2:	f7ff ffbf 	bl	8003164 <SysTick_Config>
 80031e6:	0003      	movs	r3, r0
}
 80031e8:	0018      	movs	r0, r3
 80031ea:	46bd      	mov	sp, r7
 80031ec:	b002      	add	sp, #8
 80031ee:	bd80      	pop	{r7, pc}

080031f0 <HAL_DMA_Abort>:
  * @param  hdma  pointer to a DMA_HandleTypeDef structure that contains
  *               the configuration information for the specified DMA Channel.
  * @retval HAL status
  */
HAL_StatusTypeDef HAL_DMA_Abort(DMA_HandleTypeDef *hdma)
{
 80031f0:	b580      	push	{r7, lr}
 80031f2:	b082      	sub	sp, #8
 80031f4:	af00      	add	r7, sp, #0
 80031f6:	6078      	str	r0, [r7, #4]
  if (hdma->State != HAL_DMA_STATE_BUSY)
 80031f8:	687b      	ldr	r3, [r7, #4]
 80031fa:	2221      	movs	r2, #33	@ 0x21
 80031fc:	5c9b      	ldrb	r3, [r3, r2]
 80031fe:	b2db      	uxtb	r3, r3
 8003200:	2b02      	cmp	r3, #2
 8003202:	d008      	beq.n	8003216 <HAL_DMA_Abort+0x26>
  {
    /* no transfer ongoing */
    hdma->ErrorCode = HAL_DMA_ERROR_NO_XFER;
 8003204:	687b      	ldr	r3, [r7, #4]
 8003206:	2204      	movs	r2, #4
 8003208:	639a      	str	r2, [r3, #56]	@ 0x38

    /* Process Unlocked */
    __HAL_UNLOCK(hdma);
 800320a:	687b      	ldr	r3, [r7, #4]
 800320c:	2220      	movs	r2, #32
 800320e:	2100      	movs	r1, #0
 8003210:	5499      	strb	r1, [r3, r2]

    return HAL_ERROR;
 8003212:	2301      	movs	r3, #1
 8003214:	e020      	b.n	8003258 <HAL_DMA_Abort+0x68>
  }
  else
  {
    /* Disable DMA IT */
    hdma->Instance->CCR &= ~(DMA_IT_TC | DMA_IT_HT | DMA_IT_TE);
 8003216:	687b      	ldr	r3, [r7, #4]
 8003218:	681b      	ldr	r3, [r3, #0]
 800321a:	681a      	ldr	r2, [r3, #0]
 800321c:	687b      	ldr	r3, [r7, #4]
 800321e:	681b      	ldr	r3, [r3, #0]
 8003220:	210e      	movs	r1, #14
 8003222:	438a      	bics	r2, r1
 8003224:	601a      	str	r2, [r3, #0]

    /* Disable the channel */
    hdma->Instance->CCR &= ~DMA_CCR_EN;
 8003226:	687b      	ldr	r3, [r7, #4]
 8003228:	681b      	ldr	r3, [r3, #0]
 800322a:	681a      	ldr	r2, [r3, #0]
 800322c:	687b      	ldr	r3, [r7, #4]
 800322e:	681b      	ldr	r3, [r3, #0]
 8003230:	2101      	movs	r1, #1
 8003232:	438a      	bics	r2, r1
 8003234:	601a      	str	r2, [r3, #0]

    /* Clear all flags */
    hdma->DmaBaseAddress->IFCR = (DMA_FLAG_GL1 << hdma->ChannelIndex);
 8003236:	687b      	ldr	r3, [r7, #4]
 8003238:	6c1a      	ldr	r2, [r3, #64]	@ 0x40
 800323a:	687b      	ldr	r3, [r7, #4]
 800323c:	6bdb      	ldr	r3, [r3, #60]	@ 0x3c
 800323e:	2101      	movs	r1, #1
 8003240:	4091      	lsls	r1, r2
 8003242:	000a      	movs	r2, r1
 8003244:	605a      	str	r2, [r3, #4]
  }
  /* Change the DMA state*/
  hdma->State = HAL_DMA_STATE_READY;
 8003246:	687b      	ldr	r3, [r7, #4]
 8003248:	2221      	movs	r2, #33	@ 0x21
 800324a:	2101      	movs	r1, #1
 800324c:	5499      	strb	r1, [r3, r2]

  /* Process Unlocked */
  __HAL_UNLOCK(hdma);
 800324e:	687b      	ldr	r3, [r7, #4]
 8003250:	2220      	movs	r2, #32
 8003252:	2100      	movs	r1, #0
 8003254:	5499      	strb	r1, [r3, r2]

  return HAL_OK;
 8003256:	2300      	movs	r3, #0
}
 8003258:	0018      	movs	r0, r3
 800325a:	46bd      	mov	sp, r7
 800325c:	b002      	add	sp, #8
 800325e:	bd80      	pop	{r7, pc}

08003260 <HAL_DMA_Abort_IT>:
  * @param  hdma  pointer to a DMA_HandleTypeDef structure that contains
  *               the configuration information for the specified DMA Stream.
  * @retval HAL status
  */
HAL_StatusTypeDef HAL_DMA_Abort_IT(DMA_HandleTypeDef *hdma)
{
 8003260:	b580      	push	{r7, lr}
 8003262:	b084      	sub	sp, #16
 8003264:	af00      	add	r7, sp, #0
 8003266:	6078      	str	r0, [r7, #4]
  HAL_StatusTypeDef status = HAL_OK;
 8003268:	210f      	movs	r1, #15
 800326a:	187b      	adds	r3, r7, r1
 800326c:	2200      	movs	r2, #0
 800326e:	701a      	strb	r2, [r3, #0]

  if (HAL_DMA_STATE_BUSY != hdma->State)
 8003270:	687b      	ldr	r3, [r7, #4]
 8003272:	2221      	movs	r2, #33	@ 0x21
 8003274:	5c9b      	ldrb	r3, [r3, r2]
 8003276:	b2db      	uxtb	r3, r3
 8003278:	2b02      	cmp	r3, #2
 800327a:	d006      	beq.n	800328a <HAL_DMA_Abort_IT+0x2a>
  {
    /* no transfer ongoing */
    hdma->ErrorCode = HAL_DMA_ERROR_NO_XFER;
 800327c:	687b      	ldr	r3, [r7, #4]
 800327e:	2204      	movs	r2, #4
 8003280:	639a      	str	r2, [r3, #56]	@ 0x38

    status = HAL_ERROR;
 8003282:	187b      	adds	r3, r7, r1
 8003284:	2201      	movs	r2, #1
 8003286:	701a      	strb	r2, [r3, #0]
 8003288:	e028      	b.n	80032dc <HAL_DMA_Abort_IT+0x7c>
  }
  else
  {

    /* Disable DMA IT */
    hdma->Instance->CCR &= ~(DMA_IT_TC | DMA_IT_HT | DMA_IT_TE);
 800328a:	687b      	ldr	r3, [r7, #4]
 800328c:	681b      	ldr	r3, [r3, #0]
 800328e:	681a      	ldr	r2, [r3, #0]
 8003290:	687b      	ldr	r3, [r7, #4]
 8003292:	681b      	ldr	r3, [r3, #0]
 8003294:	210e      	movs	r1, #14
 8003296:	438a      	bics	r2, r1
 8003298:	601a      	str	r2, [r3, #0]

    /* Disable the channel */
    hdma->Instance->CCR &= ~DMA_CCR_EN;
 800329a:	687b      	ldr	r3, [r7, #4]
 800329c:	681b      	ldr	r3, [r3, #0]
 800329e:	681a      	ldr	r2, [r3, #0]
 80032a0:	687b      	ldr	r3, [r7, #4]
 80032a2:	681b      	ldr	r3, [r3, #0]
 80032a4:	2101      	movs	r1, #1
 80032a6:	438a      	bics	r2, r1
 80032a8:	601a      	str	r2, [r3, #0]

    /* Clear all flags */
    hdma->DmaBaseAddress->IFCR = DMA_FLAG_GL1 << hdma->ChannelIndex;
 80032aa:	687b      	ldr	r3, [r7, #4]
 80032ac:	6c1a      	ldr	r2, [r3, #64]	@ 0x40
 80032ae:	687b      	ldr	r3, [r7, #4]
 80032b0:	6bdb      	ldr	r3, [r3, #60]	@ 0x3c
 80032b2:	2101      	movs	r1, #1
 80032b4:	4091      	lsls	r1, r2
 80032b6:	000a      	movs	r2, r1
 80032b8:	605a      	str	r2, [r3, #4]

    /* Change the DMA state */
    hdma->State = HAL_DMA_STATE_READY;
 80032ba:	687b      	ldr	r3, [r7, #4]
 80032bc:	2221      	movs	r2, #33	@ 0x21
 80032be:	2101      	movs	r1, #1
 80032c0:	5499      	strb	r1, [r3, r2]

    /* Process Unlocked */
    __HAL_UNLOCK(hdma);
 80032c2:	687b      	ldr	r3, [r7, #4]
 80032c4:	2220      	movs	r2, #32
 80032c6:	2100      	movs	r1, #0
 80032c8:	5499      	strb	r1, [r3, r2]

    /* Call User Abort callback */
    if (hdma->XferAbortCallback != NULL)
 80032ca:	687b      	ldr	r3, [r7, #4]
 80032cc:	6b5b      	ldr	r3, [r3, #52]	@ 0x34
 80032ce:	2b00      	cmp	r3, #0
 80032d0:	d004      	beq.n	80032dc <HAL_DMA_Abort_IT+0x7c>
    {
      hdma->XferAbortCallback(hdma);
 80032d2:	687b      	ldr	r3, [r7, #4]
 80032d4:	6b5b      	ldr	r3, [r3, #52]	@ 0x34
 80032d6:	687a      	ldr	r2, [r7, #4]
 80032d8:	0010      	movs	r0, r2
 80032da:	4798      	blx	r3
    }
  }
  return status;
 80032dc:	230f      	movs	r3, #15
 80032de:	18fb      	adds	r3, r7, r3
 80032e0:	781b      	ldrb	r3, [r3, #0]
}
 80032e2:	0018      	movs	r0, r3
 80032e4:	46bd      	mov	sp, r7
 80032e6:	b004      	add	sp, #16
 80032e8:	bd80      	pop	{r7, pc}
	...

080032ec <HAL_GPIO_Init>:
  * @param  GPIO_Init pointer to a GPIO_InitTypeDef structure that contains
  *         the configuration information for the specified GPIO peripheral.
  * @retval None
  */
void HAL_GPIO_Init(GPIO_TypeDef  *GPIOx, GPIO_InitTypeDef *GPIO_Init)
{
 80032ec:	b580      	push	{r7, lr}
 80032ee:	b086      	sub	sp, #24
 80032f0:	af00      	add	r7, sp, #0
 80032f2:	6078      	str	r0, [r7, #4]
 80032f4:	6039      	str	r1, [r7, #0]
  uint32_t position = 0x00u;
 80032f6:	2300      	movs	r3, #0
 80032f8:	617b      	str	r3, [r7, #20]
  assert_param(IS_GPIO_ALL_INSTANCE(GPIOx));
  assert_param(IS_GPIO_PIN(GPIO_Init->Pin));
  assert_param(IS_GPIO_MODE(GPIO_Init->Mode));

  /* Configure the port pins */
  while (((GPIO_Init->Pin) >> position) != 0x00u)
 80032fa:	e14f      	b.n	800359c <HAL_GPIO_Init+0x2b0>
  {
    /* Get current io position */
    iocurrent = (GPIO_Init->Pin) & (1uL << position);
 80032fc:	683b      	ldr	r3, [r7, #0]
 80032fe:	681b      	ldr	r3, [r3, #0]
 8003300:	2101      	movs	r1, #1
 8003302:	697a      	ldr	r2, [r7, #20]
 8003304:	4091      	lsls	r1, r2
 8003306:	000a      	movs	r2, r1
 8003308:	4013      	ands	r3, r2
 800330a:	60fb      	str	r3, [r7, #12]

    if (iocurrent != 0x00u)
 800330c:	68fb      	ldr	r3, [r7, #12]
 800330e:	2b00      	cmp	r3, #0
 8003310:	d100      	bne.n	8003314 <HAL_GPIO_Init+0x28>
 8003312:	e140      	b.n	8003596 <HAL_GPIO_Init+0x2aa>
    {
      /*--------------------- GPIO Mode Configuration ------------------------*/
      /* In case of Output or Alternate function mode selection */
      if(((GPIO_Init->Mode & GPIO_MODE) == MODE_OUTPUT) ||
 8003314:	683b      	ldr	r3, [r7, #0]
 8003316:	685b      	ldr	r3, [r3, #4]
 8003318:	2203      	movs	r2, #3
 800331a:	4013      	ands	r3, r2
 800331c:	2b01      	cmp	r3, #1
 800331e:	d005      	beq.n	800332c <HAL_GPIO_Init+0x40>
         ((GPIO_Init->Mode & GPIO_MODE) == MODE_AF))
 8003320:	683b      	ldr	r3, [r7, #0]
 8003322:	685b      	ldr	r3, [r3, #4]
 8003324:	2203      	movs	r2, #3
 8003326:	4013      	ands	r3, r2
      if(((GPIO_Init->Mode & GPIO_MODE) == MODE_OUTPUT) ||
 8003328:	2b02      	cmp	r3, #2
 800332a:	d130      	bne.n	800338e <HAL_GPIO_Init+0xa2>
      {
        /* Check the Speed parameter */
        assert_param(IS_GPIO_SPEED(GPIO_Init->Speed));
        /* Configure the IO Speed */
        temp = GPIOx->OSPEEDR;
 800332c:	687b      	ldr	r3, [r7, #4]
 800332e:	689b      	ldr	r3, [r3, #8]
 8003330:	613b      	str	r3, [r7, #16]
        temp &= ~(GPIO_OSPEEDER_OSPEEDR0 << (position * 2u));
 8003332:	697b      	ldr	r3, [r7, #20]
 8003334:	005b      	lsls	r3, r3, #1
 8003336:	2203      	movs	r2, #3
 8003338:	409a      	lsls	r2, r3
 800333a:	0013      	movs	r3, r2
 800333c:	43da      	mvns	r2, r3
 800333e:	693b      	ldr	r3, [r7, #16]
 8003340:	4013      	ands	r3, r2
 8003342:	613b      	str	r3, [r7, #16]
        temp |= (GPIO_Init->Speed << (position * 2u));
 8003344:	683b      	ldr	r3, [r7, #0]
 8003346:	68da      	ldr	r2, [r3, #12]
 8003348:	697b      	ldr	r3, [r7, #20]
 800334a:	005b      	lsls	r3, r3, #1
 800334c:	409a      	lsls	r2, r3
 800334e:	0013      	movs	r3, r2
 8003350:	693a      	ldr	r2, [r7, #16]
 8003352:	4313      	orrs	r3, r2
 8003354:	613b      	str	r3, [r7, #16]
        GPIOx->OSPEEDR = temp;
 8003356:	687b      	ldr	r3, [r7, #4]
 8003358:	693a      	ldr	r2, [r7, #16]
 800335a:	609a      	str	r2, [r3, #8]

        /* Configure the IO Output Type */
        temp = GPIOx->OTYPER;
 800335c:	687b      	ldr	r3, [r7, #4]
 800335e:	685b      	ldr	r3, [r3, #4]
 8003360:	613b      	str	r3, [r7, #16]
        temp &= ~(GPIO_OTYPER_OT_0 << position) ;
 8003362:	2201      	movs	r2, #1
 8003364:	697b      	ldr	r3, [r7, #20]
 8003366:	409a      	lsls	r2, r3
 8003368:	0013      	movs	r3, r2
 800336a:	43da      	mvns	r2, r3
 800336c:	693b      	ldr	r3, [r7, #16]
 800336e:	4013      	ands	r3, r2
 8003370:	613b      	str	r3, [r7, #16]
        temp |= (((GPIO_Init->Mode & OUTPUT_TYPE) >> OUTPUT_TYPE_Pos) << position);
 8003372:	683b      	ldr	r3, [r7, #0]
 8003374:	685b      	ldr	r3, [r3, #4]
 8003376:	091b      	lsrs	r3, r3, #4
 8003378:	2201      	movs	r2, #1
 800337a:	401a      	ands	r2, r3
 800337c:	697b      	ldr	r3, [r7, #20]
 800337e:	409a      	lsls	r2, r3
 8003380:	0013      	movs	r3, r2
 8003382:	693a      	ldr	r2, [r7, #16]
 8003384:	4313      	orrs	r3, r2
 8003386:	613b      	str	r3, [r7, #16]
        GPIOx->OTYPER = temp;
 8003388:	687b      	ldr	r3, [r7, #4]
 800338a:	693a      	ldr	r2, [r7, #16]
 800338c:	605a      	str	r2, [r3, #4]
      }
      
      if((GPIO_Init->Mode & GPIO_MODE) != MODE_ANALOG)
 800338e:	683b      	ldr	r3, [r7, #0]
 8003390:	685b      	ldr	r3, [r3, #4]
 8003392:	2203      	movs	r2, #3
 8003394:	4013      	ands	r3, r2
 8003396:	2b03      	cmp	r3, #3
 8003398:	d017      	beq.n	80033ca <HAL_GPIO_Init+0xde>
      {
        /* Check the Pull parameter */
        assert_param(IS_GPIO_PULL(GPIO_Init->Pull));

        /* Activate the Pull-up or Pull down resistor for the current IO */
        temp = GPIOx->PUPDR;
 800339a:	687b      	ldr	r3, [r7, #4]
 800339c:	68db      	ldr	r3, [r3, #12]
 800339e:	613b      	str	r3, [r7, #16]
        temp &= ~(GPIO_PUPDR_PUPDR0 << (position * 2u));
 80033a0:	697b      	ldr	r3, [r7, #20]
 80033a2:	005b      	lsls	r3, r3, #1
 80033a4:	2203      	movs	r2, #3
 80033a6:	409a      	lsls	r2, r3
 80033a8:	0013      	movs	r3, r2
 80033aa:	43da      	mvns	r2, r3
 80033ac:	693b      	ldr	r3, [r7, #16]
 80033ae:	4013      	ands	r3, r2
 80033b0:	613b      	str	r3, [r7, #16]
        temp |= ((GPIO_Init->Pull) << (position * 2u));
 80033b2:	683b      	ldr	r3, [r7, #0]
 80033b4:	689a      	ldr	r2, [r3, #8]
 80033b6:	697b      	ldr	r3, [r7, #20]
 80033b8:	005b      	lsls	r3, r3, #1
 80033ba:	409a      	lsls	r2, r3
 80033bc:	0013      	movs	r3, r2
 80033be:	693a      	ldr	r2, [r7, #16]
 80033c0:	4313      	orrs	r3, r2
 80033c2:	613b      	str	r3, [r7, #16]
        GPIOx->PUPDR = temp;
 80033c4:	687b      	ldr	r3, [r7, #4]
 80033c6:	693a      	ldr	r2, [r7, #16]
 80033c8:	60da      	str	r2, [r3, #12]
      }

      /* In case of Alternate function mode selection */
      if((GPIO_Init->Mode & GPIO_MODE) == MODE_AF)
 80033ca:	683b      	ldr	r3, [r7, #0]
 80033cc:	685b      	ldr	r3, [r3, #4]
 80033ce:	2203      	movs	r2, #3
 80033d0:	4013      	ands	r3, r2
 80033d2:	2b02      	cmp	r3, #2
 80033d4:	d123      	bne.n	800341e <HAL_GPIO_Init+0x132>
        /* Check the Alternate function parameters */
        assert_param(IS_GPIO_AF_INSTANCE(GPIOx));
        assert_param(IS_GPIO_AF(GPIO_Init->Alternate));

        /* Configure Alternate function mapped with the current IO */
        temp = GPIOx->AFR[position >> 3u];
 80033d6:	697b      	ldr	r3, [r7, #20]
 80033d8:	08da      	lsrs	r2, r3, #3
 80033da:	687b      	ldr	r3, [r7, #4]
 80033dc:	3208      	adds	r2, #8
 80033de:	0092      	lsls	r2, r2, #2
 80033e0:	58d3      	ldr	r3, [r2, r3]
 80033e2:	613b      	str	r3, [r7, #16]
        temp &= ~(0xFu << ((position & 0x07u) * 4u));
 80033e4:	697b      	ldr	r3, [r7, #20]
 80033e6:	2207      	movs	r2, #7
 80033e8:	4013      	ands	r3, r2
 80033ea:	009b      	lsls	r3, r3, #2
 80033ec:	220f      	movs	r2, #15
 80033ee:	409a      	lsls	r2, r3
 80033f0:	0013      	movs	r3, r2
 80033f2:	43da      	mvns	r2, r3
 80033f4:	693b      	ldr	r3, [r7, #16]
 80033f6:	4013      	ands	r3, r2
 80033f8:	613b      	str	r3, [r7, #16]
        temp |= ((GPIO_Init->Alternate) << ((position & 0x07u) * 4u));
 80033fa:	683b      	ldr	r3, [r7, #0]
 80033fc:	691a      	ldr	r2, [r3, #16]
 80033fe:	697b      	ldr	r3, [r7, #20]
 8003400:	2107      	movs	r1, #7
 8003402:	400b      	ands	r3, r1
 8003404:	009b      	lsls	r3, r3, #2
 8003406:	409a      	lsls	r2, r3
 8003408:	0013      	movs	r3, r2
 800340a:	693a      	ldr	r2, [r7, #16]
 800340c:	4313      	orrs	r3, r2
 800340e:	613b      	str	r3, [r7, #16]
        GPIOx->AFR[position >> 3u] = temp;
 8003410:	697b      	ldr	r3, [r7, #20]
 8003412:	08da      	lsrs	r2, r3, #3
 8003414:	687b      	ldr	r3, [r7, #4]
 8003416:	3208      	adds	r2, #8
 8003418:	0092      	lsls	r2, r2, #2
 800341a:	6939      	ldr	r1, [r7, #16]
 800341c:	50d1      	str	r1, [r2, r3]
      }

      /* Configure IO Direction mode (Input, Output, Alternate or Analog) */
      temp = GPIOx->MODER;
 800341e:	687b      	ldr	r3, [r7, #4]
 8003420:	681b      	ldr	r3, [r3, #0]
 8003422:	613b      	str	r3, [r7, #16]
      temp &= ~(GPIO_MODER_MODER0 << (position * 2u));
 8003424:	697b      	ldr	r3, [r7, #20]
 8003426:	005b      	lsls	r3, r3, #1
 8003428:	2203      	movs	r2, #3
 800342a:	409a      	lsls	r2, r3
 800342c:	0013      	movs	r3, r2
 800342e:	43da      	mvns	r2, r3
 8003430:	693b      	ldr	r3, [r7, #16]
 8003432:	4013      	ands	r3, r2
 8003434:	613b      	str	r3, [r7, #16]
      temp |= ((GPIO_Init->Mode & GPIO_MODE) << (position * 2u));
 8003436:	683b      	ldr	r3, [r7, #0]
 8003438:	685b      	ldr	r3, [r3, #4]
 800343a:	2203      	movs	r2, #3
 800343c:	401a      	ands	r2, r3
 800343e:	697b      	ldr	r3, [r7, #20]
 8003440:	005b      	lsls	r3, r3, #1
 8003442:	409a      	lsls	r2, r3
 8003444:	0013      	movs	r3, r2
 8003446:	693a      	ldr	r2, [r7, #16]
 8003448:	4313      	orrs	r3, r2
 800344a:	613b      	str	r3, [r7, #16]
      GPIOx->MODER = temp;
 800344c:	687b      	ldr	r3, [r7, #4]
 800344e:	693a      	ldr	r2, [r7, #16]
 8003450:	601a      	str	r2, [r3, #0]

      /*--------------------- EXTI Mode Configuration ------------------------*/
      /* Configure the External Interrupt or event for the current IO */
      if((GPIO_Init->Mode & EXTI_MODE) != 0x00u)
 8003452:	683b      	ldr	r3, [r7, #0]
 8003454:	685a      	ldr	r2, [r3, #4]
 8003456:	23c0      	movs	r3, #192	@ 0xc0
 8003458:	029b      	lsls	r3, r3, #10
 800345a:	4013      	ands	r3, r2
 800345c:	d100      	bne.n	8003460 <HAL_GPIO_Init+0x174>
 800345e:	e09a      	b.n	8003596 <HAL_GPIO_Init+0x2aa>
      {
        /* Enable SYSCFG Clock */
        __HAL_RCC_SYSCFG_CLK_ENABLE();
 8003460:	4b54      	ldr	r3, [pc, #336]	@ (80035b4 <HAL_GPIO_Init+0x2c8>)
 8003462:	699a      	ldr	r2, [r3, #24]
 8003464:	4b53      	ldr	r3, [pc, #332]	@ (80035b4 <HAL_GPIO_Init+0x2c8>)
 8003466:	2101      	movs	r1, #1
 8003468:	430a      	orrs	r2, r1
 800346a:	619a      	str	r2, [r3, #24]
 800346c:	4b51      	ldr	r3, [pc, #324]	@ (80035b4 <HAL_GPIO_Init+0x2c8>)
 800346e:	699b      	ldr	r3, [r3, #24]
 8003470:	2201      	movs	r2, #1
 8003472:	4013      	ands	r3, r2
 8003474:	60bb      	str	r3, [r7, #8]
 8003476:	68bb      	ldr	r3, [r7, #8]

        temp = SYSCFG->EXTICR[position >> 2u];
 8003478:	4a4f      	ldr	r2, [pc, #316]	@ (80035b8 <HAL_GPIO_Init+0x2cc>)
 800347a:	697b      	ldr	r3, [r7, #20]
 800347c:	089b      	lsrs	r3, r3, #2
 800347e:	3302      	adds	r3, #2
 8003480:	009b      	lsls	r3, r3, #2
 8003482:	589b      	ldr	r3, [r3, r2]
 8003484:	613b      	str	r3, [r7, #16]
        temp &= ~(0x0FuL << (4u * (position & 0x03u)));
 8003486:	697b      	ldr	r3, [r7, #20]
 8003488:	2203      	movs	r2, #3
 800348a:	4013      	ands	r3, r2
 800348c:	009b      	lsls	r3, r3, #2
 800348e:	220f      	movs	r2, #15
 8003490:	409a      	lsls	r2, r3
 8003492:	0013      	movs	r3, r2
 8003494:	43da      	mvns	r2, r3
 8003496:	693b      	ldr	r3, [r7, #16]
 8003498:	4013      	ands	r3, r2
 800349a:	613b      	str	r3, [r7, #16]
        temp |= (GPIO_GET_INDEX(GPIOx) << (4u * (position & 0x03u)));
 800349c:	687a      	ldr	r2, [r7, #4]
 800349e:	2390      	movs	r3, #144	@ 0x90
 80034a0:	05db      	lsls	r3, r3, #23
 80034a2:	429a      	cmp	r2, r3
 80034a4:	d013      	beq.n	80034ce <HAL_GPIO_Init+0x1e2>
 80034a6:	687b      	ldr	r3, [r7, #4]
 80034a8:	4a44      	ldr	r2, [pc, #272]	@ (80035bc <HAL_GPIO_Init+0x2d0>)
 80034aa:	4293      	cmp	r3, r2
 80034ac:	d00d      	beq.n	80034ca <HAL_GPIO_Init+0x1de>
 80034ae:	687b      	ldr	r3, [r7, #4]
 80034b0:	4a43      	ldr	r2, [pc, #268]	@ (80035c0 <HAL_GPIO_Init+0x2d4>)
 80034b2:	4293      	cmp	r3, r2
 80034b4:	d007      	beq.n	80034c6 <HAL_GPIO_Init+0x1da>
 80034b6:	687b      	ldr	r3, [r7, #4]
 80034b8:	4a42      	ldr	r2, [pc, #264]	@ (80035c4 <HAL_GPIO_Init+0x2d8>)
 80034ba:	4293      	cmp	r3, r2
 80034bc:	d101      	bne.n	80034c2 <HAL_GPIO_Init+0x1d6>
 80034be:	2303      	movs	r3, #3
 80034c0:	e006      	b.n	80034d0 <HAL_GPIO_Init+0x1e4>
 80034c2:	2305      	movs	r3, #5
 80034c4:	e004      	b.n	80034d0 <HAL_GPIO_Init+0x1e4>
 80034c6:	2302      	movs	r3, #2
 80034c8:	e002      	b.n	80034d0 <HAL_GPIO_Init+0x1e4>
 80034ca:	2301      	movs	r3, #1
 80034cc:	e000      	b.n	80034d0 <HAL_GPIO_Init+0x1e4>
 80034ce:	2300      	movs	r3, #0
 80034d0:	697a      	ldr	r2, [r7, #20]
 80034d2:	2103      	movs	r1, #3
 80034d4:	400a      	ands	r2, r1
 80034d6:	0092      	lsls	r2, r2, #2
 80034d8:	4093      	lsls	r3, r2
 80034da:	693a      	ldr	r2, [r7, #16]
 80034dc:	4313      	orrs	r3, r2
 80034de:	613b      	str	r3, [r7, #16]
        SYSCFG->EXTICR[position >> 2u] = temp;
 80034e0:	4935      	ldr	r1, [pc, #212]	@ (80035b8 <HAL_GPIO_Init+0x2cc>)
 80034e2:	697b      	ldr	r3, [r7, #20]
 80034e4:	089b      	lsrs	r3, r3, #2
 80034e6:	3302      	adds	r3, #2
 80034e8:	009b      	lsls	r3, r3, #2
 80034ea:	693a      	ldr	r2, [r7, #16]
 80034ec:	505a      	str	r2, [r3, r1]

        /* Clear Rising Falling edge configuration */
        temp = EXTI->RTSR;
 80034ee:	4b36      	ldr	r3, [pc, #216]	@ (80035c8 <HAL_GPIO_Init+0x2dc>)
 80034f0:	689b      	ldr	r3, [r3, #8]
 80034f2:	613b      	str	r3, [r7, #16]
        temp &= ~(iocurrent);
 80034f4:	68fb      	ldr	r3, [r7, #12]
 80034f6:	43da      	mvns	r2, r3
 80034f8:	693b      	ldr	r3, [r7, #16]
 80034fa:	4013      	ands	r3, r2
 80034fc:	613b      	str	r3, [r7, #16]
        if((GPIO_Init->Mode & TRIGGER_RISING) != 0x00u)
 80034fe:	683b      	ldr	r3, [r7, #0]
 8003500:	685a      	ldr	r2, [r3, #4]
 8003502:	2380      	movs	r3, #128	@ 0x80
 8003504:	035b      	lsls	r3, r3, #13
 8003506:	4013      	ands	r3, r2
 8003508:	d003      	beq.n	8003512 <HAL_GPIO_Init+0x226>
        {
          temp |= iocurrent;
 800350a:	693a      	ldr	r2, [r7, #16]
 800350c:	68fb      	ldr	r3, [r7, #12]
 800350e:	4313      	orrs	r3, r2
 8003510:	613b      	str	r3, [r7, #16]
        }
        EXTI->RTSR = temp;
 8003512:	4b2d      	ldr	r3, [pc, #180]	@ (80035c8 <HAL_GPIO_Init+0x2dc>)
 8003514:	693a      	ldr	r2, [r7, #16]
 8003516:	609a      	str	r2, [r3, #8]

        temp = EXTI->FTSR;
 8003518:	4b2b      	ldr	r3, [pc, #172]	@ (80035c8 <HAL_GPIO_Init+0x2dc>)
 800351a:	68db      	ldr	r3, [r3, #12]
 800351c:	613b      	str	r3, [r7, #16]
        temp &= ~(iocurrent);
 800351e:	68fb      	ldr	r3, [r7, #12]
 8003520:	43da      	mvns	r2, r3
 8003522:	693b      	ldr	r3, [r7, #16]
 8003524:	4013      	ands	r3, r2
 8003526:	613b      	str	r3, [r7, #16]
        if((GPIO_Init->Mode & TRIGGER_FALLING) != 0x00u)
 8003528:	683b      	ldr	r3, [r7, #0]
 800352a:	685a      	ldr	r2, [r3, #4]
 800352c:	2380      	movs	r3, #128	@ 0x80
 800352e:	039b      	lsls	r3, r3, #14
 8003530:	4013      	ands	r3, r2
 8003532:	d003      	beq.n	800353c <HAL_GPIO_Init+0x250>
        {
          temp |= iocurrent;
 8003534:	693a      	ldr	r2, [r7, #16]
 8003536:	68fb      	ldr	r3, [r7, #12]
 8003538:	4313      	orrs	r3, r2
 800353a:	613b      	str	r3, [r7, #16]
        }
        EXTI->FTSR = temp;
 800353c:	4b22      	ldr	r3, [pc, #136]	@ (80035c8 <HAL_GPIO_Init+0x2dc>)
 800353e:	693a      	ldr	r2, [r7, #16]
 8003540:	60da      	str	r2, [r3, #12]

        /* Clear EXTI line configuration */
        temp = EXTI->EMR;
 8003542:	4b21      	ldr	r3, [pc, #132]	@ (80035c8 <HAL_GPIO_Init+0x2dc>)
 8003544:	685b      	ldr	r3, [r3, #4]
 8003546:	613b      	str	r3, [r7, #16]
        temp &= ~(iocurrent);
 8003548:	68fb      	ldr	r3, [r7, #12]
 800354a:	43da      	mvns	r2, r3
 800354c:	693b      	ldr	r3, [r7, #16]
 800354e:	4013      	ands	r3, r2
 8003550:	613b      	str	r3, [r7, #16]
        if((GPIO_Init->Mode & EXTI_EVT) != 0x00u)
 8003552:	683b      	ldr	r3, [r7, #0]
 8003554:	685a      	ldr	r2, [r3, #4]
 8003556:	2380      	movs	r3, #128	@ 0x80
 8003558:	029b      	lsls	r3, r3, #10
 800355a:	4013      	ands	r3, r2
 800355c:	d003      	beq.n	8003566 <HAL_GPIO_Init+0x27a>
        {
          temp |= iocurrent;
 800355e:	693a      	ldr	r2, [r7, #16]
 8003560:	68fb      	ldr	r3, [r7, #12]
 8003562:	4313      	orrs	r3, r2
 8003564:	613b      	str	r3, [r7, #16]
        }
        EXTI->EMR = temp;
 8003566:	4b18      	ldr	r3, [pc, #96]	@ (80035c8 <HAL_GPIO_Init+0x2dc>)
 8003568:	693a      	ldr	r2, [r7, #16]
 800356a:	605a      	str	r2, [r3, #4]

        temp = EXTI->IMR;
 800356c:	4b16      	ldr	r3, [pc, #88]	@ (80035c8 <HAL_GPIO_Init+0x2dc>)
 800356e:	681b      	ldr	r3, [r3, #0]
 8003570:	613b      	str	r3, [r7, #16]
        temp &= ~(iocurrent);
 8003572:	68fb      	ldr	r3, [r7, #12]
 8003574:	43da      	mvns	r2, r3
 8003576:	693b      	ldr	r3, [r7, #16]
 8003578:	4013      	ands	r3, r2
 800357a:	613b      	str	r3, [r7, #16]
        if((GPIO_Init->Mode & EXTI_IT) != 0x00u)
 800357c:	683b      	ldr	r3, [r7, #0]
 800357e:	685a      	ldr	r2, [r3, #4]
 8003580:	2380      	movs	r3, #128	@ 0x80
 8003582:	025b      	lsls	r3, r3, #9
 8003584:	4013      	ands	r3, r2
 8003586:	d003      	beq.n	8003590 <HAL_GPIO_Init+0x2a4>
        {
          temp |= iocurrent;
 8003588:	693a      	ldr	r2, [r7, #16]
 800358a:	68fb      	ldr	r3, [r7, #12]
 800358c:	4313      	orrs	r3, r2
 800358e:	613b      	str	r3, [r7, #16]
        }
        EXTI->IMR = temp;
 8003590:	4b0d      	ldr	r3, [pc, #52]	@ (80035c8 <HAL_GPIO_Init+0x2dc>)
 8003592:	693a      	ldr	r2, [r7, #16]
 8003594:	601a      	str	r2, [r3, #0]
      }
    }

    position++;
 8003596:	697b      	ldr	r3, [r7, #20]
 8003598:	3301      	adds	r3, #1
 800359a:	617b      	str	r3, [r7, #20]
  while (((GPIO_Init->Pin) >> position) != 0x00u)
 800359c:	683b      	ldr	r3, [r7, #0]
 800359e:	681a      	ldr	r2, [r3, #0]
 80035a0:	697b      	ldr	r3, [r7, #20]
 80035a2:	40da      	lsrs	r2, r3
 80035a4:	1e13      	subs	r3, r2, #0
 80035a6:	d000      	beq.n	80035aa <HAL_GPIO_Init+0x2be>
 80035a8:	e6a8      	b.n	80032fc <HAL_GPIO_Init+0x10>
  } 
}
 80035aa:	46c0      	nop			@ (mov r8, r8)
 80035ac:	46c0      	nop			@ (mov r8, r8)
 80035ae:	46bd      	mov	sp, r7
 80035b0:	b006      	add	sp, #24
 80035b2:	bd80      	pop	{r7, pc}
 80035b4:	40021000 	.word	0x40021000
 80035b8:	40010000 	.word	0x40010000
 80035bc:	48000400 	.word	0x48000400
 80035c0:	48000800 	.word	0x48000800
 80035c4:	48000c00 	.word	0x48000c00
 80035c8:	40010400 	.word	0x40010400

080035cc <HAL_GPIO_WritePin>:
  *            @arg GPIO_PIN_RESET: to clear the port pin
  *            @arg GPIO_PIN_SET: to set the port pin
  * @retval None
  */
void HAL_GPIO_WritePin(GPIO_TypeDef* GPIOx, uint16_t GPIO_Pin, GPIO_PinState PinState)
{
 80035cc:	b580      	push	{r7, lr}
 80035ce:	b082      	sub	sp, #8
 80035d0:	af00      	add	r7, sp, #0
 80035d2:	6078      	str	r0, [r7, #4]
 80035d4:	0008      	movs	r0, r1
 80035d6:	0011      	movs	r1, r2
 80035d8:	1cbb      	adds	r3, r7, #2
 80035da:	1c02      	adds	r2, r0, #0
 80035dc:	801a      	strh	r2, [r3, #0]
 80035de:	1c7b      	adds	r3, r7, #1
 80035e0:	1c0a      	adds	r2, r1, #0
 80035e2:	701a      	strb	r2, [r3, #0]
  /* Check the parameters */
  assert_param(IS_GPIO_PIN(GPIO_Pin));
  assert_param(IS_GPIO_PIN_ACTION(PinState));

  if (PinState != GPIO_PIN_RESET)
 80035e4:	1c7b      	adds	r3, r7, #1
 80035e6:	781b      	ldrb	r3, [r3, #0]
 80035e8:	2b00      	cmp	r3, #0
 80035ea:	d004      	beq.n	80035f6 <HAL_GPIO_WritePin+0x2a>
  {
    GPIOx->BSRR = (uint32_t)GPIO_Pin;
 80035ec:	1cbb      	adds	r3, r7, #2
 80035ee:	881a      	ldrh	r2, [r3, #0]
 80035f0:	687b      	ldr	r3, [r7, #4]
 80035f2:	619a      	str	r2, [r3, #24]
  }
  else
  {
    GPIOx->BRR = (uint32_t)GPIO_Pin;
  }
}
 80035f4:	e003      	b.n	80035fe <HAL_GPIO_WritePin+0x32>
    GPIOx->BRR = (uint32_t)GPIO_Pin;
 80035f6:	1cbb      	adds	r3, r7, #2
 80035f8:	881a      	ldrh	r2, [r3, #0]
 80035fa:	687b      	ldr	r3, [r7, #4]
 80035fc:	629a      	str	r2, [r3, #40]	@ 0x28
}
 80035fe:	46c0      	nop			@ (mov r8, r8)
 8003600:	46bd      	mov	sp, r7
 8003602:	b002      	add	sp, #8
 8003604:	bd80      	pop	{r7, pc}

08003606 <HAL_GPIO_TogglePin>:
  * @param  GPIOx where x can be (A..F) to select the GPIO peripheral for STM32F0 family
  * @param  GPIO_Pin specifies the pin to be toggled.
  * @retval None
  */
void HAL_GPIO_TogglePin(GPIO_TypeDef* GPIOx, uint16_t GPIO_Pin)
{
 8003606:	b580      	push	{r7, lr}
 8003608:	b084      	sub	sp, #16
 800360a:	af00      	add	r7, sp, #0
 800360c:	6078      	str	r0, [r7, #4]
 800360e:	000a      	movs	r2, r1
 8003610:	1cbb      	adds	r3, r7, #2
 8003612:	801a      	strh	r2, [r3, #0]

  /* Check the parameters */
  assert_param(IS_GPIO_PIN(GPIO_Pin));

  /* get current Output Data Register value */
  odr = GPIOx->ODR;
 8003614:	687b      	ldr	r3, [r7, #4]
 8003616:	695b      	ldr	r3, [r3, #20]
 8003618:	60fb      	str	r3, [r7, #12]

  /* Set selected pins that were at low level, and reset ones that were high */
  GPIOx->BSRR = ((odr & GPIO_Pin) << GPIO_NUMBER) | (~odr & GPIO_Pin);
 800361a:	1cbb      	adds	r3, r7, #2
 800361c:	881b      	ldrh	r3, [r3, #0]
 800361e:	68fa      	ldr	r2, [r7, #12]
 8003620:	4013      	ands	r3, r2
 8003622:	041a      	lsls	r2, r3, #16
 8003624:	68fb      	ldr	r3, [r7, #12]
 8003626:	43db      	mvns	r3, r3
 8003628:	1cb9      	adds	r1, r7, #2
 800362a:	8809      	ldrh	r1, [r1, #0]
 800362c:	400b      	ands	r3, r1
 800362e:	431a      	orrs	r2, r3
 8003630:	687b      	ldr	r3, [r7, #4]
 8003632:	619a      	str	r2, [r3, #24]
}
 8003634:	46c0      	nop			@ (mov r8, r8)
 8003636:	46bd      	mov	sp, r7
 8003638:	b004      	add	sp, #16
 800363a:	bd80      	pop	{r7, pc}

0800363c <HAL_RCC_OscConfig>:
  *         supported by this macro. User should request a transition to HSE Off
  *         first and then HSE On or HSE Bypass.
  * @retval HAL status
  */
HAL_StatusTypeDef HAL_RCC_OscConfig(RCC_OscInitTypeDef  *RCC_OscInitStruct)
{
 800363c:	b580      	push	{r7, lr}
 800363e:	b088      	sub	sp, #32
 8003640:	af00      	add	r7, sp, #0
 8003642:	6078      	str	r0, [r7, #4]
  uint32_t tickstart;
  uint32_t pll_config;
  uint32_t pll_config2;

  /* Check Null pointer */
  if(RCC_OscInitStruct == NULL)
 8003644:	687b      	ldr	r3, [r7, #4]
 8003646:	2b00      	cmp	r3, #0
 8003648:	d101      	bne.n	800364e <HAL_RCC_OscConfig+0x12>
  {
    return HAL_ERROR;
 800364a:	2301      	movs	r3, #1
 800364c:	e301      	b.n	8003c52 <HAL_RCC_OscConfig+0x616>

  /* Check the parameters */
  assert_param(IS_RCC_OSCILLATORTYPE(RCC_OscInitStruct->OscillatorType));

  /*------------------------------- HSE Configuration ------------------------*/ 
  if(((RCC_OscInitStruct->OscillatorType) & RCC_OSCILLATORTYPE_HSE) == RCC_OSCILLATORTYPE_HSE)
 800364e:	687b      	ldr	r3, [r7, #4]
 8003650:	681b      	ldr	r3, [r3, #0]
 8003652:	2201      	movs	r2, #1
 8003654:	4013      	ands	r3, r2
 8003656:	d100      	bne.n	800365a <HAL_RCC_OscConfig+0x1e>
 8003658:	e08d      	b.n	8003776 <HAL_RCC_OscConfig+0x13a>
  {
    /* Check the parameters */
    assert_param(IS_RCC_HSE(RCC_OscInitStruct->HSEState));

    /* When the HSE is used as system clock or clock source for PLL in these cases it is not allowed to be disabled */
    if((__HAL_RCC_GET_SYSCLK_SOURCE() == RCC_SYSCLKSOURCE_STATUS_HSE) 
 800365a:	4bc3      	ldr	r3, [pc, #780]	@ (8003968 <HAL_RCC_OscConfig+0x32c>)
 800365c:	685b      	ldr	r3, [r3, #4]
 800365e:	220c      	movs	r2, #12
 8003660:	4013      	ands	r3, r2
 8003662:	2b04      	cmp	r3, #4
 8003664:	d00e      	beq.n	8003684 <HAL_RCC_OscConfig+0x48>
       || ((__HAL_RCC_GET_SYSCLK_SOURCE() == RCC_SYSCLKSOURCE_STATUS_PLLCLK) && (__HAL_RCC_GET_PLL_OSCSOURCE() == RCC_PLLSOURCE_HSE)))
 8003666:	4bc0      	ldr	r3, [pc, #768]	@ (8003968 <HAL_RCC_OscConfig+0x32c>)
 8003668:	685b      	ldr	r3, [r3, #4]
 800366a:	220c      	movs	r2, #12
 800366c:	4013      	ands	r3, r2
 800366e:	2b08      	cmp	r3, #8
 8003670:	d116      	bne.n	80036a0 <HAL_RCC_OscConfig+0x64>
 8003672:	4bbd      	ldr	r3, [pc, #756]	@ (8003968 <HAL_RCC_OscConfig+0x32c>)
 8003674:	685a      	ldr	r2, [r3, #4]
 8003676:	2380      	movs	r3, #128	@ 0x80
 8003678:	025b      	lsls	r3, r3, #9
 800367a:	401a      	ands	r2, r3
 800367c:	2380      	movs	r3, #128	@ 0x80
 800367e:	025b      	lsls	r3, r3, #9
 8003680:	429a      	cmp	r2, r3
 8003682:	d10d      	bne.n	80036a0 <HAL_RCC_OscConfig+0x64>
    {
      if((__HAL_RCC_GET_FLAG(RCC_FLAG_HSERDY) != RESET) && (RCC_OscInitStruct->HSEState == RCC_HSE_OFF))
 8003684:	4bb8      	ldr	r3, [pc, #736]	@ (8003968 <HAL_RCC_OscConfig+0x32c>)
 8003686:	681a      	ldr	r2, [r3, #0]
 8003688:	2380      	movs	r3, #128	@ 0x80
 800368a:	029b      	lsls	r3, r3, #10
 800368c:	4013      	ands	r3, r2
 800368e:	d100      	bne.n	8003692 <HAL_RCC_OscConfig+0x56>
 8003690:	e070      	b.n	8003774 <HAL_RCC_OscConfig+0x138>
 8003692:	687b      	ldr	r3, [r7, #4]
 8003694:	685b      	ldr	r3, [r3, #4]
 8003696:	2b00      	cmp	r3, #0
 8003698:	d000      	beq.n	800369c <HAL_RCC_OscConfig+0x60>
 800369a:	e06b      	b.n	8003774 <HAL_RCC_OscConfig+0x138>
      {
        return HAL_ERROR;
 800369c:	2301      	movs	r3, #1
 800369e:	e2d8      	b.n	8003c52 <HAL_RCC_OscConfig+0x616>
      }
    }
    else
    {
      /* Set the new HSE configuration ---------------------------------------*/
      __HAL_RCC_HSE_CONFIG(RCC_OscInitStruct->HSEState);
 80036a0:	687b      	ldr	r3, [r7, #4]
 80036a2:	685b      	ldr	r3, [r3, #4]
 80036a4:	2b01      	cmp	r3, #1
 80036a6:	d107      	bne.n	80036b8 <HAL_RCC_OscConfig+0x7c>
 80036a8:	4baf      	ldr	r3, [pc, #700]	@ (8003968 <HAL_RCC_OscConfig+0x32c>)
 80036aa:	681a      	ldr	r2, [r3, #0]
 80036ac:	4bae      	ldr	r3, [pc, #696]	@ (8003968 <HAL_RCC_OscConfig+0x32c>)
 80036ae:	2180      	movs	r1, #128	@ 0x80
 80036b0:	0249      	lsls	r1, r1, #9
 80036b2:	430a      	orrs	r2, r1
 80036b4:	601a      	str	r2, [r3, #0]
 80036b6:	e02f      	b.n	8003718 <HAL_RCC_OscConfig+0xdc>
 80036b8:	687b      	ldr	r3, [r7, #4]
 80036ba:	685b      	ldr	r3, [r3, #4]
 80036bc:	2b00      	cmp	r3, #0
 80036be:	d10c      	bne.n	80036da <HAL_RCC_OscConfig+0x9e>
 80036c0:	4ba9      	ldr	r3, [pc, #676]	@ (8003968 <HAL_RCC_OscConfig+0x32c>)
 80036c2:	681a      	ldr	r2, [r3, #0]
 80036c4:	4ba8      	ldr	r3, [pc, #672]	@ (8003968 <HAL_RCC_OscConfig+0x32c>)
 80036c6:	49a9      	ldr	r1, [pc, #676]	@ (800396c <HAL_RCC_OscConfig+0x330>)
 80036c8:	400a      	ands	r2, r1
 80036ca:	601a      	str	r2, [r3, #0]
 80036cc:	4ba6      	ldr	r3, [pc, #664]	@ (8003968 <HAL_RCC_OscConfig+0x32c>)
 80036ce:	681a      	ldr	r2, [r3, #0]
 80036d0:	4ba5      	ldr	r3, [pc, #660]	@ (8003968 <HAL_RCC_OscConfig+0x32c>)
 80036d2:	49a7      	ldr	r1, [pc, #668]	@ (8003970 <HAL_RCC_OscConfig+0x334>)
 80036d4:	400a      	ands	r2, r1
 80036d6:	601a      	str	r2, [r3, #0]
 80036d8:	e01e      	b.n	8003718 <HAL_RCC_OscConfig+0xdc>
 80036da:	687b      	ldr	r3, [r7, #4]
 80036dc:	685b      	ldr	r3, [r3, #4]
 80036de:	2b05      	cmp	r3, #5
 80036e0:	d10e      	bne.n	8003700 <HAL_RCC_OscConfig+0xc4>
 80036e2:	4ba1      	ldr	r3, [pc, #644]	@ (8003968 <HAL_RCC_OscConfig+0x32c>)
 80036e4:	681a      	ldr	r2, [r3, #0]
 80036e6:	4ba0      	ldr	r3, [pc, #640]	@ (8003968 <HAL_RCC_OscConfig+0x32c>)
 80036e8:	2180      	movs	r1, #128	@ 0x80
 80036ea:	02c9      	lsls	r1, r1, #11
 80036ec:	430a      	orrs	r2, r1
 80036ee:	601a      	str	r2, [r3, #0]
 80036f0:	4b9d      	ldr	r3, [pc, #628]	@ (8003968 <HAL_RCC_OscConfig+0x32c>)
 80036f2:	681a      	ldr	r2, [r3, #0]
 80036f4:	4b9c      	ldr	r3, [pc, #624]	@ (8003968 <HAL_RCC_OscConfig+0x32c>)
 80036f6:	2180      	movs	r1, #128	@ 0x80
 80036f8:	0249      	lsls	r1, r1, #9
 80036fa:	430a      	orrs	r2, r1
 80036fc:	601a      	str	r2, [r3, #0]
 80036fe:	e00b      	b.n	8003718 <HAL_RCC_OscConfig+0xdc>
 8003700:	4b99      	ldr	r3, [pc, #612]	@ (8003968 <HAL_RCC_OscConfig+0x32c>)
 8003702:	681a      	ldr	r2, [r3, #0]
 8003704:	4b98      	ldr	r3, [pc, #608]	@ (8003968 <HAL_RCC_OscConfig+0x32c>)
 8003706:	4999      	ldr	r1, [pc, #612]	@ (800396c <HAL_RCC_OscConfig+0x330>)
 8003708:	400a      	ands	r2, r1
 800370a:	601a      	str	r2, [r3, #0]
 800370c:	4b96      	ldr	r3, [pc, #600]	@ (8003968 <HAL_RCC_OscConfig+0x32c>)
 800370e:	681a      	ldr	r2, [r3, #0]
 8003710:	4b95      	ldr	r3, [pc, #596]	@ (8003968 <HAL_RCC_OscConfig+0x32c>)
 8003712:	4997      	ldr	r1, [pc, #604]	@ (8003970 <HAL_RCC_OscConfig+0x334>)
 8003714:	400a      	ands	r2, r1
 8003716:	601a      	str	r2, [r3, #0]
      

       /* Check the HSE State */
      if(RCC_OscInitStruct->HSEState != RCC_HSE_OFF)
 8003718:	687b      	ldr	r3, [r7, #4]
 800371a:	685b      	ldr	r3, [r3, #4]
 800371c:	2b00      	cmp	r3, #0
 800371e:	d014      	beq.n	800374a <HAL_RCC_OscConfig+0x10e>
      {
        /* Get Start Tick */
        tickstart = HAL_GetTick();
 8003720:	f7ff fca8 	bl	8003074 <HAL_GetTick>
 8003724:	0003      	movs	r3, r0
 8003726:	61bb      	str	r3, [r7, #24]
        
        /* Wait till HSE is ready */
        while(__HAL_RCC_GET_FLAG(RCC_FLAG_HSERDY) == RESET)
 8003728:	e008      	b.n	800373c <HAL_RCC_OscConfig+0x100>
        {
          if((HAL_GetTick() - tickstart ) > HSE_TIMEOUT_VALUE)
 800372a:	f7ff fca3 	bl	8003074 <HAL_GetTick>
 800372e:	0002      	movs	r2, r0
 8003730:	69bb      	ldr	r3, [r7, #24]
 8003732:	1ad3      	subs	r3, r2, r3
 8003734:	2b64      	cmp	r3, #100	@ 0x64
 8003736:	d901      	bls.n	800373c <HAL_RCC_OscConfig+0x100>
          {
            return HAL_TIMEOUT;
 8003738:	2303      	movs	r3, #3
 800373a:	e28a      	b.n	8003c52 <HAL_RCC_OscConfig+0x616>
        while(__HAL_RCC_GET_FLAG(RCC_FLAG_HSERDY) == RESET)
 800373c:	4b8a      	ldr	r3, [pc, #552]	@ (8003968 <HAL_RCC_OscConfig+0x32c>)
 800373e:	681a      	ldr	r2, [r3, #0]
 8003740:	2380      	movs	r3, #128	@ 0x80
 8003742:	029b      	lsls	r3, r3, #10
 8003744:	4013      	ands	r3, r2
 8003746:	d0f0      	beq.n	800372a <HAL_RCC_OscConfig+0xee>
 8003748:	e015      	b.n	8003776 <HAL_RCC_OscConfig+0x13a>
        }
      }
      else
      {
        /* Get Start Tick */
        tickstart = HAL_GetTick();
 800374a:	f7ff fc93 	bl	8003074 <HAL_GetTick>
 800374e:	0003      	movs	r3, r0
 8003750:	61bb      	str	r3, [r7, #24]
        
        /* Wait till HSE is disabled */
        while(__HAL_RCC_GET_FLAG(RCC_FLAG_HSERDY) != RESET)
 8003752:	e008      	b.n	8003766 <HAL_RCC_OscConfig+0x12a>
        {
           if((HAL_GetTick() - tickstart ) > HSE_TIMEOUT_VALUE)
 8003754:	f7ff fc8e 	bl	8003074 <HAL_GetTick>
 8003758:	0002      	movs	r2, r0
 800375a:	69bb      	ldr	r3, [r7, #24]
 800375c:	1ad3      	subs	r3, r2, r3
 800375e:	2b64      	cmp	r3, #100	@ 0x64
 8003760:	d901      	bls.n	8003766 <HAL_RCC_OscConfig+0x12a>
          {
            return HAL_TIMEOUT;
 8003762:	2303      	movs	r3, #3
 8003764:	e275      	b.n	8003c52 <HAL_RCC_OscConfig+0x616>
        while(__HAL_RCC_GET_FLAG(RCC_FLAG_HSERDY) != RESET)
 8003766:	4b80      	ldr	r3, [pc, #512]	@ (8003968 <HAL_RCC_OscConfig+0x32c>)
 8003768:	681a      	ldr	r2, [r3, #0]
 800376a:	2380      	movs	r3, #128	@ 0x80
 800376c:	029b      	lsls	r3, r3, #10
 800376e:	4013      	ands	r3, r2
 8003770:	d1f0      	bne.n	8003754 <HAL_RCC_OscConfig+0x118>
 8003772:	e000      	b.n	8003776 <HAL_RCC_OscConfig+0x13a>
      if((__HAL_RCC_GET_FLAG(RCC_FLAG_HSERDY) != RESET) && (RCC_OscInitStruct->HSEState == RCC_HSE_OFF))
 8003774:	46c0      	nop			@ (mov r8, r8)
        }
      }
    }
  }
  /*----------------------------- HSI Configuration --------------------------*/ 
  if(((RCC_OscInitStruct->OscillatorType) & RCC_OSCILLATORTYPE_HSI) == RCC_OSCILLATORTYPE_HSI)
 8003776:	687b      	ldr	r3, [r7, #4]
 8003778:	681b      	ldr	r3, [r3, #0]
 800377a:	2202      	movs	r2, #2
 800377c:	4013      	ands	r3, r2
 800377e:	d100      	bne.n	8003782 <HAL_RCC_OscConfig+0x146>
 8003780:	e069      	b.n	8003856 <HAL_RCC_OscConfig+0x21a>
    /* Check the parameters */
    assert_param(IS_RCC_HSI(RCC_OscInitStruct->HSIState));
    assert_param(IS_RCC_CALIBRATION_VALUE(RCC_OscInitStruct->HSICalibrationValue));
    
    /* Check if HSI is used as system clock or as PLL source when PLL is selected as system clock */ 
    if((__HAL_RCC_GET_SYSCLK_SOURCE() == RCC_SYSCLKSOURCE_STATUS_HSI) 
 8003782:	4b79      	ldr	r3, [pc, #484]	@ (8003968 <HAL_RCC_OscConfig+0x32c>)
 8003784:	685b      	ldr	r3, [r3, #4]
 8003786:	220c      	movs	r2, #12
 8003788:	4013      	ands	r3, r2
 800378a:	d00b      	beq.n	80037a4 <HAL_RCC_OscConfig+0x168>
       || ((__HAL_RCC_GET_SYSCLK_SOURCE() == RCC_SYSCLKSOURCE_STATUS_PLLCLK) && (__HAL_RCC_GET_PLL_OSCSOURCE() == RCC_PLLSOURCE_HSI)))
 800378c:	4b76      	ldr	r3, [pc, #472]	@ (8003968 <HAL_RCC_OscConfig+0x32c>)
 800378e:	685b      	ldr	r3, [r3, #4]
 8003790:	220c      	movs	r2, #12
 8003792:	4013      	ands	r3, r2
 8003794:	2b08      	cmp	r3, #8
 8003796:	d11c      	bne.n	80037d2 <HAL_RCC_OscConfig+0x196>
 8003798:	4b73      	ldr	r3, [pc, #460]	@ (8003968 <HAL_RCC_OscConfig+0x32c>)
 800379a:	685a      	ldr	r2, [r3, #4]
 800379c:	2380      	movs	r3, #128	@ 0x80
 800379e:	025b      	lsls	r3, r3, #9
 80037a0:	4013      	ands	r3, r2
 80037a2:	d116      	bne.n	80037d2 <HAL_RCC_OscConfig+0x196>
    {
      /* When HSI is used as system clock it will not disabled */
      if((__HAL_RCC_GET_FLAG(RCC_FLAG_HSIRDY) != RESET) && (RCC_OscInitStruct->HSIState != RCC_HSI_ON))
 80037a4:	4b70      	ldr	r3, [pc, #448]	@ (8003968 <HAL_RCC_OscConfig+0x32c>)
 80037a6:	681b      	ldr	r3, [r3, #0]
 80037a8:	2202      	movs	r2, #2
 80037aa:	4013      	ands	r3, r2
 80037ac:	d005      	beq.n	80037ba <HAL_RCC_OscConfig+0x17e>
 80037ae:	687b      	ldr	r3, [r7, #4]
 80037b0:	68db      	ldr	r3, [r3, #12]
 80037b2:	2b01      	cmp	r3, #1
 80037b4:	d001      	beq.n	80037ba <HAL_RCC_OscConfig+0x17e>
      {
        return HAL_ERROR;
 80037b6:	2301      	movs	r3, #1
 80037b8:	e24b      	b.n	8003c52 <HAL_RCC_OscConfig+0x616>
      }
      /* Otherwise, just the calibration is allowed */
      else
      {
        /* Adjusts the Internal High Speed oscillator (HSI) calibration value.*/
        __HAL_RCC_HSI_CALIBRATIONVALUE_ADJUST(RCC_OscInitStruct->HSICalibrationValue);
 80037ba:	4b6b      	ldr	r3, [pc, #428]	@ (8003968 <HAL_RCC_OscConfig+0x32c>)
 80037bc:	681b      	ldr	r3, [r3, #0]
 80037be:	22f8      	movs	r2, #248	@ 0xf8
 80037c0:	4393      	bics	r3, r2
 80037c2:	0019      	movs	r1, r3
 80037c4:	687b      	ldr	r3, [r7, #4]
 80037c6:	691b      	ldr	r3, [r3, #16]
 80037c8:	00da      	lsls	r2, r3, #3
 80037ca:	4b67      	ldr	r3, [pc, #412]	@ (8003968 <HAL_RCC_OscConfig+0x32c>)
 80037cc:	430a      	orrs	r2, r1
 80037ce:	601a      	str	r2, [r3, #0]
      if((__HAL_RCC_GET_FLAG(RCC_FLAG_HSIRDY) != RESET) && (RCC_OscInitStruct->HSIState != RCC_HSI_ON))
 80037d0:	e041      	b.n	8003856 <HAL_RCC_OscConfig+0x21a>
      }
    }
    else
    {
      /* Check the HSI State */
      if(RCC_OscInitStruct->HSIState != RCC_HSI_OFF)
 80037d2:	687b      	ldr	r3, [r7, #4]
 80037d4:	68db      	ldr	r3, [r3, #12]
 80037d6:	2b00      	cmp	r3, #0
 80037d8:	d024      	beq.n	8003824 <HAL_RCC_OscConfig+0x1e8>
      {
       /* Enable the Internal High Speed oscillator (HSI). */
        __HAL_RCC_HSI_ENABLE();
 80037da:	4b63      	ldr	r3, [pc, #396]	@ (8003968 <HAL_RCC_OscConfig+0x32c>)
 80037dc:	681a      	ldr	r2, [r3, #0]
 80037de:	4b62      	ldr	r3, [pc, #392]	@ (8003968 <HAL_RCC_OscConfig+0x32c>)
 80037e0:	2101      	movs	r1, #1
 80037e2:	430a      	orrs	r2, r1
 80037e4:	601a      	str	r2, [r3, #0]
        
        /* Get Start Tick */
        tickstart = HAL_GetTick();
 80037e6:	f7ff fc45 	bl	8003074 <HAL_GetTick>
 80037ea:	0003      	movs	r3, r0
 80037ec:	61bb      	str	r3, [r7, #24]
        
        /* Wait till HSI is ready */
        while(__HAL_RCC_GET_FLAG(RCC_FLAG_HSIRDY) == RESET)
 80037ee:	e008      	b.n	8003802 <HAL_RCC_OscConfig+0x1c6>
        {
          if((HAL_GetTick() - tickstart ) > HSI_TIMEOUT_VALUE)
 80037f0:	f7ff fc40 	bl	8003074 <HAL_GetTick>
 80037f4:	0002      	movs	r2, r0
 80037f6:	69bb      	ldr	r3, [r7, #24]
 80037f8:	1ad3      	subs	r3, r2, r3
 80037fa:	2b02      	cmp	r3, #2
 80037fc:	d901      	bls.n	8003802 <HAL_RCC_OscConfig+0x1c6>
          {
            return HAL_TIMEOUT;
 80037fe:	2303      	movs	r3, #3
 8003800:	e227      	b.n	8003c52 <HAL_RCC_OscConfig+0x616>
        while(__HAL_RCC_GET_FLAG(RCC_FLAG_HSIRDY) == RESET)
 8003802:	4b59      	ldr	r3, [pc, #356]	@ (8003968 <HAL_RCC_OscConfig+0x32c>)
 8003804:	681b      	ldr	r3, [r3, #0]
 8003806:	2202      	movs	r2, #2
 8003808:	4013      	ands	r3, r2
 800380a:	d0f1      	beq.n	80037f0 <HAL_RCC_OscConfig+0x1b4>
          }
        }
                
        /* Adjusts the Internal High Speed oscillator (HSI) calibration value.*/
        __HAL_RCC_HSI_CALIBRATIONVALUE_ADJUST(RCC_OscInitStruct->HSICalibrationValue);
 800380c:	4b56      	ldr	r3, [pc, #344]	@ (8003968 <HAL_RCC_OscConfig+0x32c>)
 800380e:	681b      	ldr	r3, [r3, #0]
 8003810:	22f8      	movs	r2, #248	@ 0xf8
 8003812:	4393      	bics	r3, r2
 8003814:	0019      	movs	r1, r3
 8003816:	687b      	ldr	r3, [r7, #4]
 8003818:	691b      	ldr	r3, [r3, #16]
 800381a:	00da      	lsls	r2, r3, #3
 800381c:	4b52      	ldr	r3, [pc, #328]	@ (8003968 <HAL_RCC_OscConfig+0x32c>)
 800381e:	430a      	orrs	r2, r1
 8003820:	601a      	str	r2, [r3, #0]
 8003822:	e018      	b.n	8003856 <HAL_RCC_OscConfig+0x21a>
      }
      else
      {
        /* Disable the Internal High Speed oscillator (HSI). */
        __HAL_RCC_HSI_DISABLE();
 8003824:	4b50      	ldr	r3, [pc, #320]	@ (8003968 <HAL_RCC_OscConfig+0x32c>)
 8003826:	681a      	ldr	r2, [r3, #0]
 8003828:	4b4f      	ldr	r3, [pc, #316]	@ (8003968 <HAL_RCC_OscConfig+0x32c>)
 800382a:	2101      	movs	r1, #1
 800382c:	438a      	bics	r2, r1
 800382e:	601a      	str	r2, [r3, #0]
        
        /* Get Start Tick */
        tickstart = HAL_GetTick();
 8003830:	f7ff fc20 	bl	8003074 <HAL_GetTick>
 8003834:	0003      	movs	r3, r0
 8003836:	61bb      	str	r3, [r7, #24]
        
        /* Wait till HSI is disabled */
        while(__HAL_RCC_GET_FLAG(RCC_FLAG_HSIRDY) != RESET)
 8003838:	e008      	b.n	800384c <HAL_RCC_OscConfig+0x210>
        {
          if((HAL_GetTick() - tickstart ) > HSI_TIMEOUT_VALUE)
 800383a:	f7ff fc1b 	bl	8003074 <HAL_GetTick>
 800383e:	0002      	movs	r2, r0
 8003840:	69bb      	ldr	r3, [r7, #24]
 8003842:	1ad3      	subs	r3, r2, r3
 8003844:	2b02      	cmp	r3, #2
 8003846:	d901      	bls.n	800384c <HAL_RCC_OscConfig+0x210>
          {
            return HAL_TIMEOUT;
 8003848:	2303      	movs	r3, #3
 800384a:	e202      	b.n	8003c52 <HAL_RCC_OscConfig+0x616>
        while(__HAL_RCC_GET_FLAG(RCC_FLAG_HSIRDY) != RESET)
 800384c:	4b46      	ldr	r3, [pc, #280]	@ (8003968 <HAL_RCC_OscConfig+0x32c>)
 800384e:	681b      	ldr	r3, [r3, #0]
 8003850:	2202      	movs	r2, #2
 8003852:	4013      	ands	r3, r2
 8003854:	d1f1      	bne.n	800383a <HAL_RCC_OscConfig+0x1fe>
        }
      }
    }
  }
  /*------------------------------ LSI Configuration -------------------------*/ 
  if(((RCC_OscInitStruct->OscillatorType) & RCC_OSCILLATORTYPE_LSI) == RCC_OSCILLATORTYPE_LSI)
 8003856:	687b      	ldr	r3, [r7, #4]
 8003858:	681b      	ldr	r3, [r3, #0]
 800385a:	2208      	movs	r2, #8
 800385c:	4013      	ands	r3, r2
 800385e:	d036      	beq.n	80038ce <HAL_RCC_OscConfig+0x292>
  {
    /* Check the parameters */
    assert_param(IS_RCC_LSI(RCC_OscInitStruct->LSIState));
    
    /* Check the LSI State */
    if(RCC_OscInitStruct->LSIState != RCC_LSI_OFF)
 8003860:	687b      	ldr	r3, [r7, #4]
 8003862:	69db      	ldr	r3, [r3, #28]
 8003864:	2b00      	cmp	r3, #0
 8003866:	d019      	beq.n	800389c <HAL_RCC_OscConfig+0x260>
    {
      /* Enable the Internal Low Speed oscillator (LSI). */
      __HAL_RCC_LSI_ENABLE();
 8003868:	4b3f      	ldr	r3, [pc, #252]	@ (8003968 <HAL_RCC_OscConfig+0x32c>)
 800386a:	6a5a      	ldr	r2, [r3, #36]	@ 0x24
 800386c:	4b3e      	ldr	r3, [pc, #248]	@ (8003968 <HAL_RCC_OscConfig+0x32c>)
 800386e:	2101      	movs	r1, #1
 8003870:	430a      	orrs	r2, r1
 8003872:	625a      	str	r2, [r3, #36]	@ 0x24
      
      /* Get Start Tick */
      tickstart = HAL_GetTick();
 8003874:	f7ff fbfe 	bl	8003074 <HAL_GetTick>
 8003878:	0003      	movs	r3, r0
 800387a:	61bb      	str	r3, [r7, #24]
      
      /* Wait till LSI is ready */  
      while(__HAL_RCC_GET_FLAG(RCC_FLAG_LSIRDY) == RESET)
 800387c:	e008      	b.n	8003890 <HAL_RCC_OscConfig+0x254>
      {
        if((HAL_GetTick() - tickstart ) > LSI_TIMEOUT_VALUE)
 800387e:	f7ff fbf9 	bl	8003074 <HAL_GetTick>
 8003882:	0002      	movs	r2, r0
 8003884:	69bb      	ldr	r3, [r7, #24]
 8003886:	1ad3      	subs	r3, r2, r3
 8003888:	2b02      	cmp	r3, #2
 800388a:	d901      	bls.n	8003890 <HAL_RCC_OscConfig+0x254>
        {
          return HAL_TIMEOUT;
 800388c:	2303      	movs	r3, #3
 800388e:	e1e0      	b.n	8003c52 <HAL_RCC_OscConfig+0x616>
      while(__HAL_RCC_GET_FLAG(RCC_FLAG_LSIRDY) == RESET)
 8003890:	4b35      	ldr	r3, [pc, #212]	@ (8003968 <HAL_RCC_OscConfig+0x32c>)
 8003892:	6a5b      	ldr	r3, [r3, #36]	@ 0x24
 8003894:	2202      	movs	r2, #2
 8003896:	4013      	ands	r3, r2
 8003898:	d0f1      	beq.n	800387e <HAL_RCC_OscConfig+0x242>
 800389a:	e018      	b.n	80038ce <HAL_RCC_OscConfig+0x292>
      }
    }
    else
    {
      /* Disable the Internal Low Speed oscillator (LSI). */
      __HAL_RCC_LSI_DISABLE();
 800389c:	4b32      	ldr	r3, [pc, #200]	@ (8003968 <HAL_RCC_OscConfig+0x32c>)
 800389e:	6a5a      	ldr	r2, [r3, #36]	@ 0x24
 80038a0:	4b31      	ldr	r3, [pc, #196]	@ (8003968 <HAL_RCC_OscConfig+0x32c>)
 80038a2:	2101      	movs	r1, #1
 80038a4:	438a      	bics	r2, r1
 80038a6:	625a      	str	r2, [r3, #36]	@ 0x24
      
      /* Get Start Tick */
      tickstart = HAL_GetTick();
 80038a8:	f7ff fbe4 	bl	8003074 <HAL_GetTick>
 80038ac:	0003      	movs	r3, r0
 80038ae:	61bb      	str	r3, [r7, #24]
      
      /* Wait till LSI is disabled */  
      while(__HAL_RCC_GET_FLAG(RCC_FLAG_LSIRDY) != RESET)
 80038b0:	e008      	b.n	80038c4 <HAL_RCC_OscConfig+0x288>
      {
        if((HAL_GetTick() - tickstart ) > LSI_TIMEOUT_VALUE)
 80038b2:	f7ff fbdf 	bl	8003074 <HAL_GetTick>
 80038b6:	0002      	movs	r2, r0
 80038b8:	69bb      	ldr	r3, [r7, #24]
 80038ba:	1ad3      	subs	r3, r2, r3
 80038bc:	2b02      	cmp	r3, #2
 80038be:	d901      	bls.n	80038c4 <HAL_RCC_OscConfig+0x288>
        {
          return HAL_TIMEOUT;
 80038c0:	2303      	movs	r3, #3
 80038c2:	e1c6      	b.n	8003c52 <HAL_RCC_OscConfig+0x616>
      while(__HAL_RCC_GET_FLAG(RCC_FLAG_LSIRDY) != RESET)
 80038c4:	4b28      	ldr	r3, [pc, #160]	@ (8003968 <HAL_RCC_OscConfig+0x32c>)
 80038c6:	6a5b      	ldr	r3, [r3, #36]	@ 0x24
 80038c8:	2202      	movs	r2, #2
 80038ca:	4013      	ands	r3, r2
 80038cc:	d1f1      	bne.n	80038b2 <HAL_RCC_OscConfig+0x276>
        }
      }
    }
  }
  /*------------------------------ LSE Configuration -------------------------*/ 
  if(((RCC_OscInitStruct->OscillatorType) & RCC_OSCILLATORTYPE_LSE) == RCC_OSCILLATORTYPE_LSE)
 80038ce:	687b      	ldr	r3, [r7, #4]
 80038d0:	681b      	ldr	r3, [r3, #0]
 80038d2:	2204      	movs	r2, #4
 80038d4:	4013      	ands	r3, r2
 80038d6:	d100      	bne.n	80038da <HAL_RCC_OscConfig+0x29e>
 80038d8:	e0b4      	b.n	8003a44 <HAL_RCC_OscConfig+0x408>
  {
    FlagStatus       pwrclkchanged = RESET;
 80038da:	201f      	movs	r0, #31
 80038dc:	183b      	adds	r3, r7, r0
 80038de:	2200      	movs	r2, #0
 80038e0:	701a      	strb	r2, [r3, #0]
    /* Check the parameters */
    assert_param(IS_RCC_LSE(RCC_OscInitStruct->LSEState));

    /* Update LSE configuration in Backup Domain control register    */
    /* Requires to enable write access to Backup Domain of necessary */
    if(__HAL_RCC_PWR_IS_CLK_DISABLED())
 80038e2:	4b21      	ldr	r3, [pc, #132]	@ (8003968 <HAL_RCC_OscConfig+0x32c>)
 80038e4:	69da      	ldr	r2, [r3, #28]
 80038e6:	2380      	movs	r3, #128	@ 0x80
 80038e8:	055b      	lsls	r3, r3, #21
 80038ea:	4013      	ands	r3, r2
 80038ec:	d110      	bne.n	8003910 <HAL_RCC_OscConfig+0x2d4>
    {
      __HAL_RCC_PWR_CLK_ENABLE();
 80038ee:	4b1e      	ldr	r3, [pc, #120]	@ (8003968 <HAL_RCC_OscConfig+0x32c>)
 80038f0:	69da      	ldr	r2, [r3, #28]
 80038f2:	4b1d      	ldr	r3, [pc, #116]	@ (8003968 <HAL_RCC_OscConfig+0x32c>)
 80038f4:	2180      	movs	r1, #128	@ 0x80
 80038f6:	0549      	lsls	r1, r1, #21
 80038f8:	430a      	orrs	r2, r1
 80038fa:	61da      	str	r2, [r3, #28]
 80038fc:	4b1a      	ldr	r3, [pc, #104]	@ (8003968 <HAL_RCC_OscConfig+0x32c>)
 80038fe:	69da      	ldr	r2, [r3, #28]
 8003900:	2380      	movs	r3, #128	@ 0x80
 8003902:	055b      	lsls	r3, r3, #21
 8003904:	4013      	ands	r3, r2
 8003906:	60fb      	str	r3, [r7, #12]
 8003908:	68fb      	ldr	r3, [r7, #12]
      pwrclkchanged = SET;
 800390a:	183b      	adds	r3, r7, r0
 800390c:	2201      	movs	r2, #1
 800390e:	701a      	strb	r2, [r3, #0]
    }
    
    if(HAL_IS_BIT_CLR(PWR->CR, PWR_CR_DBP))
 8003910:	4b18      	ldr	r3, [pc, #96]	@ (8003974 <HAL_RCC_OscConfig+0x338>)
 8003912:	681a      	ldr	r2, [r3, #0]
 8003914:	2380      	movs	r3, #128	@ 0x80
 8003916:	005b      	lsls	r3, r3, #1
 8003918:	4013      	ands	r3, r2
 800391a:	d11a      	bne.n	8003952 <HAL_RCC_OscConfig+0x316>
    {
      /* Enable write access to Backup domain */
      SET_BIT(PWR->CR, PWR_CR_DBP);
 800391c:	4b15      	ldr	r3, [pc, #84]	@ (8003974 <HAL_RCC_OscConfig+0x338>)
 800391e:	681a      	ldr	r2, [r3, #0]
 8003920:	4b14      	ldr	r3, [pc, #80]	@ (8003974 <HAL_RCC_OscConfig+0x338>)
 8003922:	2180      	movs	r1, #128	@ 0x80
 8003924:	0049      	lsls	r1, r1, #1
 8003926:	430a      	orrs	r2, r1
 8003928:	601a      	str	r2, [r3, #0]
      
      /* Wait for Backup domain Write protection disable */
      tickstart = HAL_GetTick();
 800392a:	f7ff fba3 	bl	8003074 <HAL_GetTick>
 800392e:	0003      	movs	r3, r0
 8003930:	61bb      	str	r3, [r7, #24]

      while(HAL_IS_BIT_CLR(PWR->CR, PWR_CR_DBP))
 8003932:	e008      	b.n	8003946 <HAL_RCC_OscConfig+0x30a>
      {
        if((HAL_GetTick() - tickstart) > RCC_DBP_TIMEOUT_VALUE)
 8003934:	f7ff fb9e 	bl	8003074 <HAL_GetTick>
 8003938:	0002      	movs	r2, r0
 800393a:	69bb      	ldr	r3, [r7, #24]
 800393c:	1ad3      	subs	r3, r2, r3
 800393e:	2b64      	cmp	r3, #100	@ 0x64
 8003940:	d901      	bls.n	8003946 <HAL_RCC_OscConfig+0x30a>
        {
          return HAL_TIMEOUT;
 8003942:	2303      	movs	r3, #3
 8003944:	e185      	b.n	8003c52 <HAL_RCC_OscConfig+0x616>
      while(HAL_IS_BIT_CLR(PWR->CR, PWR_CR_DBP))
 8003946:	4b0b      	ldr	r3, [pc, #44]	@ (8003974 <HAL_RCC_OscConfig+0x338>)
 8003948:	681a      	ldr	r2, [r3, #0]
 800394a:	2380      	movs	r3, #128	@ 0x80
 800394c:	005b      	lsls	r3, r3, #1
 800394e:	4013      	ands	r3, r2
 8003950:	d0f0      	beq.n	8003934 <HAL_RCC_OscConfig+0x2f8>
        }
      }
    }

    /* Set the new LSE configuration -----------------------------------------*/
    __HAL_RCC_LSE_CONFIG(RCC_OscInitStruct->LSEState);
 8003952:	687b      	ldr	r3, [r7, #4]
 8003954:	689b      	ldr	r3, [r3, #8]
 8003956:	2b01      	cmp	r3, #1
 8003958:	d10e      	bne.n	8003978 <HAL_RCC_OscConfig+0x33c>
 800395a:	4b03      	ldr	r3, [pc, #12]	@ (8003968 <HAL_RCC_OscConfig+0x32c>)
 800395c:	6a1a      	ldr	r2, [r3, #32]
 800395e:	4b02      	ldr	r3, [pc, #8]	@ (8003968 <HAL_RCC_OscConfig+0x32c>)
 8003960:	2101      	movs	r1, #1
 8003962:	430a      	orrs	r2, r1
 8003964:	621a      	str	r2, [r3, #32]
 8003966:	e035      	b.n	80039d4 <HAL_RCC_OscConfig+0x398>
 8003968:	40021000 	.word	0x40021000
 800396c:	fffeffff 	.word	0xfffeffff
 8003970:	fffbffff 	.word	0xfffbffff
 8003974:	40007000 	.word	0x40007000
 8003978:	687b      	ldr	r3, [r7, #4]
 800397a:	689b      	ldr	r3, [r3, #8]
 800397c:	2b00      	cmp	r3, #0
 800397e:	d10c      	bne.n	800399a <HAL_RCC_OscConfig+0x35e>
 8003980:	4bb6      	ldr	r3, [pc, #728]	@ (8003c5c <HAL_RCC_OscConfig+0x620>)
 8003982:	6a1a      	ldr	r2, [r3, #32]
 8003984:	4bb5      	ldr	r3, [pc, #724]	@ (8003c5c <HAL_RCC_OscConfig+0x620>)
 8003986:	2101      	movs	r1, #1
 8003988:	438a      	bics	r2, r1
 800398a:	621a      	str	r2, [r3, #32]
 800398c:	4bb3      	ldr	r3, [pc, #716]	@ (8003c5c <HAL_RCC_OscConfig+0x620>)
 800398e:	6a1a      	ldr	r2, [r3, #32]
 8003990:	4bb2      	ldr	r3, [pc, #712]	@ (8003c5c <HAL_RCC_OscConfig+0x620>)
 8003992:	2104      	movs	r1, #4
 8003994:	438a      	bics	r2, r1
 8003996:	621a      	str	r2, [r3, #32]
 8003998:	e01c      	b.n	80039d4 <HAL_RCC_OscConfig+0x398>
 800399a:	687b      	ldr	r3, [r7, #4]
 800399c:	689b      	ldr	r3, [r3, #8]
 800399e:	2b05      	cmp	r3, #5
 80039a0:	d10c      	bne.n	80039bc <HAL_RCC_OscConfig+0x380>
 80039a2:	4bae      	ldr	r3, [pc, #696]	@ (8003c5c <HAL_RCC_OscConfig+0x620>)
 80039a4:	6a1a      	ldr	r2, [r3, #32]
 80039a6:	4bad      	ldr	r3, [pc, #692]	@ (8003c5c <HAL_RCC_OscConfig+0x620>)
 80039a8:	2104      	movs	r1, #4
 80039aa:	430a      	orrs	r2, r1
 80039ac:	621a      	str	r2, [r3, #32]
 80039ae:	4bab      	ldr	r3, [pc, #684]	@ (8003c5c <HAL_RCC_OscConfig+0x620>)
 80039b0:	6a1a      	ldr	r2, [r3, #32]
 80039b2:	4baa      	ldr	r3, [pc, #680]	@ (8003c5c <HAL_RCC_OscConfig+0x620>)
 80039b4:	2101      	movs	r1, #1
 80039b6:	430a      	orrs	r2, r1
 80039b8:	621a      	str	r2, [r3, #32]
 80039ba:	e00b      	b.n	80039d4 <HAL_RCC_OscConfig+0x398>
 80039bc:	4ba7      	ldr	r3, [pc, #668]	@ (8003c5c <HAL_RCC_OscConfig+0x620>)
 80039be:	6a1a      	ldr	r2, [r3, #32]
 80039c0:	4ba6      	ldr	r3, [pc, #664]	@ (8003c5c <HAL_RCC_OscConfig+0x620>)
 80039c2:	2101      	movs	r1, #1
 80039c4:	438a      	bics	r2, r1
 80039c6:	621a      	str	r2, [r3, #32]
 80039c8:	4ba4      	ldr	r3, [pc, #656]	@ (8003c5c <HAL_RCC_OscConfig+0x620>)
 80039ca:	6a1a      	ldr	r2, [r3, #32]
 80039cc:	4ba3      	ldr	r3, [pc, #652]	@ (8003c5c <HAL_RCC_OscConfig+0x620>)
 80039ce:	2104      	movs	r1, #4
 80039d0:	438a      	bics	r2, r1
 80039d2:	621a      	str	r2, [r3, #32]
    /* Check the LSE State */
    if(RCC_OscInitStruct->LSEState != RCC_LSE_OFF)
 80039d4:	687b      	ldr	r3, [r7, #4]
 80039d6:	689b      	ldr	r3, [r3, #8]
 80039d8:	2b00      	cmp	r3, #0
 80039da:	d014      	beq.n	8003a06 <HAL_RCC_OscConfig+0x3ca>
    {
      /* Get Start Tick */
      tickstart = HAL_GetTick();
 80039dc:	f7ff fb4a 	bl	8003074 <HAL_GetTick>
 80039e0:	0003      	movs	r3, r0
 80039e2:	61bb      	str	r3, [r7, #24]
      
      /* Wait till LSE is ready */  
      while(__HAL_RCC_GET_FLAG(RCC_FLAG_LSERDY) == RESET)
 80039e4:	e009      	b.n	80039fa <HAL_RCC_OscConfig+0x3be>
      {
        if((HAL_GetTick() - tickstart ) > RCC_LSE_TIMEOUT_VALUE)
 80039e6:	f7ff fb45 	bl	8003074 <HAL_GetTick>
 80039ea:	0002      	movs	r2, r0
 80039ec:	69bb      	ldr	r3, [r7, #24]
 80039ee:	1ad3      	subs	r3, r2, r3
 80039f0:	4a9b      	ldr	r2, [pc, #620]	@ (8003c60 <HAL_RCC_OscConfig+0x624>)
 80039f2:	4293      	cmp	r3, r2
 80039f4:	d901      	bls.n	80039fa <HAL_RCC_OscConfig+0x3be>
        {
          return HAL_TIMEOUT;
 80039f6:	2303      	movs	r3, #3
 80039f8:	e12b      	b.n	8003c52 <HAL_RCC_OscConfig+0x616>
      while(__HAL_RCC_GET_FLAG(RCC_FLAG_LSERDY) == RESET)
 80039fa:	4b98      	ldr	r3, [pc, #608]	@ (8003c5c <HAL_RCC_OscConfig+0x620>)
 80039fc:	6a1b      	ldr	r3, [r3, #32]
 80039fe:	2202      	movs	r2, #2
 8003a00:	4013      	ands	r3, r2
 8003a02:	d0f0      	beq.n	80039e6 <HAL_RCC_OscConfig+0x3aa>
 8003a04:	e013      	b.n	8003a2e <HAL_RCC_OscConfig+0x3f2>
      }
    }
    else
    {
      /* Get Start Tick */
      tickstart = HAL_GetTick();
 8003a06:	f7ff fb35 	bl	8003074 <HAL_GetTick>
 8003a0a:	0003      	movs	r3, r0
 8003a0c:	61bb      	str	r3, [r7, #24]
      
      /* Wait till LSE is disabled */  
      while(__HAL_RCC_GET_FLAG(RCC_FLAG_LSERDY) != RESET)
 8003a0e:	e009      	b.n	8003a24 <HAL_RCC_OscConfig+0x3e8>
      {
        if((HAL_GetTick() - tickstart ) > RCC_LSE_TIMEOUT_VALUE)
 8003a10:	f7ff fb30 	bl	8003074 <HAL_GetTick>
 8003a14:	0002      	movs	r2, r0
 8003a16:	69bb      	ldr	r3, [r7, #24]
 8003a18:	1ad3      	subs	r3, r2, r3
 8003a1a:	4a91      	ldr	r2, [pc, #580]	@ (8003c60 <HAL_RCC_OscConfig+0x624>)
 8003a1c:	4293      	cmp	r3, r2
 8003a1e:	d901      	bls.n	8003a24 <HAL_RCC_OscConfig+0x3e8>
        {
          return HAL_TIMEOUT;
 8003a20:	2303      	movs	r3, #3
 8003a22:	e116      	b.n	8003c52 <HAL_RCC_OscConfig+0x616>
      while(__HAL_RCC_GET_FLAG(RCC_FLAG_LSERDY) != RESET)
 8003a24:	4b8d      	ldr	r3, [pc, #564]	@ (8003c5c <HAL_RCC_OscConfig+0x620>)
 8003a26:	6a1b      	ldr	r3, [r3, #32]
 8003a28:	2202      	movs	r2, #2
 8003a2a:	4013      	ands	r3, r2
 8003a2c:	d1f0      	bne.n	8003a10 <HAL_RCC_OscConfig+0x3d4>
        }
      }
    }

    /* Require to disable power clock if necessary */
    if(pwrclkchanged == SET)
 8003a2e:	231f      	movs	r3, #31
 8003a30:	18fb      	adds	r3, r7, r3
 8003a32:	781b      	ldrb	r3, [r3, #0]
 8003a34:	2b01      	cmp	r3, #1
 8003a36:	d105      	bne.n	8003a44 <HAL_RCC_OscConfig+0x408>
    {
      __HAL_RCC_PWR_CLK_DISABLE();
 8003a38:	4b88      	ldr	r3, [pc, #544]	@ (8003c5c <HAL_RCC_OscConfig+0x620>)
 8003a3a:	69da      	ldr	r2, [r3, #28]
 8003a3c:	4b87      	ldr	r3, [pc, #540]	@ (8003c5c <HAL_RCC_OscConfig+0x620>)
 8003a3e:	4989      	ldr	r1, [pc, #548]	@ (8003c64 <HAL_RCC_OscConfig+0x628>)
 8003a40:	400a      	ands	r2, r1
 8003a42:	61da      	str	r2, [r3, #28]
    }
  }

  /*----------------------------- HSI14 Configuration --------------------------*/
  if(((RCC_OscInitStruct->OscillatorType) & RCC_OSCILLATORTYPE_HSI14) == RCC_OSCILLATORTYPE_HSI14)
 8003a44:	687b      	ldr	r3, [r7, #4]
 8003a46:	681b      	ldr	r3, [r3, #0]
 8003a48:	2210      	movs	r2, #16
 8003a4a:	4013      	ands	r3, r2
 8003a4c:	d063      	beq.n	8003b16 <HAL_RCC_OscConfig+0x4da>
    /* Check the parameters */
    assert_param(IS_RCC_HSI14(RCC_OscInitStruct->HSI14State));
    assert_param(IS_RCC_CALIBRATION_VALUE(RCC_OscInitStruct->HSI14CalibrationValue));

    /* Check the HSI14 State */
    if(RCC_OscInitStruct->HSI14State == RCC_HSI14_ON)
 8003a4e:	687b      	ldr	r3, [r7, #4]
 8003a50:	695b      	ldr	r3, [r3, #20]
 8003a52:	2b01      	cmp	r3, #1
 8003a54:	d12a      	bne.n	8003aac <HAL_RCC_OscConfig+0x470>
    {
      /* Disable ADC control of the Internal High Speed oscillator HSI14 */
      __HAL_RCC_HSI14ADC_DISABLE();
 8003a56:	4b81      	ldr	r3, [pc, #516]	@ (8003c5c <HAL_RCC_OscConfig+0x620>)
 8003a58:	6b5a      	ldr	r2, [r3, #52]	@ 0x34
 8003a5a:	4b80      	ldr	r3, [pc, #512]	@ (8003c5c <HAL_RCC_OscConfig+0x620>)
 8003a5c:	2104      	movs	r1, #4
 8003a5e:	430a      	orrs	r2, r1
 8003a60:	635a      	str	r2, [r3, #52]	@ 0x34

      /* Enable the Internal High Speed oscillator (HSI). */
      __HAL_RCC_HSI14_ENABLE();
 8003a62:	4b7e      	ldr	r3, [pc, #504]	@ (8003c5c <HAL_RCC_OscConfig+0x620>)
 8003a64:	6b5a      	ldr	r2, [r3, #52]	@ 0x34
 8003a66:	4b7d      	ldr	r3, [pc, #500]	@ (8003c5c <HAL_RCC_OscConfig+0x620>)
 8003a68:	2101      	movs	r1, #1
 8003a6a:	430a      	orrs	r2, r1
 8003a6c:	635a      	str	r2, [r3, #52]	@ 0x34

      /* Get Start Tick */
      tickstart = HAL_GetTick();
 8003a6e:	f7ff fb01 	bl	8003074 <HAL_GetTick>
 8003a72:	0003      	movs	r3, r0
 8003a74:	61bb      	str	r3, [r7, #24]
      
      /* Wait till HSI is ready */  
      while(__HAL_RCC_GET_FLAG(RCC_FLAG_HSI14RDY) == RESET)
 8003a76:	e008      	b.n	8003a8a <HAL_RCC_OscConfig+0x44e>
      {
        if((HAL_GetTick() - tickstart) > HSI14_TIMEOUT_VALUE)
 8003a78:	f7ff fafc 	bl	8003074 <HAL_GetTick>
 8003a7c:	0002      	movs	r2, r0
 8003a7e:	69bb      	ldr	r3, [r7, #24]
 8003a80:	1ad3      	subs	r3, r2, r3
 8003a82:	2b02      	cmp	r3, #2
 8003a84:	d901      	bls.n	8003a8a <HAL_RCC_OscConfig+0x44e>
        {
          return HAL_TIMEOUT;
 8003a86:	2303      	movs	r3, #3
 8003a88:	e0e3      	b.n	8003c52 <HAL_RCC_OscConfig+0x616>
      while(__HAL_RCC_GET_FLAG(RCC_FLAG_HSI14RDY) == RESET)
 8003a8a:	4b74      	ldr	r3, [pc, #464]	@ (8003c5c <HAL_RCC_OscConfig+0x620>)
 8003a8c:	6b5b      	ldr	r3, [r3, #52]	@ 0x34
 8003a8e:	2202      	movs	r2, #2
 8003a90:	4013      	ands	r3, r2
 8003a92:	d0f1      	beq.n	8003a78 <HAL_RCC_OscConfig+0x43c>
        }      
      } 

      /* Adjusts the Internal High Speed oscillator 14Mhz (HSI14) calibration value. */
      __HAL_RCC_HSI14_CALIBRATIONVALUE_ADJUST(RCC_OscInitStruct->HSI14CalibrationValue);
 8003a94:	4b71      	ldr	r3, [pc, #452]	@ (8003c5c <HAL_RCC_OscConfig+0x620>)
 8003a96:	6b5b      	ldr	r3, [r3, #52]	@ 0x34
 8003a98:	22f8      	movs	r2, #248	@ 0xf8
 8003a9a:	4393      	bics	r3, r2
 8003a9c:	0019      	movs	r1, r3
 8003a9e:	687b      	ldr	r3, [r7, #4]
 8003aa0:	699b      	ldr	r3, [r3, #24]
 8003aa2:	00da      	lsls	r2, r3, #3
 8003aa4:	4b6d      	ldr	r3, [pc, #436]	@ (8003c5c <HAL_RCC_OscConfig+0x620>)
 8003aa6:	430a      	orrs	r2, r1
 8003aa8:	635a      	str	r2, [r3, #52]	@ 0x34
 8003aaa:	e034      	b.n	8003b16 <HAL_RCC_OscConfig+0x4da>
    }
    else if(RCC_OscInitStruct->HSI14State == RCC_HSI14_ADC_CONTROL)
 8003aac:	687b      	ldr	r3, [r7, #4]
 8003aae:	695b      	ldr	r3, [r3, #20]
 8003ab0:	3305      	adds	r3, #5
 8003ab2:	d111      	bne.n	8003ad8 <HAL_RCC_OscConfig+0x49c>
    {
      /* Enable ADC control of the Internal High Speed oscillator HSI14 */
      __HAL_RCC_HSI14ADC_ENABLE();
 8003ab4:	4b69      	ldr	r3, [pc, #420]	@ (8003c5c <HAL_RCC_OscConfig+0x620>)
 8003ab6:	6b5a      	ldr	r2, [r3, #52]	@ 0x34
 8003ab8:	4b68      	ldr	r3, [pc, #416]	@ (8003c5c <HAL_RCC_OscConfig+0x620>)
 8003aba:	2104      	movs	r1, #4
 8003abc:	438a      	bics	r2, r1
 8003abe:	635a      	str	r2, [r3, #52]	@ 0x34

      /* Adjusts the Internal High Speed oscillator 14Mhz (HSI14) calibration value. */
      __HAL_RCC_HSI14_CALIBRATIONVALUE_ADJUST(RCC_OscInitStruct->HSI14CalibrationValue);
 8003ac0:	4b66      	ldr	r3, [pc, #408]	@ (8003c5c <HAL_RCC_OscConfig+0x620>)
 8003ac2:	6b5b      	ldr	r3, [r3, #52]	@ 0x34
 8003ac4:	22f8      	movs	r2, #248	@ 0xf8
 8003ac6:	4393      	bics	r3, r2
 8003ac8:	0019      	movs	r1, r3
 8003aca:	687b      	ldr	r3, [r7, #4]
 8003acc:	699b      	ldr	r3, [r3, #24]
 8003ace:	00da      	lsls	r2, r3, #3
 8003ad0:	4b62      	ldr	r3, [pc, #392]	@ (8003c5c <HAL_RCC_OscConfig+0x620>)
 8003ad2:	430a      	orrs	r2, r1
 8003ad4:	635a      	str	r2, [r3, #52]	@ 0x34
 8003ad6:	e01e      	b.n	8003b16 <HAL_RCC_OscConfig+0x4da>
    }
    else
    {
      /* Disable ADC control of the Internal High Speed oscillator HSI14 */
      __HAL_RCC_HSI14ADC_DISABLE();
 8003ad8:	4b60      	ldr	r3, [pc, #384]	@ (8003c5c <HAL_RCC_OscConfig+0x620>)
 8003ada:	6b5a      	ldr	r2, [r3, #52]	@ 0x34
 8003adc:	4b5f      	ldr	r3, [pc, #380]	@ (8003c5c <HAL_RCC_OscConfig+0x620>)
 8003ade:	2104      	movs	r1, #4
 8003ae0:	430a      	orrs	r2, r1
 8003ae2:	635a      	str	r2, [r3, #52]	@ 0x34

      /* Disable the Internal High Speed oscillator (HSI). */
      __HAL_RCC_HSI14_DISABLE();
 8003ae4:	4b5d      	ldr	r3, [pc, #372]	@ (8003c5c <HAL_RCC_OscConfig+0x620>)
 8003ae6:	6b5a      	ldr	r2, [r3, #52]	@ 0x34
 8003ae8:	4b5c      	ldr	r3, [pc, #368]	@ (8003c5c <HAL_RCC_OscConfig+0x620>)
 8003aea:	2101      	movs	r1, #1
 8003aec:	438a      	bics	r2, r1
 8003aee:	635a      	str	r2, [r3, #52]	@ 0x34

      /* Get Start Tick */
      tickstart = HAL_GetTick();
 8003af0:	f7ff fac0 	bl	8003074 <HAL_GetTick>
 8003af4:	0003      	movs	r3, r0
 8003af6:	61bb      	str	r3, [r7, #24]
      
      /* Wait till HSI is ready */  
      while(__HAL_RCC_GET_FLAG(RCC_FLAG_HSI14RDY) != RESET)
 8003af8:	e008      	b.n	8003b0c <HAL_RCC_OscConfig+0x4d0>
      {
        if((HAL_GetTick() - tickstart) > HSI14_TIMEOUT_VALUE)
 8003afa:	f7ff fabb 	bl	8003074 <HAL_GetTick>
 8003afe:	0002      	movs	r2, r0
 8003b00:	69bb      	ldr	r3, [r7, #24]
 8003b02:	1ad3      	subs	r3, r2, r3
 8003b04:	2b02      	cmp	r3, #2
 8003b06:	d901      	bls.n	8003b0c <HAL_RCC_OscConfig+0x4d0>
        {
          return HAL_TIMEOUT;
 8003b08:	2303      	movs	r3, #3
 8003b0a:	e0a2      	b.n	8003c52 <HAL_RCC_OscConfig+0x616>
      while(__HAL_RCC_GET_FLAG(RCC_FLAG_HSI14RDY) != RESET)
 8003b0c:	4b53      	ldr	r3, [pc, #332]	@ (8003c5c <HAL_RCC_OscConfig+0x620>)
 8003b0e:	6b5b      	ldr	r3, [r3, #52]	@ 0x34
 8003b10:	2202      	movs	r2, #2
 8003b12:	4013      	ands	r3, r2
 8003b14:	d1f1      	bne.n	8003afa <HAL_RCC_OscConfig+0x4be>
#endif /* RCC_HSI48_SUPPORT */
       
  /*-------------------------------- PLL Configuration -----------------------*/
  /* Check the parameters */
  assert_param(IS_RCC_PLL(RCC_OscInitStruct->PLL.PLLState));
  if ((RCC_OscInitStruct->PLL.PLLState) != RCC_PLL_NONE)
 8003b16:	687b      	ldr	r3, [r7, #4]
 8003b18:	6a1b      	ldr	r3, [r3, #32]
 8003b1a:	2b00      	cmp	r3, #0
 8003b1c:	d100      	bne.n	8003b20 <HAL_RCC_OscConfig+0x4e4>
 8003b1e:	e097      	b.n	8003c50 <HAL_RCC_OscConfig+0x614>
  {
    /* Check if the PLL is used as system clock or not */
    if(__HAL_RCC_GET_SYSCLK_SOURCE() != RCC_SYSCLKSOURCE_STATUS_PLLCLK)
 8003b20:	4b4e      	ldr	r3, [pc, #312]	@ (8003c5c <HAL_RCC_OscConfig+0x620>)
 8003b22:	685b      	ldr	r3, [r3, #4]
 8003b24:	220c      	movs	r2, #12
 8003b26:	4013      	ands	r3, r2
 8003b28:	2b08      	cmp	r3, #8
 8003b2a:	d100      	bne.n	8003b2e <HAL_RCC_OscConfig+0x4f2>
 8003b2c:	e06b      	b.n	8003c06 <HAL_RCC_OscConfig+0x5ca>
    { 
      if((RCC_OscInitStruct->PLL.PLLState) == RCC_PLL_ON)
 8003b2e:	687b      	ldr	r3, [r7, #4]
 8003b30:	6a1b      	ldr	r3, [r3, #32]
 8003b32:	2b02      	cmp	r3, #2
 8003b34:	d14c      	bne.n	8003bd0 <HAL_RCC_OscConfig+0x594>
        assert_param(IS_RCC_PLLSOURCE(RCC_OscInitStruct->PLL.PLLSource));
        assert_param(IS_RCC_PLL_MUL(RCC_OscInitStruct->PLL.PLLMUL));
        assert_param(IS_RCC_PREDIV(RCC_OscInitStruct->PLL.PREDIV));
  
        /* Disable the main PLL. */
        __HAL_RCC_PLL_DISABLE();
 8003b36:	4b49      	ldr	r3, [pc, #292]	@ (8003c5c <HAL_RCC_OscConfig+0x620>)
 8003b38:	681a      	ldr	r2, [r3, #0]
 8003b3a:	4b48      	ldr	r3, [pc, #288]	@ (8003c5c <HAL_RCC_OscConfig+0x620>)
 8003b3c:	494a      	ldr	r1, [pc, #296]	@ (8003c68 <HAL_RCC_OscConfig+0x62c>)
 8003b3e:	400a      	ands	r2, r1
 8003b40:	601a      	str	r2, [r3, #0]
        
        /* Get Start Tick */
        tickstart = HAL_GetTick();
 8003b42:	f7ff fa97 	bl	8003074 <HAL_GetTick>
 8003b46:	0003      	movs	r3, r0
 8003b48:	61bb      	str	r3, [r7, #24]
        
        /* Wait till PLL is disabled */
        while(__HAL_RCC_GET_FLAG(RCC_FLAG_PLLRDY)  != RESET)
 8003b4a:	e008      	b.n	8003b5e <HAL_RCC_OscConfig+0x522>
        {
          if((HAL_GetTick() - tickstart ) > PLL_TIMEOUT_VALUE)
 8003b4c:	f7ff fa92 	bl	8003074 <HAL_GetTick>
 8003b50:	0002      	movs	r2, r0
 8003b52:	69bb      	ldr	r3, [r7, #24]
 8003b54:	1ad3      	subs	r3, r2, r3
 8003b56:	2b02      	cmp	r3, #2
 8003b58:	d901      	bls.n	8003b5e <HAL_RCC_OscConfig+0x522>
          {
            return HAL_TIMEOUT;
 8003b5a:	2303      	movs	r3, #3
 8003b5c:	e079      	b.n	8003c52 <HAL_RCC_OscConfig+0x616>
        while(__HAL_RCC_GET_FLAG(RCC_FLAG_PLLRDY)  != RESET)
 8003b5e:	4b3f      	ldr	r3, [pc, #252]	@ (8003c5c <HAL_RCC_OscConfig+0x620>)
 8003b60:	681a      	ldr	r2, [r3, #0]
 8003b62:	2380      	movs	r3, #128	@ 0x80
 8003b64:	049b      	lsls	r3, r3, #18
 8003b66:	4013      	ands	r3, r2
 8003b68:	d1f0      	bne.n	8003b4c <HAL_RCC_OscConfig+0x510>
          }
        }

        /* Configure the main PLL clock source, predivider and multiplication factor. */
        __HAL_RCC_PLL_CONFIG(RCC_OscInitStruct->PLL.PLLSource,
 8003b6a:	4b3c      	ldr	r3, [pc, #240]	@ (8003c5c <HAL_RCC_OscConfig+0x620>)
 8003b6c:	6adb      	ldr	r3, [r3, #44]	@ 0x2c
 8003b6e:	220f      	movs	r2, #15
 8003b70:	4393      	bics	r3, r2
 8003b72:	0019      	movs	r1, r3
 8003b74:	687b      	ldr	r3, [r7, #4]
 8003b76:	6ada      	ldr	r2, [r3, #44]	@ 0x2c
 8003b78:	4b38      	ldr	r3, [pc, #224]	@ (8003c5c <HAL_RCC_OscConfig+0x620>)
 8003b7a:	430a      	orrs	r2, r1
 8003b7c:	62da      	str	r2, [r3, #44]	@ 0x2c
 8003b7e:	4b37      	ldr	r3, [pc, #220]	@ (8003c5c <HAL_RCC_OscConfig+0x620>)
 8003b80:	685b      	ldr	r3, [r3, #4]
 8003b82:	4a3a      	ldr	r2, [pc, #232]	@ (8003c6c <HAL_RCC_OscConfig+0x630>)
 8003b84:	4013      	ands	r3, r2
 8003b86:	0019      	movs	r1, r3
 8003b88:	687b      	ldr	r3, [r7, #4]
 8003b8a:	6a9a      	ldr	r2, [r3, #40]	@ 0x28
 8003b8c:	687b      	ldr	r3, [r7, #4]
 8003b8e:	6a5b      	ldr	r3, [r3, #36]	@ 0x24
 8003b90:	431a      	orrs	r2, r3
 8003b92:	4b32      	ldr	r3, [pc, #200]	@ (8003c5c <HAL_RCC_OscConfig+0x620>)
 8003b94:	430a      	orrs	r2, r1
 8003b96:	605a      	str	r2, [r3, #4]
                             RCC_OscInitStruct->PLL.PREDIV,
                             RCC_OscInitStruct->PLL.PLLMUL);
        /* Enable the main PLL. */
        __HAL_RCC_PLL_ENABLE();
 8003b98:	4b30      	ldr	r3, [pc, #192]	@ (8003c5c <HAL_RCC_OscConfig+0x620>)
 8003b9a:	681a      	ldr	r2, [r3, #0]
 8003b9c:	4b2f      	ldr	r3, [pc, #188]	@ (8003c5c <HAL_RCC_OscConfig+0x620>)
 8003b9e:	2180      	movs	r1, #128	@ 0x80
 8003ba0:	0449      	lsls	r1, r1, #17
 8003ba2:	430a      	orrs	r2, r1
 8003ba4:	601a      	str	r2, [r3, #0]
        
        /* Get Start Tick */
        tickstart = HAL_GetTick();
 8003ba6:	f7ff fa65 	bl	8003074 <HAL_GetTick>
 8003baa:	0003      	movs	r3, r0
 8003bac:	61bb      	str	r3, [r7, #24]
        
        /* Wait till PLL is ready */
        while(__HAL_RCC_GET_FLAG(RCC_FLAG_PLLRDY)  == RESET)
 8003bae:	e008      	b.n	8003bc2 <HAL_RCC_OscConfig+0x586>
        {
          if((HAL_GetTick() - tickstart ) > PLL_TIMEOUT_VALUE)
 8003bb0:	f7ff fa60 	bl	8003074 <HAL_GetTick>
 8003bb4:	0002      	movs	r2, r0
 8003bb6:	69bb      	ldr	r3, [r7, #24]
 8003bb8:	1ad3      	subs	r3, r2, r3
 8003bba:	2b02      	cmp	r3, #2
 8003bbc:	d901      	bls.n	8003bc2 <HAL_RCC_OscConfig+0x586>
          {
            return HAL_TIMEOUT;
 8003bbe:	2303      	movs	r3, #3
 8003bc0:	e047      	b.n	8003c52 <HAL_RCC_OscConfig+0x616>
        while(__HAL_RCC_GET_FLAG(RCC_FLAG_PLLRDY)  == RESET)
 8003bc2:	4b26      	ldr	r3, [pc, #152]	@ (8003c5c <HAL_RCC_OscConfig+0x620>)
 8003bc4:	681a      	ldr	r2, [r3, #0]
 8003bc6:	2380      	movs	r3, #128	@ 0x80
 8003bc8:	049b      	lsls	r3, r3, #18
 8003bca:	4013      	ands	r3, r2
 8003bcc:	d0f0      	beq.n	8003bb0 <HAL_RCC_OscConfig+0x574>
 8003bce:	e03f      	b.n	8003c50 <HAL_RCC_OscConfig+0x614>
        }
      }
      else
      {
        /* Disable the main PLL. */
        __HAL_RCC_PLL_DISABLE();
 8003bd0:	4b22      	ldr	r3, [pc, #136]	@ (8003c5c <HAL_RCC_OscConfig+0x620>)
 8003bd2:	681a      	ldr	r2, [r3, #0]
 8003bd4:	4b21      	ldr	r3, [pc, #132]	@ (8003c5c <HAL_RCC_OscConfig+0x620>)
 8003bd6:	4924      	ldr	r1, [pc, #144]	@ (8003c68 <HAL_RCC_OscConfig+0x62c>)
 8003bd8:	400a      	ands	r2, r1
 8003bda:	601a      	str	r2, [r3, #0]
 
        /* Get Start Tick */
        tickstart = HAL_GetTick();
 8003bdc:	f7ff fa4a 	bl	8003074 <HAL_GetTick>
 8003be0:	0003      	movs	r3, r0
 8003be2:	61bb      	str	r3, [r7, #24]
        
        /* Wait till PLL is disabled */  
        while(__HAL_RCC_GET_FLAG(RCC_FLAG_PLLRDY)  != RESET)
 8003be4:	e008      	b.n	8003bf8 <HAL_RCC_OscConfig+0x5bc>
        {
          if((HAL_GetTick() - tickstart ) > PLL_TIMEOUT_VALUE)
 8003be6:	f7ff fa45 	bl	8003074 <HAL_GetTick>
 8003bea:	0002      	movs	r2, r0
 8003bec:	69bb      	ldr	r3, [r7, #24]
 8003bee:	1ad3      	subs	r3, r2, r3
 8003bf0:	2b02      	cmp	r3, #2
 8003bf2:	d901      	bls.n	8003bf8 <HAL_RCC_OscConfig+0x5bc>
          {
            return HAL_TIMEOUT;
 8003bf4:	2303      	movs	r3, #3
 8003bf6:	e02c      	b.n	8003c52 <HAL_RCC_OscConfig+0x616>
        while(__HAL_RCC_GET_FLAG(RCC_FLAG_PLLRDY)  != RESET)
 8003bf8:	4b18      	ldr	r3, [pc, #96]	@ (8003c5c <HAL_RCC_OscConfig+0x620>)
 8003bfa:	681a      	ldr	r2, [r3, #0]
 8003bfc:	2380      	movs	r3, #128	@ 0x80
 8003bfe:	049b      	lsls	r3, r3, #18
 8003c00:	4013      	ands	r3, r2
 8003c02:	d1f0      	bne.n	8003be6 <HAL_RCC_OscConfig+0x5aa>
 8003c04:	e024      	b.n	8003c50 <HAL_RCC_OscConfig+0x614>
      }
    }
    else
    {
      /* Check if there is a request to disable the PLL used as System clock source */
      if((RCC_OscInitStruct->PLL.PLLState) == RCC_PLL_OFF)
 8003c06:	687b      	ldr	r3, [r7, #4]
 8003c08:	6a1b      	ldr	r3, [r3, #32]
 8003c0a:	2b01      	cmp	r3, #1
 8003c0c:	d101      	bne.n	8003c12 <HAL_RCC_OscConfig+0x5d6>
      {
        return HAL_ERROR;
 8003c0e:	2301      	movs	r3, #1
 8003c10:	e01f      	b.n	8003c52 <HAL_RCC_OscConfig+0x616>
      }
      else
      {
        /* Do not return HAL_ERROR if request repeats the current configuration */
        pll_config  = RCC->CFGR;
 8003c12:	4b12      	ldr	r3, [pc, #72]	@ (8003c5c <HAL_RCC_OscConfig+0x620>)
 8003c14:	685b      	ldr	r3, [r3, #4]
 8003c16:	617b      	str	r3, [r7, #20]
        pll_config2 = RCC->CFGR2;
 8003c18:	4b10      	ldr	r3, [pc, #64]	@ (8003c5c <HAL_RCC_OscConfig+0x620>)
 8003c1a:	6adb      	ldr	r3, [r3, #44]	@ 0x2c
 8003c1c:	613b      	str	r3, [r7, #16]
        if((READ_BIT(pll_config,  RCC_CFGR_PLLSRC)  != RCC_OscInitStruct->PLL.PLLSource) ||
 8003c1e:	697a      	ldr	r2, [r7, #20]
 8003c20:	2380      	movs	r3, #128	@ 0x80
 8003c22:	025b      	lsls	r3, r3, #9
 8003c24:	401a      	ands	r2, r3
 8003c26:	687b      	ldr	r3, [r7, #4]
 8003c28:	6a5b      	ldr	r3, [r3, #36]	@ 0x24
 8003c2a:	429a      	cmp	r2, r3
 8003c2c:	d10e      	bne.n	8003c4c <HAL_RCC_OscConfig+0x610>
           (READ_BIT(pll_config2, RCC_CFGR2_PREDIV) != RCC_OscInitStruct->PLL.PREDIV)    ||
 8003c2e:	693b      	ldr	r3, [r7, #16]
 8003c30:	220f      	movs	r2, #15
 8003c32:	401a      	ands	r2, r3
 8003c34:	687b      	ldr	r3, [r7, #4]
 8003c36:	6adb      	ldr	r3, [r3, #44]	@ 0x2c
        if((READ_BIT(pll_config,  RCC_CFGR_PLLSRC)  != RCC_OscInitStruct->PLL.PLLSource) ||
 8003c38:	429a      	cmp	r2, r3
 8003c3a:	d107      	bne.n	8003c4c <HAL_RCC_OscConfig+0x610>
           (READ_BIT(pll_config,  RCC_CFGR_PLLMUL)  != RCC_OscInitStruct->PLL.PLLMUL))
 8003c3c:	697a      	ldr	r2, [r7, #20]
 8003c3e:	23f0      	movs	r3, #240	@ 0xf0
 8003c40:	039b      	lsls	r3, r3, #14
 8003c42:	401a      	ands	r2, r3
 8003c44:	687b      	ldr	r3, [r7, #4]
 8003c46:	6a9b      	ldr	r3, [r3, #40]	@ 0x28
           (READ_BIT(pll_config2, RCC_CFGR2_PREDIV) != RCC_OscInitStruct->PLL.PREDIV)    ||
 8003c48:	429a      	cmp	r2, r3
 8003c4a:	d001      	beq.n	8003c50 <HAL_RCC_OscConfig+0x614>
        {
          return HAL_ERROR;
 8003c4c:	2301      	movs	r3, #1
 8003c4e:	e000      	b.n	8003c52 <HAL_RCC_OscConfig+0x616>
        }
      }
    }
  }

  return HAL_OK;
 8003c50:	2300      	movs	r3, #0
}
 8003c52:	0018      	movs	r0, r3
 8003c54:	46bd      	mov	sp, r7
 8003c56:	b008      	add	sp, #32
 8003c58:	bd80      	pop	{r7, pc}
 8003c5a:	46c0      	nop			@ (mov r8, r8)
 8003c5c:	40021000 	.word	0x40021000
 8003c60:	00001388 	.word	0x00001388
 8003c64:	efffffff 	.word	0xefffffff
 8003c68:	feffffff 	.word	0xfeffffff
 8003c6c:	ffc2ffff 	.word	0xffc2ffff

08003c70 <HAL_RCC_ClockConfig>:
  *         You can use @ref HAL_RCC_GetClockConfig() function to know which clock is
  *         currently used as system clock source.
  * @retval HAL status
  */
HAL_StatusTypeDef HAL_RCC_ClockConfig(RCC_ClkInitTypeDef  *RCC_ClkInitStruct, uint32_t FLatency)
{
 8003c70:	b580      	push	{r7, lr}
 8003c72:	b084      	sub	sp, #16
 8003c74:	af00      	add	r7, sp, #0
 8003c76:	6078      	str	r0, [r7, #4]
 8003c78:	6039      	str	r1, [r7, #0]
  uint32_t tickstart;

  /* Check Null pointer */
  if(RCC_ClkInitStruct == NULL)
 8003c7a:	687b      	ldr	r3, [r7, #4]
 8003c7c:	2b00      	cmp	r3, #0
 8003c7e:	d101      	bne.n	8003c84 <HAL_RCC_ClockConfig+0x14>
  {
    return HAL_ERROR;
 8003c80:	2301      	movs	r3, #1
 8003c82:	e0b3      	b.n	8003dec <HAL_RCC_ClockConfig+0x17c>
  /* To correctly read data from FLASH memory, the number of wait states (LATENCY) 
  must be correctly programmed according to the frequency of the CPU clock 
    (HCLK) of the device. */

  /* Increasing the number of wait states because of higher CPU frequency */
  if(FLatency > __HAL_FLASH_GET_LATENCY())
 8003c84:	4b5b      	ldr	r3, [pc, #364]	@ (8003df4 <HAL_RCC_ClockConfig+0x184>)
 8003c86:	681b      	ldr	r3, [r3, #0]
 8003c88:	2201      	movs	r2, #1
 8003c8a:	4013      	ands	r3, r2
 8003c8c:	683a      	ldr	r2, [r7, #0]
 8003c8e:	429a      	cmp	r2, r3
 8003c90:	d911      	bls.n	8003cb6 <HAL_RCC_ClockConfig+0x46>
  {    
    /* Program the new number of wait states to the LATENCY bits in the FLASH_ACR register */
    __HAL_FLASH_SET_LATENCY(FLatency);
 8003c92:	4b58      	ldr	r3, [pc, #352]	@ (8003df4 <HAL_RCC_ClockConfig+0x184>)
 8003c94:	681b      	ldr	r3, [r3, #0]
 8003c96:	2201      	movs	r2, #1
 8003c98:	4393      	bics	r3, r2
 8003c9a:	0019      	movs	r1, r3
 8003c9c:	4b55      	ldr	r3, [pc, #340]	@ (8003df4 <HAL_RCC_ClockConfig+0x184>)
 8003c9e:	683a      	ldr	r2, [r7, #0]
 8003ca0:	430a      	orrs	r2, r1
 8003ca2:	601a      	str	r2, [r3, #0]
    
    /* Check that the new number of wait states is taken into account to access the Flash
    memory by reading the FLASH_ACR register */
    if(__HAL_FLASH_GET_LATENCY() != FLatency)
 8003ca4:	4b53      	ldr	r3, [pc, #332]	@ (8003df4 <HAL_RCC_ClockConfig+0x184>)
 8003ca6:	681b      	ldr	r3, [r3, #0]
 8003ca8:	2201      	movs	r2, #1
 8003caa:	4013      	ands	r3, r2
 8003cac:	683a      	ldr	r2, [r7, #0]
 8003cae:	429a      	cmp	r2, r3
 8003cb0:	d001      	beq.n	8003cb6 <HAL_RCC_ClockConfig+0x46>
    {
      return HAL_ERROR;
 8003cb2:	2301      	movs	r3, #1
 8003cb4:	e09a      	b.n	8003dec <HAL_RCC_ClockConfig+0x17c>
    }
  }

  /*-------------------------- HCLK Configuration --------------------------*/
  if(((RCC_ClkInitStruct->ClockType) & RCC_CLOCKTYPE_HCLK) == RCC_CLOCKTYPE_HCLK)
 8003cb6:	687b      	ldr	r3, [r7, #4]
 8003cb8:	681b      	ldr	r3, [r3, #0]
 8003cba:	2202      	movs	r2, #2
 8003cbc:	4013      	ands	r3, r2
 8003cbe:	d015      	beq.n	8003cec <HAL_RCC_ClockConfig+0x7c>
  {
    /* Set the highest APB divider in order to ensure that we do not go through
       a non-spec phase whatever we decrease or increase HCLK. */
    if(((RCC_ClkInitStruct->ClockType) & RCC_CLOCKTYPE_PCLK1) == RCC_CLOCKTYPE_PCLK1)
 8003cc0:	687b      	ldr	r3, [r7, #4]
 8003cc2:	681b      	ldr	r3, [r3, #0]
 8003cc4:	2204      	movs	r2, #4
 8003cc6:	4013      	ands	r3, r2
 8003cc8:	d006      	beq.n	8003cd8 <HAL_RCC_ClockConfig+0x68>
    {
      MODIFY_REG(RCC->CFGR, RCC_CFGR_PPRE, RCC_HCLK_DIV16);
 8003cca:	4b4b      	ldr	r3, [pc, #300]	@ (8003df8 <HAL_RCC_ClockConfig+0x188>)
 8003ccc:	685a      	ldr	r2, [r3, #4]
 8003cce:	4b4a      	ldr	r3, [pc, #296]	@ (8003df8 <HAL_RCC_ClockConfig+0x188>)
 8003cd0:	21e0      	movs	r1, #224	@ 0xe0
 8003cd2:	00c9      	lsls	r1, r1, #3
 8003cd4:	430a      	orrs	r2, r1
 8003cd6:	605a      	str	r2, [r3, #4]
    }

    /* Set the new HCLK clock divider */
    assert_param(IS_RCC_HCLK(RCC_ClkInitStruct->AHBCLKDivider));
    MODIFY_REG(RCC->CFGR, RCC_CFGR_HPRE, RCC_ClkInitStruct->AHBCLKDivider);
 8003cd8:	4b47      	ldr	r3, [pc, #284]	@ (8003df8 <HAL_RCC_ClockConfig+0x188>)
 8003cda:	685b      	ldr	r3, [r3, #4]
 8003cdc:	22f0      	movs	r2, #240	@ 0xf0
 8003cde:	4393      	bics	r3, r2
 8003ce0:	0019      	movs	r1, r3
 8003ce2:	687b      	ldr	r3, [r7, #4]
 8003ce4:	689a      	ldr	r2, [r3, #8]
 8003ce6:	4b44      	ldr	r3, [pc, #272]	@ (8003df8 <HAL_RCC_ClockConfig+0x188>)
 8003ce8:	430a      	orrs	r2, r1
 8003cea:	605a      	str	r2, [r3, #4]
  }

  /*------------------------- SYSCLK Configuration ---------------------------*/ 
  if(((RCC_ClkInitStruct->ClockType) & RCC_CLOCKTYPE_SYSCLK) == RCC_CLOCKTYPE_SYSCLK)
 8003cec:	687b      	ldr	r3, [r7, #4]
 8003cee:	681b      	ldr	r3, [r3, #0]
 8003cf0:	2201      	movs	r2, #1
 8003cf2:	4013      	ands	r3, r2
 8003cf4:	d040      	beq.n	8003d78 <HAL_RCC_ClockConfig+0x108>
  {
    assert_param(IS_RCC_SYSCLKSOURCE(RCC_ClkInitStruct->SYSCLKSource));
    
    /* HSE is selected as System Clock Source */
    if(RCC_ClkInitStruct->SYSCLKSource == RCC_SYSCLKSOURCE_HSE)
 8003cf6:	687b      	ldr	r3, [r7, #4]
 8003cf8:	685b      	ldr	r3, [r3, #4]
 8003cfa:	2b01      	cmp	r3, #1
 8003cfc:	d107      	bne.n	8003d0e <HAL_RCC_ClockConfig+0x9e>
    {
      /* Check the HSE ready flag */  
      if(__HAL_RCC_GET_FLAG(RCC_FLAG_HSERDY) == RESET)
 8003cfe:	4b3e      	ldr	r3, [pc, #248]	@ (8003df8 <HAL_RCC_ClockConfig+0x188>)
 8003d00:	681a      	ldr	r2, [r3, #0]
 8003d02:	2380      	movs	r3, #128	@ 0x80
 8003d04:	029b      	lsls	r3, r3, #10
 8003d06:	4013      	ands	r3, r2
 8003d08:	d114      	bne.n	8003d34 <HAL_RCC_ClockConfig+0xc4>
      {
        return HAL_ERROR;
 8003d0a:	2301      	movs	r3, #1
 8003d0c:	e06e      	b.n	8003dec <HAL_RCC_ClockConfig+0x17c>
      }
    }
    /* PLL is selected as System Clock Source */
    else if(RCC_ClkInitStruct->SYSCLKSource == RCC_SYSCLKSOURCE_PLLCLK)
 8003d0e:	687b      	ldr	r3, [r7, #4]
 8003d10:	685b      	ldr	r3, [r3, #4]
 8003d12:	2b02      	cmp	r3, #2
 8003d14:	d107      	bne.n	8003d26 <HAL_RCC_ClockConfig+0xb6>
    {
      /* Check the PLL ready flag */  
      if(__HAL_RCC_GET_FLAG(RCC_FLAG_PLLRDY) == RESET)
 8003d16:	4b38      	ldr	r3, [pc, #224]	@ (8003df8 <HAL_RCC_ClockConfig+0x188>)
 8003d18:	681a      	ldr	r2, [r3, #0]
 8003d1a:	2380      	movs	r3, #128	@ 0x80
 8003d1c:	049b      	lsls	r3, r3, #18
 8003d1e:	4013      	ands	r3, r2
 8003d20:	d108      	bne.n	8003d34 <HAL_RCC_ClockConfig+0xc4>
      {
        return HAL_ERROR;
 8003d22:	2301      	movs	r3, #1
 8003d24:	e062      	b.n	8003dec <HAL_RCC_ClockConfig+0x17c>
#endif /* RCC_CFGR_SWS_HSI48 */
    /* HSI is selected as System Clock Source */
    else
    {
      /* Check the HSI ready flag */  
      if(__HAL_RCC_GET_FLAG(RCC_FLAG_HSIRDY) == RESET)
 8003d26:	4b34      	ldr	r3, [pc, #208]	@ (8003df8 <HAL_RCC_ClockConfig+0x188>)
 8003d28:	681b      	ldr	r3, [r3, #0]
 8003d2a:	2202      	movs	r2, #2
 8003d2c:	4013      	ands	r3, r2
 8003d2e:	d101      	bne.n	8003d34 <HAL_RCC_ClockConfig+0xc4>
      {
        return HAL_ERROR;
 8003d30:	2301      	movs	r3, #1
 8003d32:	e05b      	b.n	8003dec <HAL_RCC_ClockConfig+0x17c>
      }
    }
    __HAL_RCC_SYSCLK_CONFIG(RCC_ClkInitStruct->SYSCLKSource);
 8003d34:	4b30      	ldr	r3, [pc, #192]	@ (8003df8 <HAL_RCC_ClockConfig+0x188>)
 8003d36:	685b      	ldr	r3, [r3, #4]
 8003d38:	2203      	movs	r2, #3
 8003d3a:	4393      	bics	r3, r2
 8003d3c:	0019      	movs	r1, r3
 8003d3e:	687b      	ldr	r3, [r7, #4]
 8003d40:	685a      	ldr	r2, [r3, #4]
 8003d42:	4b2d      	ldr	r3, [pc, #180]	@ (8003df8 <HAL_RCC_ClockConfig+0x188>)
 8003d44:	430a      	orrs	r2, r1
 8003d46:	605a      	str	r2, [r3, #4]

    /* Get Start Tick */
    tickstart = HAL_GetTick();
 8003d48:	f7ff f994 	bl	8003074 <HAL_GetTick>
 8003d4c:	0003      	movs	r3, r0
 8003d4e:	60fb      	str	r3, [r7, #12]
    
    while (__HAL_RCC_GET_SYSCLK_SOURCE() != (RCC_ClkInitStruct->SYSCLKSource << RCC_CFGR_SWS_Pos))
 8003d50:	e009      	b.n	8003d66 <HAL_RCC_ClockConfig+0xf6>
    {
      if((HAL_GetTick() - tickstart ) > CLOCKSWITCH_TIMEOUT_VALUE)
 8003d52:	f7ff f98f 	bl	8003074 <HAL_GetTick>
 8003d56:	0002      	movs	r2, r0
 8003d58:	68fb      	ldr	r3, [r7, #12]
 8003d5a:	1ad3      	subs	r3, r2, r3
 8003d5c:	4a27      	ldr	r2, [pc, #156]	@ (8003dfc <HAL_RCC_ClockConfig+0x18c>)
 8003d5e:	4293      	cmp	r3, r2
 8003d60:	d901      	bls.n	8003d66 <HAL_RCC_ClockConfig+0xf6>
      {
        return HAL_TIMEOUT;
 8003d62:	2303      	movs	r3, #3
 8003d64:	e042      	b.n	8003dec <HAL_RCC_ClockConfig+0x17c>
    while (__HAL_RCC_GET_SYSCLK_SOURCE() != (RCC_ClkInitStruct->SYSCLKSource << RCC_CFGR_SWS_Pos))
 8003d66:	4b24      	ldr	r3, [pc, #144]	@ (8003df8 <HAL_RCC_ClockConfig+0x188>)
 8003d68:	685b      	ldr	r3, [r3, #4]
 8003d6a:	220c      	movs	r2, #12
 8003d6c:	401a      	ands	r2, r3
 8003d6e:	687b      	ldr	r3, [r7, #4]
 8003d70:	685b      	ldr	r3, [r3, #4]
 8003d72:	009b      	lsls	r3, r3, #2
 8003d74:	429a      	cmp	r2, r3
 8003d76:	d1ec      	bne.n	8003d52 <HAL_RCC_ClockConfig+0xe2>
      }
    }
  }

  /* Decreasing the number of wait states because of lower CPU frequency */
  if(FLatency < __HAL_FLASH_GET_LATENCY())
 8003d78:	4b1e      	ldr	r3, [pc, #120]	@ (8003df4 <HAL_RCC_ClockConfig+0x184>)
 8003d7a:	681b      	ldr	r3, [r3, #0]
 8003d7c:	2201      	movs	r2, #1
 8003d7e:	4013      	ands	r3, r2
 8003d80:	683a      	ldr	r2, [r7, #0]
 8003d82:	429a      	cmp	r2, r3
 8003d84:	d211      	bcs.n	8003daa <HAL_RCC_ClockConfig+0x13a>
  {    
    /* Program the new number of wait states to the LATENCY bits in the FLASH_ACR register */
    __HAL_FLASH_SET_LATENCY(FLatency);
 8003d86:	4b1b      	ldr	r3, [pc, #108]	@ (8003df4 <HAL_RCC_ClockConfig+0x184>)
 8003d88:	681b      	ldr	r3, [r3, #0]
 8003d8a:	2201      	movs	r2, #1
 8003d8c:	4393      	bics	r3, r2
 8003d8e:	0019      	movs	r1, r3
 8003d90:	4b18      	ldr	r3, [pc, #96]	@ (8003df4 <HAL_RCC_ClockConfig+0x184>)
 8003d92:	683a      	ldr	r2, [r7, #0]
 8003d94:	430a      	orrs	r2, r1
 8003d96:	601a      	str	r2, [r3, #0]
    
    /* Check that the new number of wait states is taken into account to access the Flash
    memory by reading the FLASH_ACR register */
    if(__HAL_FLASH_GET_LATENCY() != FLatency)
 8003d98:	4b16      	ldr	r3, [pc, #88]	@ (8003df4 <HAL_RCC_ClockConfig+0x184>)
 8003d9a:	681b      	ldr	r3, [r3, #0]
 8003d9c:	2201      	movs	r2, #1
 8003d9e:	4013      	ands	r3, r2
 8003da0:	683a      	ldr	r2, [r7, #0]
 8003da2:	429a      	cmp	r2, r3
 8003da4:	d001      	beq.n	8003daa <HAL_RCC_ClockConfig+0x13a>
    {
      return HAL_ERROR;
 8003da6:	2301      	movs	r3, #1
 8003da8:	e020      	b.n	8003dec <HAL_RCC_ClockConfig+0x17c>
    }
  }    

  /*-------------------------- PCLK1 Configuration ---------------------------*/ 
  if(((RCC_ClkInitStruct->ClockType) & RCC_CLOCKTYPE_PCLK1) == RCC_CLOCKTYPE_PCLK1)
 8003daa:	687b      	ldr	r3, [r7, #4]
 8003dac:	681b      	ldr	r3, [r3, #0]
 8003dae:	2204      	movs	r2, #4
 8003db0:	4013      	ands	r3, r2
 8003db2:	d009      	beq.n	8003dc8 <HAL_RCC_ClockConfig+0x158>
  {
    assert_param(IS_RCC_PCLK(RCC_ClkInitStruct->APB1CLKDivider));
    MODIFY_REG(RCC->CFGR, RCC_CFGR_PPRE, RCC_ClkInitStruct->APB1CLKDivider);
 8003db4:	4b10      	ldr	r3, [pc, #64]	@ (8003df8 <HAL_RCC_ClockConfig+0x188>)
 8003db6:	685b      	ldr	r3, [r3, #4]
 8003db8:	4a11      	ldr	r2, [pc, #68]	@ (8003e00 <HAL_RCC_ClockConfig+0x190>)
 8003dba:	4013      	ands	r3, r2
 8003dbc:	0019      	movs	r1, r3
 8003dbe:	687b      	ldr	r3, [r7, #4]
 8003dc0:	68da      	ldr	r2, [r3, #12]
 8003dc2:	4b0d      	ldr	r3, [pc, #52]	@ (8003df8 <HAL_RCC_ClockConfig+0x188>)
 8003dc4:	430a      	orrs	r2, r1
 8003dc6:	605a      	str	r2, [r3, #4]
  }
  
  /* Update the SystemCoreClock global variable */
  SystemCoreClock = HAL_RCC_GetSysClockFreq() >> AHBPrescTable[(RCC->CFGR & RCC_CFGR_HPRE)>> RCC_CFGR_HPRE_BITNUMBER];
 8003dc8:	f000 f820 	bl	8003e0c <HAL_RCC_GetSysClockFreq>
 8003dcc:	0001      	movs	r1, r0
 8003dce:	4b0a      	ldr	r3, [pc, #40]	@ (8003df8 <HAL_RCC_ClockConfig+0x188>)
 8003dd0:	685b      	ldr	r3, [r3, #4]
 8003dd2:	091b      	lsrs	r3, r3, #4
 8003dd4:	220f      	movs	r2, #15
 8003dd6:	4013      	ands	r3, r2
 8003dd8:	4a0a      	ldr	r2, [pc, #40]	@ (8003e04 <HAL_RCC_ClockConfig+0x194>)
 8003dda:	5cd3      	ldrb	r3, [r2, r3]
 8003ddc:	000a      	movs	r2, r1
 8003dde:	40da      	lsrs	r2, r3
 8003de0:	4b09      	ldr	r3, [pc, #36]	@ (8003e08 <HAL_RCC_ClockConfig+0x198>)
 8003de2:	601a      	str	r2, [r3, #0]

  /* Configure the source of time base considering new system clocks settings*/
  HAL_InitTick (TICK_INT_PRIORITY);
 8003de4:	2003      	movs	r0, #3
 8003de6:	f7ff f8ff 	bl	8002fe8 <HAL_InitTick>
  
  return HAL_OK;
 8003dea:	2300      	movs	r3, #0
}
 8003dec:	0018      	movs	r0, r3
 8003dee:	46bd      	mov	sp, r7
 8003df0:	b004      	add	sp, #16
 8003df2:	bd80      	pop	{r7, pc}
 8003df4:	40022000 	.word	0x40022000
 8003df8:	40021000 	.word	0x40021000
 8003dfc:	00001388 	.word	0x00001388
 8003e00:	fffff8ff 	.word	0xfffff8ff
 8003e04:	08008610 	.word	0x08008610
 8003e08:	20000010 	.word	0x20000010

08003e0c <HAL_RCC_GetSysClockFreq>:
  *         right SYSCLK value. Otherwise, any configuration based on this function will be incorrect.
  *         
  * @retval SYSCLK frequency
  */
uint32_t HAL_RCC_GetSysClockFreq(void)
{
 8003e0c:	b580      	push	{r7, lr}
 8003e0e:	b086      	sub	sp, #24
 8003e10:	af00      	add	r7, sp, #0
  static const uint8_t aPLLMULFactorTable[16U] = { 2U,  3U,  4U,  5U,  6U,  7U,  8U,  9U,
                                                   10U, 11U, 12U, 13U, 14U, 15U, 16U, 16U};
  static const uint8_t aPredivFactorTable[16U] = { 1U, 2U,  3U,  4U,  5U,  6U,  7U,  8U,
                                                   9U,10U, 11U, 12U, 13U, 14U, 15U, 16U};

  uint32_t tmpreg = 0U, prediv = 0U, pllclk = 0U, pllmul = 0U;
 8003e12:	2300      	movs	r3, #0
 8003e14:	60fb      	str	r3, [r7, #12]
 8003e16:	2300      	movs	r3, #0
 8003e18:	60bb      	str	r3, [r7, #8]
 8003e1a:	2300      	movs	r3, #0
 8003e1c:	617b      	str	r3, [r7, #20]
 8003e1e:	2300      	movs	r3, #0
 8003e20:	607b      	str	r3, [r7, #4]
  uint32_t sysclockfreq = 0U;
 8003e22:	2300      	movs	r3, #0
 8003e24:	613b      	str	r3, [r7, #16]
  
  tmpreg = RCC->CFGR;
 8003e26:	4b20      	ldr	r3, [pc, #128]	@ (8003ea8 <HAL_RCC_GetSysClockFreq+0x9c>)
 8003e28:	685b      	ldr	r3, [r3, #4]
 8003e2a:	60fb      	str	r3, [r7, #12]
  
  /* Get SYSCLK source -------------------------------------------------------*/
  switch (tmpreg & RCC_CFGR_SWS)
 8003e2c:	68fb      	ldr	r3, [r7, #12]
 8003e2e:	220c      	movs	r2, #12
 8003e30:	4013      	ands	r3, r2
 8003e32:	2b04      	cmp	r3, #4
 8003e34:	d002      	beq.n	8003e3c <HAL_RCC_GetSysClockFreq+0x30>
 8003e36:	2b08      	cmp	r3, #8
 8003e38:	d003      	beq.n	8003e42 <HAL_RCC_GetSysClockFreq+0x36>
 8003e3a:	e02c      	b.n	8003e96 <HAL_RCC_GetSysClockFreq+0x8a>
  {
    case RCC_SYSCLKSOURCE_STATUS_HSE:  /* HSE used as system clock */
    {
      sysclockfreq = HSE_VALUE;
 8003e3c:	4b1b      	ldr	r3, [pc, #108]	@ (8003eac <HAL_RCC_GetSysClockFreq+0xa0>)
 8003e3e:	613b      	str	r3, [r7, #16]
      break;
 8003e40:	e02c      	b.n	8003e9c <HAL_RCC_GetSysClockFreq+0x90>
    }
    case RCC_SYSCLKSOURCE_STATUS_PLLCLK:  /* PLL used as system clock */
    {
      pllmul = aPLLMULFactorTable[(uint32_t)(tmpreg & RCC_CFGR_PLLMUL) >> RCC_CFGR_PLLMUL_BITNUMBER];
 8003e42:	68fb      	ldr	r3, [r7, #12]
 8003e44:	0c9b      	lsrs	r3, r3, #18
 8003e46:	220f      	movs	r2, #15
 8003e48:	4013      	ands	r3, r2
 8003e4a:	4a19      	ldr	r2, [pc, #100]	@ (8003eb0 <HAL_RCC_GetSysClockFreq+0xa4>)
 8003e4c:	5cd3      	ldrb	r3, [r2, r3]
 8003e4e:	607b      	str	r3, [r7, #4]
      prediv = aPredivFactorTable[(uint32_t)(RCC->CFGR2 & RCC_CFGR2_PREDIV) >> RCC_CFGR2_PREDIV_BITNUMBER];
 8003e50:	4b15      	ldr	r3, [pc, #84]	@ (8003ea8 <HAL_RCC_GetSysClockFreq+0x9c>)
 8003e52:	6adb      	ldr	r3, [r3, #44]	@ 0x2c
 8003e54:	220f      	movs	r2, #15
 8003e56:	4013      	ands	r3, r2
 8003e58:	4a16      	ldr	r2, [pc, #88]	@ (8003eb4 <HAL_RCC_GetSysClockFreq+0xa8>)
 8003e5a:	5cd3      	ldrb	r3, [r2, r3]
 8003e5c:	60bb      	str	r3, [r7, #8]
      if ((tmpreg & RCC_CFGR_PLLSRC) == RCC_PLLSOURCE_HSE)
 8003e5e:	68fa      	ldr	r2, [r7, #12]
 8003e60:	2380      	movs	r3, #128	@ 0x80
 8003e62:	025b      	lsls	r3, r3, #9
 8003e64:	4013      	ands	r3, r2
 8003e66:	d009      	beq.n	8003e7c <HAL_RCC_GetSysClockFreq+0x70>
      {
        /* HSE used as PLL clock source : PLLCLK = HSE/PREDIV * PLLMUL */
        pllclk = (uint32_t)((uint64_t) HSE_VALUE / (uint64_t) (prediv)) * ((uint64_t) pllmul);
 8003e68:	68b9      	ldr	r1, [r7, #8]
 8003e6a:	4810      	ldr	r0, [pc, #64]	@ (8003eac <HAL_RCC_GetSysClockFreq+0xa0>)
 8003e6c:	f7fc f968 	bl	8000140 <__udivsi3>
 8003e70:	0003      	movs	r3, r0
 8003e72:	001a      	movs	r2, r3
 8003e74:	687b      	ldr	r3, [r7, #4]
 8003e76:	4353      	muls	r3, r2
 8003e78:	617b      	str	r3, [r7, #20]
 8003e7a:	e009      	b.n	8003e90 <HAL_RCC_GetSysClockFreq+0x84>
#if  (defined(STM32F042x6) || defined(STM32F048xx) || defined(STM32F070x6) || defined(STM32F071xB) || defined(STM32F072xB) || defined(STM32F078xx) || defined(STM32F070xB) || defined(STM32F091xC) || defined(STM32F098xx) || defined(STM32F030xC))
        /* HSI used as PLL clock source : PLLCLK = HSI/PREDIV * PLLMUL */
        pllclk = (uint32_t)((uint64_t) HSI_VALUE / (uint64_t) (prediv)) * ((uint64_t) pllmul);
#else
        /* HSI used as PLL clock source : PLLCLK = HSI/2 * PLLMUL */
        pllclk = (uint32_t)((uint64_t) (HSI_VALUE >> 1U) * ((uint64_t) pllmul));
 8003e7c:	6879      	ldr	r1, [r7, #4]
 8003e7e:	000a      	movs	r2, r1
 8003e80:	0152      	lsls	r2, r2, #5
 8003e82:	1a52      	subs	r2, r2, r1
 8003e84:	0193      	lsls	r3, r2, #6
 8003e86:	1a9b      	subs	r3, r3, r2
 8003e88:	00db      	lsls	r3, r3, #3
 8003e8a:	185b      	adds	r3, r3, r1
 8003e8c:	021b      	lsls	r3, r3, #8
 8003e8e:	617b      	str	r3, [r7, #20]
#endif
      }
      sysclockfreq = pllclk;
 8003e90:	697b      	ldr	r3, [r7, #20]
 8003e92:	613b      	str	r3, [r7, #16]
      break;
 8003e94:	e002      	b.n	8003e9c <HAL_RCC_GetSysClockFreq+0x90>
    }
#endif /* RCC_CFGR_SWS_HSI48 */
    case RCC_SYSCLKSOURCE_STATUS_HSI:  /* HSI used as system clock source */
    default: /* HSI used as system clock */
    {
      sysclockfreq = HSI_VALUE;
 8003e96:	4b05      	ldr	r3, [pc, #20]	@ (8003eac <HAL_RCC_GetSysClockFreq+0xa0>)
 8003e98:	613b      	str	r3, [r7, #16]
      break;
 8003e9a:	46c0      	nop			@ (mov r8, r8)
    }
  }
  return sysclockfreq;
 8003e9c:	693b      	ldr	r3, [r7, #16]
}
 8003e9e:	0018      	movs	r0, r3
 8003ea0:	46bd      	mov	sp, r7
 8003ea2:	b006      	add	sp, #24
 8003ea4:	bd80      	pop	{r7, pc}
 8003ea6:	46c0      	nop			@ (mov r8, r8)
 8003ea8:	40021000 	.word	0x40021000
 8003eac:	007a1200 	.word	0x007a1200
 8003eb0:	08008628 	.word	0x08008628
 8003eb4:	08008638 	.word	0x08008638

08003eb8 <HAL_RCC_GetHCLKFreq>:
  * @note   The SystemCoreClock CMSIS variable is used to store System Clock Frequency 
  *         and updated within this function
  * @retval HCLK frequency
  */
uint32_t HAL_RCC_GetHCLKFreq(void)
{
 8003eb8:	b580      	push	{r7, lr}
 8003eba:	af00      	add	r7, sp, #0
  return SystemCoreClock;
 8003ebc:	4b02      	ldr	r3, [pc, #8]	@ (8003ec8 <HAL_RCC_GetHCLKFreq+0x10>)
 8003ebe:	681b      	ldr	r3, [r3, #0]
}
 8003ec0:	0018      	movs	r0, r3
 8003ec2:	46bd      	mov	sp, r7
 8003ec4:	bd80      	pop	{r7, pc}
 8003ec6:	46c0      	nop			@ (mov r8, r8)
 8003ec8:	20000010 	.word	0x20000010

08003ecc <HAL_RCC_GetPCLK1Freq>:
  * @note   Each time PCLK1 changes, this function must be called to update the
  *         right PCLK1 value. Otherwise, any configuration based on this function will be incorrect.
  * @retval PCLK1 frequency
  */
uint32_t HAL_RCC_GetPCLK1Freq(void)
{
 8003ecc:	b580      	push	{r7, lr}
 8003ece:	af00      	add	r7, sp, #0
  /* Get HCLK source and Compute PCLK1 frequency ---------------------------*/
  return (HAL_RCC_GetHCLKFreq() >> APBPrescTable[(RCC->CFGR & RCC_CFGR_PPRE) >> RCC_CFGR_PPRE_BITNUMBER]);
 8003ed0:	f7ff fff2 	bl	8003eb8 <HAL_RCC_GetHCLKFreq>
 8003ed4:	0001      	movs	r1, r0
 8003ed6:	4b06      	ldr	r3, [pc, #24]	@ (8003ef0 <HAL_RCC_GetPCLK1Freq+0x24>)
 8003ed8:	685b      	ldr	r3, [r3, #4]
 8003eda:	0a1b      	lsrs	r3, r3, #8
 8003edc:	2207      	movs	r2, #7
 8003ede:	4013      	ands	r3, r2
 8003ee0:	4a04      	ldr	r2, [pc, #16]	@ (8003ef4 <HAL_RCC_GetPCLK1Freq+0x28>)
 8003ee2:	5cd3      	ldrb	r3, [r2, r3]
 8003ee4:	40d9      	lsrs	r1, r3
 8003ee6:	000b      	movs	r3, r1
}    
 8003ee8:	0018      	movs	r0, r3
 8003eea:	46bd      	mov	sp, r7
 8003eec:	bd80      	pop	{r7, pc}
 8003eee:	46c0      	nop			@ (mov r8, r8)
 8003ef0:	40021000 	.word	0x40021000
 8003ef4:	08008620 	.word	0x08008620

08003ef8 <HAL_UART_Init>:
  *        parameters in the UART_InitTypeDef and initialize the associated handle.
  * @param huart UART handle.
  * @retval HAL status
  */
HAL_StatusTypeDef HAL_UART_Init(UART_HandleTypeDef *huart)
{
 8003ef8:	b580      	push	{r7, lr}
 8003efa:	b082      	sub	sp, #8
 8003efc:	af00      	add	r7, sp, #0
 8003efe:	6078      	str	r0, [r7, #4]
  /* Check the UART handle allocation */
  if (huart == NULL)
 8003f00:	687b      	ldr	r3, [r7, #4]
 8003f02:	2b00      	cmp	r3, #0
 8003f04:	d101      	bne.n	8003f0a <HAL_UART_Init+0x12>
  {
    return HAL_ERROR;
 8003f06:	2301      	movs	r3, #1
 8003f08:	e044      	b.n	8003f94 <HAL_UART_Init+0x9c>
  {
    /* Check the parameters */
    assert_param(IS_UART_INSTANCE(huart->Instance));
  }

  if (huart->gState == HAL_UART_STATE_RESET)
 8003f0a:	687b      	ldr	r3, [r7, #4]
 8003f0c:	6fdb      	ldr	r3, [r3, #124]	@ 0x7c
 8003f0e:	2b00      	cmp	r3, #0
 8003f10:	d107      	bne.n	8003f22 <HAL_UART_Init+0x2a>
  {
    /* Allocate lock resource and initialize it */
    huart->Lock = HAL_UNLOCKED;
 8003f12:	687b      	ldr	r3, [r7, #4]
 8003f14:	2278      	movs	r2, #120	@ 0x78
 8003f16:	2100      	movs	r1, #0
 8003f18:	5499      	strb	r1, [r3, r2]

    /* Init the low level hardware */
    huart->MspInitCallback(huart);
#else
    /* Init the low level hardware : GPIO, CLOCK */
    HAL_UART_MspInit(huart);
 8003f1a:	687b      	ldr	r3, [r7, #4]
 8003f1c:	0018      	movs	r0, r3
 8003f1e:	f7fe ff9b 	bl	8002e58 <HAL_UART_MspInit>
#endif /* (USE_HAL_UART_REGISTER_CALLBACKS) */
  }

  huart->gState = HAL_UART_STATE_BUSY;
 8003f22:	687b      	ldr	r3, [r7, #4]
 8003f24:	2224      	movs	r2, #36	@ 0x24
 8003f26:	67da      	str	r2, [r3, #124]	@ 0x7c

  __HAL_UART_DISABLE(huart);
 8003f28:	687b      	ldr	r3, [r7, #4]
 8003f2a:	681b      	ldr	r3, [r3, #0]
 8003f2c:	681a      	ldr	r2, [r3, #0]
 8003f2e:	687b      	ldr	r3, [r7, #4]
 8003f30:	681b      	ldr	r3, [r3, #0]
 8003f32:	2101      	movs	r1, #1
 8003f34:	438a      	bics	r2, r1
 8003f36:	601a      	str	r2, [r3, #0]

  /* Perform advanced settings configuration */
  /* For some items, configuration requires to be done prior TE and RE bits are set */
  if (huart->AdvancedInit.AdvFeatureInit != UART_ADVFEATURE_NO_INIT)
 8003f38:	687b      	ldr	r3, [r7, #4]
 8003f3a:	6a5b      	ldr	r3, [r3, #36]	@ 0x24
 8003f3c:	2b00      	cmp	r3, #0
 8003f3e:	d003      	beq.n	8003f48 <HAL_UART_Init+0x50>
  {
    UART_AdvFeatureConfig(huart);
 8003f40:	687b      	ldr	r3, [r7, #4]
 8003f42:	0018      	movs	r0, r3
 8003f44:	f000 fd46 	bl	80049d4 <UART_AdvFeatureConfig>
  }

  /* Set the UART Communication parameters */
  if (UART_SetConfig(huart) == HAL_ERROR)
 8003f48:	687b      	ldr	r3, [r7, #4]
 8003f4a:	0018      	movs	r0, r3
 8003f4c:	f000 fc02 	bl	8004754 <UART_SetConfig>
 8003f50:	0003      	movs	r3, r0
 8003f52:	2b01      	cmp	r3, #1
 8003f54:	d101      	bne.n	8003f5a <HAL_UART_Init+0x62>
  {
    return HAL_ERROR;
 8003f56:	2301      	movs	r3, #1
 8003f58:	e01c      	b.n	8003f94 <HAL_UART_Init+0x9c>
  - LINEN (if LIN is supported) and CLKEN bits in the USART_CR2 register,
  - SCEN (if Smartcard is supported), HDSEL and IREN (if IrDA is supported)  bits in the USART_CR3 register.*/
#if defined (USART_CR2_LINEN)
  CLEAR_BIT(huart->Instance->CR2, (USART_CR2_LINEN | USART_CR2_CLKEN));
#else
  CLEAR_BIT(huart->Instance->CR2, USART_CR2_CLKEN);
 8003f5a:	687b      	ldr	r3, [r7, #4]
 8003f5c:	681b      	ldr	r3, [r3, #0]
 8003f5e:	685a      	ldr	r2, [r3, #4]
 8003f60:	687b      	ldr	r3, [r7, #4]
 8003f62:	681b      	ldr	r3, [r3, #0]
 8003f64:	490d      	ldr	r1, [pc, #52]	@ (8003f9c <HAL_UART_Init+0xa4>)
 8003f66:	400a      	ands	r2, r1
 8003f68:	605a      	str	r2, [r3, #4]
#endif /* USART_CR3_IREN */
#else
#if defined (USART_CR3_IREN)
  CLEAR_BIT(huart->Instance->CR3, (USART_CR3_HDSEL | USART_CR3_IREN));
#else
  CLEAR_BIT(huart->Instance->CR3, USART_CR3_HDSEL);
 8003f6a:	687b      	ldr	r3, [r7, #4]
 8003f6c:	681b      	ldr	r3, [r3, #0]
 8003f6e:	689a      	ldr	r2, [r3, #8]
 8003f70:	687b      	ldr	r3, [r7, #4]
 8003f72:	681b      	ldr	r3, [r3, #0]
 8003f74:	2108      	movs	r1, #8
 8003f76:	438a      	bics	r2, r1
 8003f78:	609a      	str	r2, [r3, #8]
#endif /* USART_CR3_IREN*/
#endif /* USART_CR3_SCEN */

  __HAL_UART_ENABLE(huart);
 8003f7a:	687b      	ldr	r3, [r7, #4]
 8003f7c:	681b      	ldr	r3, [r3, #0]
 8003f7e:	681a      	ldr	r2, [r3, #0]
 8003f80:	687b      	ldr	r3, [r7, #4]
 8003f82:	681b      	ldr	r3, [r3, #0]
 8003f84:	2101      	movs	r1, #1
 8003f86:	430a      	orrs	r2, r1
 8003f88:	601a      	str	r2, [r3, #0]

  /* TEACK and/or REACK to check before moving huart->gState and huart->RxState to Ready */
  return (UART_CheckIdleState(huart));
 8003f8a:	687b      	ldr	r3, [r7, #4]
 8003f8c:	0018      	movs	r0, r3
 8003f8e:	f000 fdd5 	bl	8004b3c <UART_CheckIdleState>
 8003f92:	0003      	movs	r3, r0
}
 8003f94:	0018      	movs	r0, r3
 8003f96:	46bd      	mov	sp, r7
 8003f98:	b002      	add	sp, #8
 8003f9a:	bd80      	pop	{r7, pc}
 8003f9c:	fffff7ff 	.word	0xfffff7ff

08003fa0 <HAL_UART_Transmit>:
  * @param Size    Amount of data elements (u8 or u16) to be sent.
  * @param Timeout Timeout duration.
  * @retval HAL status
  */
HAL_StatusTypeDef HAL_UART_Transmit(UART_HandleTypeDef *huart, const uint8_t *pData, uint16_t Size, uint32_t Timeout)
{
 8003fa0:	b580      	push	{r7, lr}
 8003fa2:	b08a      	sub	sp, #40	@ 0x28
 8003fa4:	af02      	add	r7, sp, #8
 8003fa6:	60f8      	str	r0, [r7, #12]
 8003fa8:	60b9      	str	r1, [r7, #8]
 8003faa:	603b      	str	r3, [r7, #0]
 8003fac:	1dbb      	adds	r3, r7, #6
 8003fae:	801a      	strh	r2, [r3, #0]
  const uint8_t  *pdata8bits;
  const uint16_t *pdata16bits;
  uint32_t tickstart;

  /* Check that a Tx process is not already ongoing */
  if (huart->gState == HAL_UART_STATE_READY)
 8003fb0:	68fb      	ldr	r3, [r7, #12]
 8003fb2:	6fdb      	ldr	r3, [r3, #124]	@ 0x7c
 8003fb4:	2b20      	cmp	r3, #32
 8003fb6:	d000      	beq.n	8003fba <HAL_UART_Transmit+0x1a>
 8003fb8:	e08c      	b.n	80040d4 <HAL_UART_Transmit+0x134>
  {
    if ((pData == NULL) || (Size == 0U))
 8003fba:	68bb      	ldr	r3, [r7, #8]
 8003fbc:	2b00      	cmp	r3, #0
 8003fbe:	d003      	beq.n	8003fc8 <HAL_UART_Transmit+0x28>
 8003fc0:	1dbb      	adds	r3, r7, #6
 8003fc2:	881b      	ldrh	r3, [r3, #0]
 8003fc4:	2b00      	cmp	r3, #0
 8003fc6:	d101      	bne.n	8003fcc <HAL_UART_Transmit+0x2c>
    {
      return  HAL_ERROR;
 8003fc8:	2301      	movs	r3, #1
 8003fca:	e084      	b.n	80040d6 <HAL_UART_Transmit+0x136>
    }

    /* In case of 9bits/No Parity transfer, pData buffer provided as input parameter
       should be aligned on a u16 frontier, as data to be filled into TDR will be
       handled through a u16 cast. */
    if ((huart->Init.WordLength == UART_WORDLENGTH_9B) && (huart->Init.Parity == UART_PARITY_NONE))
 8003fcc:	68fb      	ldr	r3, [r7, #12]
 8003fce:	689a      	ldr	r2, [r3, #8]
 8003fd0:	2380      	movs	r3, #128	@ 0x80
 8003fd2:	015b      	lsls	r3, r3, #5
 8003fd4:	429a      	cmp	r2, r3
 8003fd6:	d109      	bne.n	8003fec <HAL_UART_Transmit+0x4c>
 8003fd8:	68fb      	ldr	r3, [r7, #12]
 8003fda:	691b      	ldr	r3, [r3, #16]
 8003fdc:	2b00      	cmp	r3, #0
 8003fde:	d105      	bne.n	8003fec <HAL_UART_Transmit+0x4c>
    {
      if ((((uint32_t)pData) & 1U) != 0U)
 8003fe0:	68bb      	ldr	r3, [r7, #8]
 8003fe2:	2201      	movs	r2, #1
 8003fe4:	4013      	ands	r3, r2
 8003fe6:	d001      	beq.n	8003fec <HAL_UART_Transmit+0x4c>
      {
        return  HAL_ERROR;
 8003fe8:	2301      	movs	r3, #1
 8003fea:	e074      	b.n	80040d6 <HAL_UART_Transmit+0x136>
      }
    }

    huart->ErrorCode = HAL_UART_ERROR_NONE;
 8003fec:	68fb      	ldr	r3, [r7, #12]
 8003fee:	2284      	movs	r2, #132	@ 0x84
 8003ff0:	2100      	movs	r1, #0
 8003ff2:	5099      	str	r1, [r3, r2]
    huart->gState = HAL_UART_STATE_BUSY_TX;
 8003ff4:	68fb      	ldr	r3, [r7, #12]
 8003ff6:	2221      	movs	r2, #33	@ 0x21
 8003ff8:	67da      	str	r2, [r3, #124]	@ 0x7c

    /* Init tickstart for timeout management */
    tickstart = HAL_GetTick();
 8003ffa:	f7ff f83b 	bl	8003074 <HAL_GetTick>
 8003ffe:	0003      	movs	r3, r0
 8004000:	617b      	str	r3, [r7, #20]

    huart->TxXferSize  = Size;
 8004002:	68fb      	ldr	r3, [r7, #12]
 8004004:	1dba      	adds	r2, r7, #6
 8004006:	2150      	movs	r1, #80	@ 0x50
 8004008:	8812      	ldrh	r2, [r2, #0]
 800400a:	525a      	strh	r2, [r3, r1]
    huart->TxXferCount = Size;
 800400c:	68fb      	ldr	r3, [r7, #12]
 800400e:	1dba      	adds	r2, r7, #6
 8004010:	2152      	movs	r1, #82	@ 0x52
 8004012:	8812      	ldrh	r2, [r2, #0]
 8004014:	525a      	strh	r2, [r3, r1]

    /* In case of 9bits/No Parity transfer, pData needs to be handled as a uint16_t pointer */
    if ((huart->Init.WordLength == UART_WORDLENGTH_9B) && (huart->Init.Parity == UART_PARITY_NONE))
 8004016:	68fb      	ldr	r3, [r7, #12]
 8004018:	689a      	ldr	r2, [r3, #8]
 800401a:	2380      	movs	r3, #128	@ 0x80
 800401c:	015b      	lsls	r3, r3, #5
 800401e:	429a      	cmp	r2, r3
 8004020:	d108      	bne.n	8004034 <HAL_UART_Transmit+0x94>
 8004022:	68fb      	ldr	r3, [r7, #12]
 8004024:	691b      	ldr	r3, [r3, #16]
 8004026:	2b00      	cmp	r3, #0
 8004028:	d104      	bne.n	8004034 <HAL_UART_Transmit+0x94>
    {
      pdata8bits  = NULL;
 800402a:	2300      	movs	r3, #0
 800402c:	61fb      	str	r3, [r7, #28]
      pdata16bits = (const uint16_t *) pData;
 800402e:	68bb      	ldr	r3, [r7, #8]
 8004030:	61bb      	str	r3, [r7, #24]
 8004032:	e003      	b.n	800403c <HAL_UART_Transmit+0x9c>
    }
    else
    {
      pdata8bits  = pData;
 8004034:	68bb      	ldr	r3, [r7, #8]
 8004036:	61fb      	str	r3, [r7, #28]
      pdata16bits = NULL;
 8004038:	2300      	movs	r3, #0
 800403a:	61bb      	str	r3, [r7, #24]
    }

    while (huart->TxXferCount > 0U)
 800403c:	e02f      	b.n	800409e <HAL_UART_Transmit+0xfe>
    {
      if (UART_WaitOnFlagUntilTimeout(huart, UART_FLAG_TXE, RESET, tickstart, Timeout) != HAL_OK)
 800403e:	697a      	ldr	r2, [r7, #20]
 8004040:	68f8      	ldr	r0, [r7, #12]
 8004042:	683b      	ldr	r3, [r7, #0]
 8004044:	9300      	str	r3, [sp, #0]
 8004046:	0013      	movs	r3, r2
 8004048:	2200      	movs	r2, #0
 800404a:	2180      	movs	r1, #128	@ 0x80
 800404c:	f000 fe1e 	bl	8004c8c <UART_WaitOnFlagUntilTimeout>
 8004050:	1e03      	subs	r3, r0, #0
 8004052:	d004      	beq.n	800405e <HAL_UART_Transmit+0xbe>
      {

        huart->gState = HAL_UART_STATE_READY;
 8004054:	68fb      	ldr	r3, [r7, #12]
 8004056:	2220      	movs	r2, #32
 8004058:	67da      	str	r2, [r3, #124]	@ 0x7c

        return HAL_TIMEOUT;
 800405a:	2303      	movs	r3, #3
 800405c:	e03b      	b.n	80040d6 <HAL_UART_Transmit+0x136>
      }
      if (pdata8bits == NULL)
 800405e:	69fb      	ldr	r3, [r7, #28]
 8004060:	2b00      	cmp	r3, #0
 8004062:	d10b      	bne.n	800407c <HAL_UART_Transmit+0xdc>
      {
        huart->Instance->TDR = (uint16_t)(*pdata16bits & 0x01FFU);
 8004064:	69bb      	ldr	r3, [r7, #24]
 8004066:	881a      	ldrh	r2, [r3, #0]
 8004068:	68fb      	ldr	r3, [r7, #12]
 800406a:	681b      	ldr	r3, [r3, #0]
 800406c:	05d2      	lsls	r2, r2, #23
 800406e:	0dd2      	lsrs	r2, r2, #23
 8004070:	b292      	uxth	r2, r2
 8004072:	851a      	strh	r2, [r3, #40]	@ 0x28
        pdata16bits++;
 8004074:	69bb      	ldr	r3, [r7, #24]
 8004076:	3302      	adds	r3, #2
 8004078:	61bb      	str	r3, [r7, #24]
 800407a:	e007      	b.n	800408c <HAL_UART_Transmit+0xec>
      }
      else
      {
        huart->Instance->TDR = (uint8_t)(*pdata8bits & 0xFFU);
 800407c:	69fb      	ldr	r3, [r7, #28]
 800407e:	781a      	ldrb	r2, [r3, #0]
 8004080:	68fb      	ldr	r3, [r7, #12]
 8004082:	681b      	ldr	r3, [r3, #0]
 8004084:	851a      	strh	r2, [r3, #40]	@ 0x28
        pdata8bits++;
 8004086:	69fb      	ldr	r3, [r7, #28]
 8004088:	3301      	adds	r3, #1
 800408a:	61fb      	str	r3, [r7, #28]
      }
      huart->TxXferCount--;
 800408c:	68fb      	ldr	r3, [r7, #12]
 800408e:	2252      	movs	r2, #82	@ 0x52
 8004090:	5a9b      	ldrh	r3, [r3, r2]
 8004092:	b29b      	uxth	r3, r3
 8004094:	3b01      	subs	r3, #1
 8004096:	b299      	uxth	r1, r3
 8004098:	68fb      	ldr	r3, [r7, #12]
 800409a:	2252      	movs	r2, #82	@ 0x52
 800409c:	5299      	strh	r1, [r3, r2]
    while (huart->TxXferCount > 0U)
 800409e:	68fb      	ldr	r3, [r7, #12]
 80040a0:	2252      	movs	r2, #82	@ 0x52
 80040a2:	5a9b      	ldrh	r3, [r3, r2]
 80040a4:	b29b      	uxth	r3, r3
 80040a6:	2b00      	cmp	r3, #0
 80040a8:	d1c9      	bne.n	800403e <HAL_UART_Transmit+0x9e>
    }

    if (UART_WaitOnFlagUntilTimeout(huart, UART_FLAG_TC, RESET, tickstart, Timeout) != HAL_OK)
 80040aa:	697a      	ldr	r2, [r7, #20]
 80040ac:	68f8      	ldr	r0, [r7, #12]
 80040ae:	683b      	ldr	r3, [r7, #0]
 80040b0:	9300      	str	r3, [sp, #0]
 80040b2:	0013      	movs	r3, r2
 80040b4:	2200      	movs	r2, #0
 80040b6:	2140      	movs	r1, #64	@ 0x40
 80040b8:	f000 fde8 	bl	8004c8c <UART_WaitOnFlagUntilTimeout>
 80040bc:	1e03      	subs	r3, r0, #0
 80040be:	d004      	beq.n	80040ca <HAL_UART_Transmit+0x12a>
    {
      huart->gState = HAL_UART_STATE_READY;
 80040c0:	68fb      	ldr	r3, [r7, #12]
 80040c2:	2220      	movs	r2, #32
 80040c4:	67da      	str	r2, [r3, #124]	@ 0x7c

      return HAL_TIMEOUT;
 80040c6:	2303      	movs	r3, #3
 80040c8:	e005      	b.n	80040d6 <HAL_UART_Transmit+0x136>
    }

    /* At end of Tx process, restore huart->gState to Ready */
    huart->gState = HAL_UART_STATE_READY;
 80040ca:	68fb      	ldr	r3, [r7, #12]
 80040cc:	2220      	movs	r2, #32
 80040ce:	67da      	str	r2, [r3, #124]	@ 0x7c

    return HAL_OK;
 80040d0:	2300      	movs	r3, #0
 80040d2:	e000      	b.n	80040d6 <HAL_UART_Transmit+0x136>
  }
  else
  {
    return HAL_BUSY;
 80040d4:	2302      	movs	r3, #2
  }
}
 80040d6:	0018      	movs	r0, r3
 80040d8:	46bd      	mov	sp, r7
 80040da:	b008      	add	sp, #32
 80040dc:	bd80      	pop	{r7, pc}

080040de <HAL_UART_Receive_IT>:
  * @param pData Pointer to data buffer (u8 or u16 data elements).
  * @param Size  Amount of data elements (u8 or u16) to be received.
  * @retval HAL status
  */
HAL_StatusTypeDef HAL_UART_Receive_IT(UART_HandleTypeDef *huart, uint8_t *pData, uint16_t Size)
{
 80040de:	b580      	push	{r7, lr}
 80040e0:	b088      	sub	sp, #32
 80040e2:	af00      	add	r7, sp, #0
 80040e4:	60f8      	str	r0, [r7, #12]
 80040e6:	60b9      	str	r1, [r7, #8]
 80040e8:	1dbb      	adds	r3, r7, #6
 80040ea:	801a      	strh	r2, [r3, #0]
  /* Check that a Rx process is not already ongoing */
  if (huart->RxState == HAL_UART_STATE_READY)
 80040ec:	68fb      	ldr	r3, [r7, #12]
 80040ee:	2280      	movs	r2, #128	@ 0x80
 80040f0:	589b      	ldr	r3, [r3, r2]
 80040f2:	2b20      	cmp	r3, #32
 80040f4:	d145      	bne.n	8004182 <HAL_UART_Receive_IT+0xa4>
  {
    if ((pData == NULL) || (Size == 0U))
 80040f6:	68bb      	ldr	r3, [r7, #8]
 80040f8:	2b00      	cmp	r3, #0
 80040fa:	d003      	beq.n	8004104 <HAL_UART_Receive_IT+0x26>
 80040fc:	1dbb      	adds	r3, r7, #6
 80040fe:	881b      	ldrh	r3, [r3, #0]
 8004100:	2b00      	cmp	r3, #0
 8004102:	d101      	bne.n	8004108 <HAL_UART_Receive_IT+0x2a>
    {
      return HAL_ERROR;
 8004104:	2301      	movs	r3, #1
 8004106:	e03d      	b.n	8004184 <HAL_UART_Receive_IT+0xa6>
    }

    /* In case of 9bits/No Parity transfer, pData buffer provided as input parameter
       should be aligned on a u16 frontier, as data to be received from RDR will be
       handled through a u16 cast. */
    if ((huart->Init.WordLength == UART_WORDLENGTH_9B) && (huart->Init.Parity == UART_PARITY_NONE))
 8004108:	68fb      	ldr	r3, [r7, #12]
 800410a:	689a      	ldr	r2, [r3, #8]
 800410c:	2380      	movs	r3, #128	@ 0x80
 800410e:	015b      	lsls	r3, r3, #5
 8004110:	429a      	cmp	r2, r3
 8004112:	d109      	bne.n	8004128 <HAL_UART_Receive_IT+0x4a>
 8004114:	68fb      	ldr	r3, [r7, #12]
 8004116:	691b      	ldr	r3, [r3, #16]
 8004118:	2b00      	cmp	r3, #0
 800411a:	d105      	bne.n	8004128 <HAL_UART_Receive_IT+0x4a>
    {
      if ((((uint32_t)pData) & 1U) != 0U)
 800411c:	68bb      	ldr	r3, [r7, #8]
 800411e:	2201      	movs	r2, #1
 8004120:	4013      	ands	r3, r2
 8004122:	d001      	beq.n	8004128 <HAL_UART_Receive_IT+0x4a>
      {
        return  HAL_ERROR;
 8004124:	2301      	movs	r3, #1
 8004126:	e02d      	b.n	8004184 <HAL_UART_Receive_IT+0xa6>
      }
    }

    /* Set Reception type to Standard reception */
    huart->ReceptionType = HAL_UART_RECEPTION_STANDARD;
 8004128:	68fb      	ldr	r3, [r7, #12]
 800412a:	2200      	movs	r2, #0
 800412c:	661a      	str	r2, [r3, #96]	@ 0x60

    /* Check that USART RTOEN bit is set */
    if (READ_BIT(huart->Instance->CR2, USART_CR2_RTOEN) != 0U)
 800412e:	68fb      	ldr	r3, [r7, #12]
 8004130:	681b      	ldr	r3, [r3, #0]
 8004132:	685a      	ldr	r2, [r3, #4]
 8004134:	2380      	movs	r3, #128	@ 0x80
 8004136:	041b      	lsls	r3, r3, #16
 8004138:	4013      	ands	r3, r2
 800413a:	d019      	beq.n	8004170 <HAL_UART_Receive_IT+0x92>
 */
__STATIC_FORCEINLINE uint32_t __get_PRIMASK(void)
{
  uint32_t result;

  __ASM volatile ("MRS %0, primask" : "=r" (result) :: "memory");
 800413c:	f3ef 8310 	mrs	r3, PRIMASK
 8004140:	613b      	str	r3, [r7, #16]
  return(result);
 8004142:	693b      	ldr	r3, [r7, #16]
    {
      /* Enable the UART Receiver Timeout Interrupt */
      ATOMIC_SET_BIT(huart->Instance->CR1, USART_CR1_RTOIE);
 8004144:	61fb      	str	r3, [r7, #28]
 8004146:	2301      	movs	r3, #1
 8004148:	617b      	str	r3, [r7, #20]
  \details Assigns the given value to the Priority Mask Register.
  \param [in]    priMask  Priority Mask
 */
__STATIC_FORCEINLINE void __set_PRIMASK(uint32_t priMask)
{
  __ASM volatile ("MSR primask, %0" : : "r" (priMask) : "memory");
 800414a:	697b      	ldr	r3, [r7, #20]
 800414c:	f383 8810 	msr	PRIMASK, r3
}
 8004150:	46c0      	nop			@ (mov r8, r8)
 8004152:	68fb      	ldr	r3, [r7, #12]
 8004154:	681b      	ldr	r3, [r3, #0]
 8004156:	681a      	ldr	r2, [r3, #0]
 8004158:	68fb      	ldr	r3, [r7, #12]
 800415a:	681b      	ldr	r3, [r3, #0]
 800415c:	2180      	movs	r1, #128	@ 0x80
 800415e:	04c9      	lsls	r1, r1, #19
 8004160:	430a      	orrs	r2, r1
 8004162:	601a      	str	r2, [r3, #0]
 8004164:	69fb      	ldr	r3, [r7, #28]
 8004166:	61bb      	str	r3, [r7, #24]
  __ASM volatile ("MSR primask, %0" : : "r" (priMask) : "memory");
 8004168:	69bb      	ldr	r3, [r7, #24]
 800416a:	f383 8810 	msr	PRIMASK, r3
}
 800416e:	46c0      	nop			@ (mov r8, r8)
    }

    return (UART_Start_Receive_IT(huart, pData, Size));
 8004170:	1dbb      	adds	r3, r7, #6
 8004172:	881a      	ldrh	r2, [r3, #0]
 8004174:	68b9      	ldr	r1, [r7, #8]
 8004176:	68fb      	ldr	r3, [r7, #12]
 8004178:	0018      	movs	r0, r3
 800417a:	f000 fdf7 	bl	8004d6c <UART_Start_Receive_IT>
 800417e:	0003      	movs	r3, r0
 8004180:	e000      	b.n	8004184 <HAL_UART_Receive_IT+0xa6>
  }
  else
  {
    return HAL_BUSY;
 8004182:	2302      	movs	r3, #2
  }
}
 8004184:	0018      	movs	r0, r3
 8004186:	46bd      	mov	sp, r7
 8004188:	b008      	add	sp, #32
 800418a:	bd80      	pop	{r7, pc}

0800418c <HAL_UART_IRQHandler>:
  * @brief Handle UART interrupt request.
  * @param huart UART handle.
  * @retval None
  */
void HAL_UART_IRQHandler(UART_HandleTypeDef *huart)
{
 800418c:	b590      	push	{r4, r7, lr}
 800418e:	b0ab      	sub	sp, #172	@ 0xac
 8004190:	af00      	add	r7, sp, #0
 8004192:	6078      	str	r0, [r7, #4]
  uint32_t isrflags   = READ_REG(huart->Instance->ISR);
 8004194:	687b      	ldr	r3, [r7, #4]
 8004196:	681b      	ldr	r3, [r3, #0]
 8004198:	69db      	ldr	r3, [r3, #28]
 800419a:	22a4      	movs	r2, #164	@ 0xa4
 800419c:	18b9      	adds	r1, r7, r2
 800419e:	600b      	str	r3, [r1, #0]
  uint32_t cr1its     = READ_REG(huart->Instance->CR1);
 80041a0:	687b      	ldr	r3, [r7, #4]
 80041a2:	681b      	ldr	r3, [r3, #0]
 80041a4:	681b      	ldr	r3, [r3, #0]
 80041a6:	20a0      	movs	r0, #160	@ 0xa0
 80041a8:	1839      	adds	r1, r7, r0
 80041aa:	600b      	str	r3, [r1, #0]
  uint32_t cr3its     = READ_REG(huart->Instance->CR3);
 80041ac:	687b      	ldr	r3, [r7, #4]
 80041ae:	681b      	ldr	r3, [r3, #0]
 80041b0:	689b      	ldr	r3, [r3, #8]
 80041b2:	219c      	movs	r1, #156	@ 0x9c
 80041b4:	1879      	adds	r1, r7, r1
 80041b6:	600b      	str	r3, [r1, #0]

  uint32_t errorflags;
  uint32_t errorcode;

  /* If no error occurs */
  errorflags = (isrflags & (uint32_t)(USART_ISR_PE | USART_ISR_FE | USART_ISR_ORE | USART_ISR_NE | USART_ISR_RTOF));
 80041b8:	0011      	movs	r1, r2
 80041ba:	18bb      	adds	r3, r7, r2
 80041bc:	681b      	ldr	r3, [r3, #0]
 80041be:	4a99      	ldr	r2, [pc, #612]	@ (8004424 <HAL_UART_IRQHandler+0x298>)
 80041c0:	4013      	ands	r3, r2
 80041c2:	2298      	movs	r2, #152	@ 0x98
 80041c4:	18bc      	adds	r4, r7, r2
 80041c6:	6023      	str	r3, [r4, #0]
  if (errorflags == 0U)
 80041c8:	18bb      	adds	r3, r7, r2
 80041ca:	681b      	ldr	r3, [r3, #0]
 80041cc:	2b00      	cmp	r3, #0
 80041ce:	d114      	bne.n	80041fa <HAL_UART_IRQHandler+0x6e>
  {
    /* UART in mode Receiver ---------------------------------------------------*/
    if (((isrflags & USART_ISR_RXNE) != 0U)
 80041d0:	187b      	adds	r3, r7, r1
 80041d2:	681b      	ldr	r3, [r3, #0]
 80041d4:	2220      	movs	r2, #32
 80041d6:	4013      	ands	r3, r2
 80041d8:	d00f      	beq.n	80041fa <HAL_UART_IRQHandler+0x6e>
        && ((cr1its & USART_CR1_RXNEIE) != 0U))
 80041da:	183b      	adds	r3, r7, r0
 80041dc:	681b      	ldr	r3, [r3, #0]
 80041de:	2220      	movs	r2, #32
 80041e0:	4013      	ands	r3, r2
 80041e2:	d00a      	beq.n	80041fa <HAL_UART_IRQHandler+0x6e>
    {
      if (huart->RxISR != NULL)
 80041e4:	687b      	ldr	r3, [r7, #4]
 80041e6:	6e9b      	ldr	r3, [r3, #104]	@ 0x68
 80041e8:	2b00      	cmp	r3, #0
 80041ea:	d100      	bne.n	80041ee <HAL_UART_IRQHandler+0x62>
 80041ec:	e286      	b.n	80046fc <HAL_UART_IRQHandler+0x570>
      {
        huart->RxISR(huart);
 80041ee:	687b      	ldr	r3, [r7, #4]
 80041f0:	6e9b      	ldr	r3, [r3, #104]	@ 0x68
 80041f2:	687a      	ldr	r2, [r7, #4]
 80041f4:	0010      	movs	r0, r2
 80041f6:	4798      	blx	r3
      }
      return;
 80041f8:	e280      	b.n	80046fc <HAL_UART_IRQHandler+0x570>
    }
  }

  /* If some errors occur */
  if ((errorflags != 0U)
 80041fa:	2398      	movs	r3, #152	@ 0x98
 80041fc:	18fb      	adds	r3, r7, r3
 80041fe:	681b      	ldr	r3, [r3, #0]
 8004200:	2b00      	cmp	r3, #0
 8004202:	d100      	bne.n	8004206 <HAL_UART_IRQHandler+0x7a>
 8004204:	e114      	b.n	8004430 <HAL_UART_IRQHandler+0x2a4>
      && (((cr3its & USART_CR3_EIE) != 0U)
 8004206:	239c      	movs	r3, #156	@ 0x9c
 8004208:	18fb      	adds	r3, r7, r3
 800420a:	681b      	ldr	r3, [r3, #0]
 800420c:	2201      	movs	r2, #1
 800420e:	4013      	ands	r3, r2
 8004210:	d106      	bne.n	8004220 <HAL_UART_IRQHandler+0x94>
          || ((cr1its & (USART_CR1_RXNEIE | USART_CR1_PEIE | USART_CR1_RTOIE)) != 0U)))
 8004212:	23a0      	movs	r3, #160	@ 0xa0
 8004214:	18fb      	adds	r3, r7, r3
 8004216:	681b      	ldr	r3, [r3, #0]
 8004218:	4a83      	ldr	r2, [pc, #524]	@ (8004428 <HAL_UART_IRQHandler+0x29c>)
 800421a:	4013      	ands	r3, r2
 800421c:	d100      	bne.n	8004220 <HAL_UART_IRQHandler+0x94>
 800421e:	e107      	b.n	8004430 <HAL_UART_IRQHandler+0x2a4>
  {
    /* UART parity error interrupt occurred -------------------------------------*/
    if (((isrflags & USART_ISR_PE) != 0U) && ((cr1its & USART_CR1_PEIE) != 0U))
 8004220:	23a4      	movs	r3, #164	@ 0xa4
 8004222:	18fb      	adds	r3, r7, r3
 8004224:	681b      	ldr	r3, [r3, #0]
 8004226:	2201      	movs	r2, #1
 8004228:	4013      	ands	r3, r2
 800422a:	d012      	beq.n	8004252 <HAL_UART_IRQHandler+0xc6>
 800422c:	23a0      	movs	r3, #160	@ 0xa0
 800422e:	18fb      	adds	r3, r7, r3
 8004230:	681a      	ldr	r2, [r3, #0]
 8004232:	2380      	movs	r3, #128	@ 0x80
 8004234:	005b      	lsls	r3, r3, #1
 8004236:	4013      	ands	r3, r2
 8004238:	d00b      	beq.n	8004252 <HAL_UART_IRQHandler+0xc6>
    {
      __HAL_UART_CLEAR_FLAG(huart, UART_CLEAR_PEF);
 800423a:	687b      	ldr	r3, [r7, #4]
 800423c:	681b      	ldr	r3, [r3, #0]
 800423e:	2201      	movs	r2, #1
 8004240:	621a      	str	r2, [r3, #32]

      huart->ErrorCode |= HAL_UART_ERROR_PE;
 8004242:	687b      	ldr	r3, [r7, #4]
 8004244:	2284      	movs	r2, #132	@ 0x84
 8004246:	589b      	ldr	r3, [r3, r2]
 8004248:	2201      	movs	r2, #1
 800424a:	431a      	orrs	r2, r3
 800424c:	687b      	ldr	r3, [r7, #4]
 800424e:	2184      	movs	r1, #132	@ 0x84
 8004250:	505a      	str	r2, [r3, r1]
    }

    /* UART frame error interrupt occurred --------------------------------------*/
    if (((isrflags & USART_ISR_FE) != 0U) && ((cr3its & USART_CR3_EIE) != 0U))
 8004252:	23a4      	movs	r3, #164	@ 0xa4
 8004254:	18fb      	adds	r3, r7, r3
 8004256:	681b      	ldr	r3, [r3, #0]
 8004258:	2202      	movs	r2, #2
 800425a:	4013      	ands	r3, r2
 800425c:	d011      	beq.n	8004282 <HAL_UART_IRQHandler+0xf6>
 800425e:	239c      	movs	r3, #156	@ 0x9c
 8004260:	18fb      	adds	r3, r7, r3
 8004262:	681b      	ldr	r3, [r3, #0]
 8004264:	2201      	movs	r2, #1
 8004266:	4013      	ands	r3, r2
 8004268:	d00b      	beq.n	8004282 <HAL_UART_IRQHandler+0xf6>
    {
      __HAL_UART_CLEAR_FLAG(huart, UART_CLEAR_FEF);
 800426a:	687b      	ldr	r3, [r7, #4]
 800426c:	681b      	ldr	r3, [r3, #0]
 800426e:	2202      	movs	r2, #2
 8004270:	621a      	str	r2, [r3, #32]

      huart->ErrorCode |= HAL_UART_ERROR_FE;
 8004272:	687b      	ldr	r3, [r7, #4]
 8004274:	2284      	movs	r2, #132	@ 0x84
 8004276:	589b      	ldr	r3, [r3, r2]
 8004278:	2204      	movs	r2, #4
 800427a:	431a      	orrs	r2, r3
 800427c:	687b      	ldr	r3, [r7, #4]
 800427e:	2184      	movs	r1, #132	@ 0x84
 8004280:	505a      	str	r2, [r3, r1]
    }

    /* UART noise error interrupt occurred --------------------------------------*/
    if (((isrflags & USART_ISR_NE) != 0U) && ((cr3its & USART_CR3_EIE) != 0U))
 8004282:	23a4      	movs	r3, #164	@ 0xa4
 8004284:	18fb      	adds	r3, r7, r3
 8004286:	681b      	ldr	r3, [r3, #0]
 8004288:	2204      	movs	r2, #4
 800428a:	4013      	ands	r3, r2
 800428c:	d011      	beq.n	80042b2 <HAL_UART_IRQHandler+0x126>
 800428e:	239c      	movs	r3, #156	@ 0x9c
 8004290:	18fb      	adds	r3, r7, r3
 8004292:	681b      	ldr	r3, [r3, #0]
 8004294:	2201      	movs	r2, #1
 8004296:	4013      	ands	r3, r2
 8004298:	d00b      	beq.n	80042b2 <HAL_UART_IRQHandler+0x126>
    {
      __HAL_UART_CLEAR_FLAG(huart, UART_CLEAR_NEF);
 800429a:	687b      	ldr	r3, [r7, #4]
 800429c:	681b      	ldr	r3, [r3, #0]
 800429e:	2204      	movs	r2, #4
 80042a0:	621a      	str	r2, [r3, #32]

      huart->ErrorCode |= HAL_UART_ERROR_NE;
 80042a2:	687b      	ldr	r3, [r7, #4]
 80042a4:	2284      	movs	r2, #132	@ 0x84
 80042a6:	589b      	ldr	r3, [r3, r2]
 80042a8:	2202      	movs	r2, #2
 80042aa:	431a      	orrs	r2, r3
 80042ac:	687b      	ldr	r3, [r7, #4]
 80042ae:	2184      	movs	r1, #132	@ 0x84
 80042b0:	505a      	str	r2, [r3, r1]
    }

    /* UART Over-Run interrupt occurred -----------------------------------------*/
    if (((isrflags & USART_ISR_ORE) != 0U)
 80042b2:	23a4      	movs	r3, #164	@ 0xa4
 80042b4:	18fb      	adds	r3, r7, r3
 80042b6:	681b      	ldr	r3, [r3, #0]
 80042b8:	2208      	movs	r2, #8
 80042ba:	4013      	ands	r3, r2
 80042bc:	d017      	beq.n	80042ee <HAL_UART_IRQHandler+0x162>
        && (((cr1its & USART_CR1_RXNEIE) != 0U) ||
 80042be:	23a0      	movs	r3, #160	@ 0xa0
 80042c0:	18fb      	adds	r3, r7, r3
 80042c2:	681b      	ldr	r3, [r3, #0]
 80042c4:	2220      	movs	r2, #32
 80042c6:	4013      	ands	r3, r2
 80042c8:	d105      	bne.n	80042d6 <HAL_UART_IRQHandler+0x14a>
            ((cr3its & USART_CR3_EIE) != 0U)))
 80042ca:	239c      	movs	r3, #156	@ 0x9c
 80042cc:	18fb      	adds	r3, r7, r3
 80042ce:	681b      	ldr	r3, [r3, #0]
 80042d0:	2201      	movs	r2, #1
 80042d2:	4013      	ands	r3, r2
        && (((cr1its & USART_CR1_RXNEIE) != 0U) ||
 80042d4:	d00b      	beq.n	80042ee <HAL_UART_IRQHandler+0x162>
    {
      __HAL_UART_CLEAR_FLAG(huart, UART_CLEAR_OREF);
 80042d6:	687b      	ldr	r3, [r7, #4]
 80042d8:	681b      	ldr	r3, [r3, #0]
 80042da:	2208      	movs	r2, #8
 80042dc:	621a      	str	r2, [r3, #32]

      huart->ErrorCode |= HAL_UART_ERROR_ORE;
 80042de:	687b      	ldr	r3, [r7, #4]
 80042e0:	2284      	movs	r2, #132	@ 0x84
 80042e2:	589b      	ldr	r3, [r3, r2]
 80042e4:	2208      	movs	r2, #8
 80042e6:	431a      	orrs	r2, r3
 80042e8:	687b      	ldr	r3, [r7, #4]
 80042ea:	2184      	movs	r1, #132	@ 0x84
 80042ec:	505a      	str	r2, [r3, r1]
    }

    /* UART Receiver Timeout interrupt occurred ---------------------------------*/
    if (((isrflags & USART_ISR_RTOF) != 0U) && ((cr1its & USART_CR1_RTOIE) != 0U))
 80042ee:	23a4      	movs	r3, #164	@ 0xa4
 80042f0:	18fb      	adds	r3, r7, r3
 80042f2:	681a      	ldr	r2, [r3, #0]
 80042f4:	2380      	movs	r3, #128	@ 0x80
 80042f6:	011b      	lsls	r3, r3, #4
 80042f8:	4013      	ands	r3, r2
 80042fa:	d013      	beq.n	8004324 <HAL_UART_IRQHandler+0x198>
 80042fc:	23a0      	movs	r3, #160	@ 0xa0
 80042fe:	18fb      	adds	r3, r7, r3
 8004300:	681a      	ldr	r2, [r3, #0]
 8004302:	2380      	movs	r3, #128	@ 0x80
 8004304:	04db      	lsls	r3, r3, #19
 8004306:	4013      	ands	r3, r2
 8004308:	d00c      	beq.n	8004324 <HAL_UART_IRQHandler+0x198>
    {
      __HAL_UART_CLEAR_FLAG(huart, UART_CLEAR_RTOF);
 800430a:	687b      	ldr	r3, [r7, #4]
 800430c:	681b      	ldr	r3, [r3, #0]
 800430e:	2280      	movs	r2, #128	@ 0x80
 8004310:	0112      	lsls	r2, r2, #4
 8004312:	621a      	str	r2, [r3, #32]

      huart->ErrorCode |= HAL_UART_ERROR_RTO;
 8004314:	687b      	ldr	r3, [r7, #4]
 8004316:	2284      	movs	r2, #132	@ 0x84
 8004318:	589b      	ldr	r3, [r3, r2]
 800431a:	2220      	movs	r2, #32
 800431c:	431a      	orrs	r2, r3
 800431e:	687b      	ldr	r3, [r7, #4]
 8004320:	2184      	movs	r1, #132	@ 0x84
 8004322:	505a      	str	r2, [r3, r1]
    }

    /* Call UART Error Call back function if need be ----------------------------*/
    if (huart->ErrorCode != HAL_UART_ERROR_NONE)
 8004324:	687b      	ldr	r3, [r7, #4]
 8004326:	2284      	movs	r2, #132	@ 0x84
 8004328:	589b      	ldr	r3, [r3, r2]
 800432a:	2b00      	cmp	r3, #0
 800432c:	d100      	bne.n	8004330 <HAL_UART_IRQHandler+0x1a4>
 800432e:	e1e7      	b.n	8004700 <HAL_UART_IRQHandler+0x574>
    {
      /* UART in mode Receiver --------------------------------------------------*/
      if (((isrflags & USART_ISR_RXNE) != 0U)
 8004330:	23a4      	movs	r3, #164	@ 0xa4
 8004332:	18fb      	adds	r3, r7, r3
 8004334:	681b      	ldr	r3, [r3, #0]
 8004336:	2220      	movs	r2, #32
 8004338:	4013      	ands	r3, r2
 800433a:	d00e      	beq.n	800435a <HAL_UART_IRQHandler+0x1ce>
          && ((cr1its & USART_CR1_RXNEIE) != 0U))
 800433c:	23a0      	movs	r3, #160	@ 0xa0
 800433e:	18fb      	adds	r3, r7, r3
 8004340:	681b      	ldr	r3, [r3, #0]
 8004342:	2220      	movs	r2, #32
 8004344:	4013      	ands	r3, r2
 8004346:	d008      	beq.n	800435a <HAL_UART_IRQHandler+0x1ce>
      {
        if (huart->RxISR != NULL)
 8004348:	687b      	ldr	r3, [r7, #4]
 800434a:	6e9b      	ldr	r3, [r3, #104]	@ 0x68
 800434c:	2b00      	cmp	r3, #0
 800434e:	d004      	beq.n	800435a <HAL_UART_IRQHandler+0x1ce>
        {
          huart->RxISR(huart);
 8004350:	687b      	ldr	r3, [r7, #4]
 8004352:	6e9b      	ldr	r3, [r3, #104]	@ 0x68
 8004354:	687a      	ldr	r2, [r7, #4]
 8004356:	0010      	movs	r0, r2
 8004358:	4798      	blx	r3
      /* If Error is to be considered as blocking :
          - Receiver Timeout error in Reception
          - Overrun error in Reception
          - any error occurs in DMA mode reception
      */
      errorcode = huart->ErrorCode;
 800435a:	687b      	ldr	r3, [r7, #4]
 800435c:	2284      	movs	r2, #132	@ 0x84
 800435e:	589b      	ldr	r3, [r3, r2]
 8004360:	2194      	movs	r1, #148	@ 0x94
 8004362:	187a      	adds	r2, r7, r1
 8004364:	6013      	str	r3, [r2, #0]
      if ((HAL_IS_BIT_SET(huart->Instance->CR3, USART_CR3_DMAR)) ||
 8004366:	687b      	ldr	r3, [r7, #4]
 8004368:	681b      	ldr	r3, [r3, #0]
 800436a:	689b      	ldr	r3, [r3, #8]
 800436c:	2240      	movs	r2, #64	@ 0x40
 800436e:	4013      	ands	r3, r2
 8004370:	2b40      	cmp	r3, #64	@ 0x40
 8004372:	d004      	beq.n	800437e <HAL_UART_IRQHandler+0x1f2>
          ((errorcode & (HAL_UART_ERROR_RTO | HAL_UART_ERROR_ORE)) != 0U))
 8004374:	187b      	adds	r3, r7, r1
 8004376:	681b      	ldr	r3, [r3, #0]
 8004378:	2228      	movs	r2, #40	@ 0x28
 800437a:	4013      	ands	r3, r2
      if ((HAL_IS_BIT_SET(huart->Instance->CR3, USART_CR3_DMAR)) ||
 800437c:	d047      	beq.n	800440e <HAL_UART_IRQHandler+0x282>
      {
        /* Blocking error : transfer is aborted
           Set the UART state ready to be able to start again the process,
           Disable Rx Interrupts, and disable Rx DMA request, if ongoing */
        UART_EndRxTransfer(huart);
 800437e:	687b      	ldr	r3, [r7, #4]
 8004380:	0018      	movs	r0, r3
 8004382:	f000 fda9 	bl	8004ed8 <UART_EndRxTransfer>

        /* Abort the UART DMA Rx channel if enabled */
        if (HAL_IS_BIT_SET(huart->Instance->CR3, USART_CR3_DMAR))
 8004386:	687b      	ldr	r3, [r7, #4]
 8004388:	681b      	ldr	r3, [r3, #0]
 800438a:	689b      	ldr	r3, [r3, #8]
 800438c:	2240      	movs	r2, #64	@ 0x40
 800438e:	4013      	ands	r3, r2
 8004390:	2b40      	cmp	r3, #64	@ 0x40
 8004392:	d137      	bne.n	8004404 <HAL_UART_IRQHandler+0x278>
  __ASM volatile ("MRS %0, primask" : "=r" (result) :: "memory");
 8004394:	f3ef 8310 	mrs	r3, PRIMASK
 8004398:	663b      	str	r3, [r7, #96]	@ 0x60
  return(result);
 800439a:	6e3b      	ldr	r3, [r7, #96]	@ 0x60
        {
          /* Disable the UART DMA Rx request if enabled */
          ATOMIC_CLEAR_BIT(huart->Instance->CR3, USART_CR3_DMAR);
 800439c:	2090      	movs	r0, #144	@ 0x90
 800439e:	183a      	adds	r2, r7, r0
 80043a0:	6013      	str	r3, [r2, #0]
 80043a2:	2301      	movs	r3, #1
 80043a4:	667b      	str	r3, [r7, #100]	@ 0x64
  __ASM volatile ("MSR primask, %0" : : "r" (priMask) : "memory");
 80043a6:	6e7b      	ldr	r3, [r7, #100]	@ 0x64
 80043a8:	f383 8810 	msr	PRIMASK, r3
}
 80043ac:	46c0      	nop			@ (mov r8, r8)
 80043ae:	687b      	ldr	r3, [r7, #4]
 80043b0:	681b      	ldr	r3, [r3, #0]
 80043b2:	689a      	ldr	r2, [r3, #8]
 80043b4:	687b      	ldr	r3, [r7, #4]
 80043b6:	681b      	ldr	r3, [r3, #0]
 80043b8:	2140      	movs	r1, #64	@ 0x40
 80043ba:	438a      	bics	r2, r1
 80043bc:	609a      	str	r2, [r3, #8]
 80043be:	183b      	adds	r3, r7, r0
 80043c0:	681b      	ldr	r3, [r3, #0]
 80043c2:	66bb      	str	r3, [r7, #104]	@ 0x68
  __ASM volatile ("MSR primask, %0" : : "r" (priMask) : "memory");
 80043c4:	6ebb      	ldr	r3, [r7, #104]	@ 0x68
 80043c6:	f383 8810 	msr	PRIMASK, r3
}
 80043ca:	46c0      	nop			@ (mov r8, r8)

          /* Abort the UART DMA Rx channel */
          if (huart->hdmarx != NULL)
 80043cc:	687b      	ldr	r3, [r7, #4]
 80043ce:	6f5b      	ldr	r3, [r3, #116]	@ 0x74
 80043d0:	2b00      	cmp	r3, #0
 80043d2:	d012      	beq.n	80043fa <HAL_UART_IRQHandler+0x26e>
          {
            /* Set the UART DMA Abort callback :
               will lead to call HAL_UART_ErrorCallback() at end of DMA abort procedure */
            huart->hdmarx->XferAbortCallback = UART_DMAAbortOnError;
 80043d4:	687b      	ldr	r3, [r7, #4]
 80043d6:	6f5b      	ldr	r3, [r3, #116]	@ 0x74
 80043d8:	4a14      	ldr	r2, [pc, #80]	@ (800442c <HAL_UART_IRQHandler+0x2a0>)
 80043da:	635a      	str	r2, [r3, #52]	@ 0x34

            /* Abort DMA RX */
            if (HAL_DMA_Abort_IT(huart->hdmarx) != HAL_OK)
 80043dc:	687b      	ldr	r3, [r7, #4]
 80043de:	6f5b      	ldr	r3, [r3, #116]	@ 0x74
 80043e0:	0018      	movs	r0, r3
 80043e2:	f7fe ff3d 	bl	8003260 <HAL_DMA_Abort_IT>
 80043e6:	1e03      	subs	r3, r0, #0
 80043e8:	d01a      	beq.n	8004420 <HAL_UART_IRQHandler+0x294>
            {
              /* Call Directly huart->hdmarx->XferAbortCallback function in case of error */
              huart->hdmarx->XferAbortCallback(huart->hdmarx);
 80043ea:	687b      	ldr	r3, [r7, #4]
 80043ec:	6f5b      	ldr	r3, [r3, #116]	@ 0x74
 80043ee:	6b5a      	ldr	r2, [r3, #52]	@ 0x34
 80043f0:	687b      	ldr	r3, [r7, #4]
 80043f2:	6f5b      	ldr	r3, [r3, #116]	@ 0x74
 80043f4:	0018      	movs	r0, r3
 80043f6:	4790      	blx	r2
        if (HAL_IS_BIT_SET(huart->Instance->CR3, USART_CR3_DMAR))
 80043f8:	e012      	b.n	8004420 <HAL_UART_IRQHandler+0x294>
#if (USE_HAL_UART_REGISTER_CALLBACKS == 1)
            /*Call registered error callback*/
            huart->ErrorCallback(huart);
#else
            /*Call legacy weak error callback*/
            HAL_UART_ErrorCallback(huart);
 80043fa:	687b      	ldr	r3, [r7, #4]
 80043fc:	0018      	movs	r0, r3
 80043fe:	f000 f995 	bl	800472c <HAL_UART_ErrorCallback>
        if (HAL_IS_BIT_SET(huart->Instance->CR3, USART_CR3_DMAR))
 8004402:	e00d      	b.n	8004420 <HAL_UART_IRQHandler+0x294>
#if (USE_HAL_UART_REGISTER_CALLBACKS == 1)
          /*Call registered error callback*/
          huart->ErrorCallback(huart);
#else
          /*Call legacy weak error callback*/
          HAL_UART_ErrorCallback(huart);
 8004404:	687b      	ldr	r3, [r7, #4]
 8004406:	0018      	movs	r0, r3
 8004408:	f000 f990 	bl	800472c <HAL_UART_ErrorCallback>
        if (HAL_IS_BIT_SET(huart->Instance->CR3, USART_CR3_DMAR))
 800440c:	e008      	b.n	8004420 <HAL_UART_IRQHandler+0x294>
#if (USE_HAL_UART_REGISTER_CALLBACKS == 1)
        /*Call registered error callback*/
        huart->ErrorCallback(huart);
#else
        /*Call legacy weak error callback*/
        HAL_UART_ErrorCallback(huart);
 800440e:	687b      	ldr	r3, [r7, #4]
 8004410:	0018      	movs	r0, r3
 8004412:	f000 f98b 	bl	800472c <HAL_UART_ErrorCallback>
#endif /* USE_HAL_UART_REGISTER_CALLBACKS */
        huart->ErrorCode = HAL_UART_ERROR_NONE;
 8004416:	687b      	ldr	r3, [r7, #4]
 8004418:	2284      	movs	r2, #132	@ 0x84
 800441a:	2100      	movs	r1, #0
 800441c:	5099      	str	r1, [r3, r2]
      }
    }
    return;
 800441e:	e16f      	b.n	8004700 <HAL_UART_IRQHandler+0x574>
        if (HAL_IS_BIT_SET(huart->Instance->CR3, USART_CR3_DMAR))
 8004420:	46c0      	nop			@ (mov r8, r8)
    return;
 8004422:	e16d      	b.n	8004700 <HAL_UART_IRQHandler+0x574>
 8004424:	0000080f 	.word	0x0000080f
 8004428:	04000120 	.word	0x04000120
 800442c:	08004fa1 	.word	0x08004fa1

  } /* End if some error occurs */

  /* Check current reception Mode :
     If Reception till IDLE event has been selected : */
  if ((huart->ReceptionType == HAL_UART_RECEPTION_TOIDLE)
 8004430:	687b      	ldr	r3, [r7, #4]
 8004432:	6e1b      	ldr	r3, [r3, #96]	@ 0x60
 8004434:	2b01      	cmp	r3, #1
 8004436:	d000      	beq.n	800443a <HAL_UART_IRQHandler+0x2ae>
 8004438:	e139      	b.n	80046ae <HAL_UART_IRQHandler+0x522>
      && ((isrflags & USART_ISR_IDLE) != 0U)
 800443a:	23a4      	movs	r3, #164	@ 0xa4
 800443c:	18fb      	adds	r3, r7, r3
 800443e:	681b      	ldr	r3, [r3, #0]
 8004440:	2210      	movs	r2, #16
 8004442:	4013      	ands	r3, r2
 8004444:	d100      	bne.n	8004448 <HAL_UART_IRQHandler+0x2bc>
 8004446:	e132      	b.n	80046ae <HAL_UART_IRQHandler+0x522>
      && ((cr1its & USART_ISR_IDLE) != 0U))
 8004448:	23a0      	movs	r3, #160	@ 0xa0
 800444a:	18fb      	adds	r3, r7, r3
 800444c:	681b      	ldr	r3, [r3, #0]
 800444e:	2210      	movs	r2, #16
 8004450:	4013      	ands	r3, r2
 8004452:	d100      	bne.n	8004456 <HAL_UART_IRQHandler+0x2ca>
 8004454:	e12b      	b.n	80046ae <HAL_UART_IRQHandler+0x522>
  {
    __HAL_UART_CLEAR_FLAG(huart, UART_CLEAR_IDLEF);
 8004456:	687b      	ldr	r3, [r7, #4]
 8004458:	681b      	ldr	r3, [r3, #0]
 800445a:	2210      	movs	r2, #16
 800445c:	621a      	str	r2, [r3, #32]

    /* Check if DMA mode is enabled in UART */
    if (HAL_IS_BIT_SET(huart->Instance->CR3, USART_CR3_DMAR))
 800445e:	687b      	ldr	r3, [r7, #4]
 8004460:	681b      	ldr	r3, [r3, #0]
 8004462:	689b      	ldr	r3, [r3, #8]
 8004464:	2240      	movs	r2, #64	@ 0x40
 8004466:	4013      	ands	r3, r2
 8004468:	2b40      	cmp	r3, #64	@ 0x40
 800446a:	d000      	beq.n	800446e <HAL_UART_IRQHandler+0x2e2>
 800446c:	e09f      	b.n	80045ae <HAL_UART_IRQHandler+0x422>
    {
      /* DMA mode enabled */
      /* Check received length : If all expected data are received, do nothing,
         (DMA cplt callback will be called).
         Otherwise, if at least one data has already been received, IDLE event is to be notified to user */
      uint16_t nb_remaining_rx_data = (uint16_t) __HAL_DMA_GET_COUNTER(huart->hdmarx);
 800446e:	687b      	ldr	r3, [r7, #4]
 8004470:	6f5b      	ldr	r3, [r3, #116]	@ 0x74
 8004472:	681b      	ldr	r3, [r3, #0]
 8004474:	685a      	ldr	r2, [r3, #4]
 8004476:	217e      	movs	r1, #126	@ 0x7e
 8004478:	187b      	adds	r3, r7, r1
 800447a:	801a      	strh	r2, [r3, #0]
      if ((nb_remaining_rx_data > 0U)
 800447c:	187b      	adds	r3, r7, r1
 800447e:	881b      	ldrh	r3, [r3, #0]
 8004480:	2b00      	cmp	r3, #0
 8004482:	d100      	bne.n	8004486 <HAL_UART_IRQHandler+0x2fa>
 8004484:	e13e      	b.n	8004704 <HAL_UART_IRQHandler+0x578>
          && (nb_remaining_rx_data < huart->RxXferSize))
 8004486:	687b      	ldr	r3, [r7, #4]
 8004488:	2258      	movs	r2, #88	@ 0x58
 800448a:	5a9b      	ldrh	r3, [r3, r2]
 800448c:	187a      	adds	r2, r7, r1
 800448e:	8812      	ldrh	r2, [r2, #0]
 8004490:	429a      	cmp	r2, r3
 8004492:	d300      	bcc.n	8004496 <HAL_UART_IRQHandler+0x30a>
 8004494:	e136      	b.n	8004704 <HAL_UART_IRQHandler+0x578>
      {
        /* Reception is not complete */
        huart->RxXferCount = nb_remaining_rx_data;
 8004496:	687b      	ldr	r3, [r7, #4]
 8004498:	187a      	adds	r2, r7, r1
 800449a:	215a      	movs	r1, #90	@ 0x5a
 800449c:	8812      	ldrh	r2, [r2, #0]
 800449e:	525a      	strh	r2, [r3, r1]

        /* In Normal mode, end DMA xfer and HAL UART Rx process*/
        if (huart->hdmarx->Init.Mode != DMA_CIRCULAR)
 80044a0:	687b      	ldr	r3, [r7, #4]
 80044a2:	6f5b      	ldr	r3, [r3, #116]	@ 0x74
 80044a4:	699b      	ldr	r3, [r3, #24]
 80044a6:	2b20      	cmp	r3, #32
 80044a8:	d06f      	beq.n	800458a <HAL_UART_IRQHandler+0x3fe>
  __ASM volatile ("MRS %0, primask" : "=r" (result) :: "memory");
 80044aa:	f3ef 8310 	mrs	r3, PRIMASK
 80044ae:	633b      	str	r3, [r7, #48]	@ 0x30
  return(result);
 80044b0:	6b3b      	ldr	r3, [r7, #48]	@ 0x30
        {
          /* Disable PE and ERR (Frame error, noise error, overrun error) interrupts */
          ATOMIC_CLEAR_BIT(huart->Instance->CR1, USART_CR1_PEIE);
 80044b2:	67bb      	str	r3, [r7, #120]	@ 0x78
 80044b4:	2301      	movs	r3, #1
 80044b6:	637b      	str	r3, [r7, #52]	@ 0x34
  __ASM volatile ("MSR primask, %0" : : "r" (priMask) : "memory");
 80044b8:	6b7b      	ldr	r3, [r7, #52]	@ 0x34
 80044ba:	f383 8810 	msr	PRIMASK, r3
}
 80044be:	46c0      	nop			@ (mov r8, r8)
 80044c0:	687b      	ldr	r3, [r7, #4]
 80044c2:	681b      	ldr	r3, [r3, #0]
 80044c4:	681a      	ldr	r2, [r3, #0]
 80044c6:	687b      	ldr	r3, [r7, #4]
 80044c8:	681b      	ldr	r3, [r3, #0]
 80044ca:	4992      	ldr	r1, [pc, #584]	@ (8004714 <HAL_UART_IRQHandler+0x588>)
 80044cc:	400a      	ands	r2, r1
 80044ce:	601a      	str	r2, [r3, #0]
 80044d0:	6fbb      	ldr	r3, [r7, #120]	@ 0x78
 80044d2:	63bb      	str	r3, [r7, #56]	@ 0x38
  __ASM volatile ("MSR primask, %0" : : "r" (priMask) : "memory");
 80044d4:	6bbb      	ldr	r3, [r7, #56]	@ 0x38
 80044d6:	f383 8810 	msr	PRIMASK, r3
}
 80044da:	46c0      	nop			@ (mov r8, r8)
  __ASM volatile ("MRS %0, primask" : "=r" (result) :: "memory");
 80044dc:	f3ef 8310 	mrs	r3, PRIMASK
 80044e0:	63fb      	str	r3, [r7, #60]	@ 0x3c
  return(result);
 80044e2:	6bfb      	ldr	r3, [r7, #60]	@ 0x3c
          ATOMIC_CLEAR_BIT(huart->Instance->CR3, USART_CR3_EIE);
 80044e4:	677b      	str	r3, [r7, #116]	@ 0x74
 80044e6:	2301      	movs	r3, #1
 80044e8:	643b      	str	r3, [r7, #64]	@ 0x40
  __ASM volatile ("MSR primask, %0" : : "r" (priMask) : "memory");
 80044ea:	6c3b      	ldr	r3, [r7, #64]	@ 0x40
 80044ec:	f383 8810 	msr	PRIMASK, r3
}
 80044f0:	46c0      	nop			@ (mov r8, r8)
 80044f2:	687b      	ldr	r3, [r7, #4]
 80044f4:	681b      	ldr	r3, [r3, #0]
 80044f6:	689a      	ldr	r2, [r3, #8]
 80044f8:	687b      	ldr	r3, [r7, #4]
 80044fa:	681b      	ldr	r3, [r3, #0]
 80044fc:	2101      	movs	r1, #1
 80044fe:	438a      	bics	r2, r1
 8004500:	609a      	str	r2, [r3, #8]
 8004502:	6f7b      	ldr	r3, [r7, #116]	@ 0x74
 8004504:	647b      	str	r3, [r7, #68]	@ 0x44
  __ASM volatile ("MSR primask, %0" : : "r" (priMask) : "memory");
 8004506:	6c7b      	ldr	r3, [r7, #68]	@ 0x44
 8004508:	f383 8810 	msr	PRIMASK, r3
}
 800450c:	46c0      	nop			@ (mov r8, r8)
  __ASM volatile ("MRS %0, primask" : "=r" (result) :: "memory");
 800450e:	f3ef 8310 	mrs	r3, PRIMASK
 8004512:	64bb      	str	r3, [r7, #72]	@ 0x48
  return(result);
 8004514:	6cbb      	ldr	r3, [r7, #72]	@ 0x48

          /* Disable the DMA transfer for the receiver request by resetting the DMAR bit
             in the UART CR3 register */
          ATOMIC_CLEAR_BIT(huart->Instance->CR3, USART_CR3_DMAR);
 8004516:	673b      	str	r3, [r7, #112]	@ 0x70
 8004518:	2301      	movs	r3, #1
 800451a:	64fb      	str	r3, [r7, #76]	@ 0x4c
  __ASM volatile ("MSR primask, %0" : : "r" (priMask) : "memory");
 800451c:	6cfb      	ldr	r3, [r7, #76]	@ 0x4c
 800451e:	f383 8810 	msr	PRIMASK, r3
}
 8004522:	46c0      	nop			@ (mov r8, r8)
 8004524:	687b      	ldr	r3, [r7, #4]
 8004526:	681b      	ldr	r3, [r3, #0]
 8004528:	689a      	ldr	r2, [r3, #8]
 800452a:	687b      	ldr	r3, [r7, #4]
 800452c:	681b      	ldr	r3, [r3, #0]
 800452e:	2140      	movs	r1, #64	@ 0x40
 8004530:	438a      	bics	r2, r1
 8004532:	609a      	str	r2, [r3, #8]
 8004534:	6f3b      	ldr	r3, [r7, #112]	@ 0x70
 8004536:	653b      	str	r3, [r7, #80]	@ 0x50
  __ASM volatile ("MSR primask, %0" : : "r" (priMask) : "memory");
 8004538:	6d3b      	ldr	r3, [r7, #80]	@ 0x50
 800453a:	f383 8810 	msr	PRIMASK, r3
}
 800453e:	46c0      	nop			@ (mov r8, r8)

          /* At end of Rx process, restore huart->RxState to Ready */
          huart->RxState = HAL_UART_STATE_READY;
 8004540:	687b      	ldr	r3, [r7, #4]
 8004542:	2280      	movs	r2, #128	@ 0x80
 8004544:	2120      	movs	r1, #32
 8004546:	5099      	str	r1, [r3, r2]
          huart->ReceptionType = HAL_UART_RECEPTION_STANDARD;
 8004548:	687b      	ldr	r3, [r7, #4]
 800454a:	2200      	movs	r2, #0
 800454c:	661a      	str	r2, [r3, #96]	@ 0x60
  __ASM volatile ("MRS %0, primask" : "=r" (result) :: "memory");
 800454e:	f3ef 8310 	mrs	r3, PRIMASK
 8004552:	657b      	str	r3, [r7, #84]	@ 0x54
  return(result);
 8004554:	6d7b      	ldr	r3, [r7, #84]	@ 0x54

          ATOMIC_CLEAR_BIT(huart->Instance->CR1, USART_CR1_IDLEIE);
 8004556:	66fb      	str	r3, [r7, #108]	@ 0x6c
 8004558:	2301      	movs	r3, #1
 800455a:	65bb      	str	r3, [r7, #88]	@ 0x58
  __ASM volatile ("MSR primask, %0" : : "r" (priMask) : "memory");
 800455c:	6dbb      	ldr	r3, [r7, #88]	@ 0x58
 800455e:	f383 8810 	msr	PRIMASK, r3
}
 8004562:	46c0      	nop			@ (mov r8, r8)
 8004564:	687b      	ldr	r3, [r7, #4]
 8004566:	681b      	ldr	r3, [r3, #0]
 8004568:	681a      	ldr	r2, [r3, #0]
 800456a:	687b      	ldr	r3, [r7, #4]
 800456c:	681b      	ldr	r3, [r3, #0]
 800456e:	2110      	movs	r1, #16
 8004570:	438a      	bics	r2, r1
 8004572:	601a      	str	r2, [r3, #0]
 8004574:	6efb      	ldr	r3, [r7, #108]	@ 0x6c
 8004576:	65fb      	str	r3, [r7, #92]	@ 0x5c
  __ASM volatile ("MSR primask, %0" : : "r" (priMask) : "memory");
 8004578:	6dfb      	ldr	r3, [r7, #92]	@ 0x5c
 800457a:	f383 8810 	msr	PRIMASK, r3
}
 800457e:	46c0      	nop			@ (mov r8, r8)

          /* Last bytes received, so no need as the abort is immediate */
          (void)HAL_DMA_Abort(huart->hdmarx);
 8004580:	687b      	ldr	r3, [r7, #4]
 8004582:	6f5b      	ldr	r3, [r3, #116]	@ 0x74
 8004584:	0018      	movs	r0, r3
 8004586:	f7fe fe33 	bl	80031f0 <HAL_DMA_Abort>
        }

        /* Initialize type of RxEvent that correspond to RxEvent callback execution;
           In this case, Rx Event type is Idle Event */
        huart->RxEventType = HAL_UART_RXEVENT_IDLE;
 800458a:	687b      	ldr	r3, [r7, #4]
 800458c:	2202      	movs	r2, #2
 800458e:	665a      	str	r2, [r3, #100]	@ 0x64
#if (USE_HAL_UART_REGISTER_CALLBACKS == 1)
        /*Call registered Rx Event callback*/
        huart->RxEventCallback(huart, (huart->RxXferSize - huart->RxXferCount));
#else
        /*Call legacy weak Rx Event callback*/
        HAL_UARTEx_RxEventCallback(huart, (huart->RxXferSize - huart->RxXferCount));
 8004590:	687b      	ldr	r3, [r7, #4]
 8004592:	2258      	movs	r2, #88	@ 0x58
 8004594:	5a9a      	ldrh	r2, [r3, r2]
 8004596:	687b      	ldr	r3, [r7, #4]
 8004598:	215a      	movs	r1, #90	@ 0x5a
 800459a:	5a5b      	ldrh	r3, [r3, r1]
 800459c:	b29b      	uxth	r3, r3
 800459e:	1ad3      	subs	r3, r2, r3
 80045a0:	b29a      	uxth	r2, r3
 80045a2:	687b      	ldr	r3, [r7, #4]
 80045a4:	0011      	movs	r1, r2
 80045a6:	0018      	movs	r0, r3
 80045a8:	f000 f8c8 	bl	800473c <HAL_UARTEx_RxEventCallback>
#endif /* (USE_HAL_UART_REGISTER_CALLBACKS) */
      }
      return;
 80045ac:	e0aa      	b.n	8004704 <HAL_UART_IRQHandler+0x578>
    else
    {
      /* DMA mode not enabled */
      /* Check received length : If all expected data are received, do nothing.
         Otherwise, if at least one data has already been received, IDLE event is to be notified to user */
      uint16_t nb_rx_data = huart->RxXferSize - huart->RxXferCount;
 80045ae:	687b      	ldr	r3, [r7, #4]
 80045b0:	2258      	movs	r2, #88	@ 0x58
 80045b2:	5a99      	ldrh	r1, [r3, r2]
 80045b4:	687b      	ldr	r3, [r7, #4]
 80045b6:	225a      	movs	r2, #90	@ 0x5a
 80045b8:	5a9b      	ldrh	r3, [r3, r2]
 80045ba:	b29a      	uxth	r2, r3
 80045bc:	208e      	movs	r0, #142	@ 0x8e
 80045be:	183b      	adds	r3, r7, r0
 80045c0:	1a8a      	subs	r2, r1, r2
 80045c2:	801a      	strh	r2, [r3, #0]
      if ((huart->RxXferCount > 0U)
 80045c4:	687b      	ldr	r3, [r7, #4]
 80045c6:	225a      	movs	r2, #90	@ 0x5a
 80045c8:	5a9b      	ldrh	r3, [r3, r2]
 80045ca:	b29b      	uxth	r3, r3
 80045cc:	2b00      	cmp	r3, #0
 80045ce:	d100      	bne.n	80045d2 <HAL_UART_IRQHandler+0x446>
 80045d0:	e09a      	b.n	8004708 <HAL_UART_IRQHandler+0x57c>
          && (nb_rx_data > 0U))
 80045d2:	183b      	adds	r3, r7, r0
 80045d4:	881b      	ldrh	r3, [r3, #0]
 80045d6:	2b00      	cmp	r3, #0
 80045d8:	d100      	bne.n	80045dc <HAL_UART_IRQHandler+0x450>
 80045da:	e095      	b.n	8004708 <HAL_UART_IRQHandler+0x57c>
  __ASM volatile ("MRS %0, primask" : "=r" (result) :: "memory");
 80045dc:	f3ef 8310 	mrs	r3, PRIMASK
 80045e0:	60fb      	str	r3, [r7, #12]
  return(result);
 80045e2:	68fb      	ldr	r3, [r7, #12]
      {
        /* Disable the UART Parity Error Interrupt and RXNE interrupts */
        ATOMIC_CLEAR_BIT(huart->Instance->CR1, (USART_CR1_RXNEIE | USART_CR1_PEIE));
 80045e4:	2488      	movs	r4, #136	@ 0x88
 80045e6:	193a      	adds	r2, r7, r4
 80045e8:	6013      	str	r3, [r2, #0]
 80045ea:	2301      	movs	r3, #1
 80045ec:	613b      	str	r3, [r7, #16]
  __ASM volatile ("MSR primask, %0" : : "r" (priMask) : "memory");
 80045ee:	693b      	ldr	r3, [r7, #16]
 80045f0:	f383 8810 	msr	PRIMASK, r3
}
 80045f4:	46c0      	nop			@ (mov r8, r8)
 80045f6:	687b      	ldr	r3, [r7, #4]
 80045f8:	681b      	ldr	r3, [r3, #0]
 80045fa:	681a      	ldr	r2, [r3, #0]
 80045fc:	687b      	ldr	r3, [r7, #4]
 80045fe:	681b      	ldr	r3, [r3, #0]
 8004600:	4945      	ldr	r1, [pc, #276]	@ (8004718 <HAL_UART_IRQHandler+0x58c>)
 8004602:	400a      	ands	r2, r1
 8004604:	601a      	str	r2, [r3, #0]
 8004606:	193b      	adds	r3, r7, r4
 8004608:	681b      	ldr	r3, [r3, #0]
 800460a:	617b      	str	r3, [r7, #20]
  __ASM volatile ("MSR primask, %0" : : "r" (priMask) : "memory");
 800460c:	697b      	ldr	r3, [r7, #20]
 800460e:	f383 8810 	msr	PRIMASK, r3
}
 8004612:	46c0      	nop			@ (mov r8, r8)
  __ASM volatile ("MRS %0, primask" : "=r" (result) :: "memory");
 8004614:	f3ef 8310 	mrs	r3, PRIMASK
 8004618:	61bb      	str	r3, [r7, #24]
  return(result);
 800461a:	69bb      	ldr	r3, [r7, #24]

        /* Disable the UART Error Interrupt: (Frame error, noise error, overrun error) */
        ATOMIC_CLEAR_BIT(huart->Instance->CR3, USART_CR3_EIE);
 800461c:	2484      	movs	r4, #132	@ 0x84
 800461e:	193a      	adds	r2, r7, r4
 8004620:	6013      	str	r3, [r2, #0]
 8004622:	2301      	movs	r3, #1
 8004624:	61fb      	str	r3, [r7, #28]
  __ASM volatile ("MSR primask, %0" : : "r" (priMask) : "memory");
 8004626:	69fb      	ldr	r3, [r7, #28]
 8004628:	f383 8810 	msr	PRIMASK, r3
}
 800462c:	46c0      	nop			@ (mov r8, r8)
 800462e:	687b      	ldr	r3, [r7, #4]
 8004630:	681b      	ldr	r3, [r3, #0]
 8004632:	689a      	ldr	r2, [r3, #8]
 8004634:	687b      	ldr	r3, [r7, #4]
 8004636:	681b      	ldr	r3, [r3, #0]
 8004638:	2101      	movs	r1, #1
 800463a:	438a      	bics	r2, r1
 800463c:	609a      	str	r2, [r3, #8]
 800463e:	193b      	adds	r3, r7, r4
 8004640:	681b      	ldr	r3, [r3, #0]
 8004642:	623b      	str	r3, [r7, #32]
  __ASM volatile ("MSR primask, %0" : : "r" (priMask) : "memory");
 8004644:	6a3b      	ldr	r3, [r7, #32]
 8004646:	f383 8810 	msr	PRIMASK, r3
}
 800464a:	46c0      	nop			@ (mov r8, r8)

        /* Rx process is completed, restore huart->RxState to Ready */
        huart->RxState = HAL_UART_STATE_READY;
 800464c:	687b      	ldr	r3, [r7, #4]
 800464e:	2280      	movs	r2, #128	@ 0x80
 8004650:	2120      	movs	r1, #32
 8004652:	5099      	str	r1, [r3, r2]
        huart->ReceptionType = HAL_UART_RECEPTION_STANDARD;
 8004654:	687b      	ldr	r3, [r7, #4]
 8004656:	2200      	movs	r2, #0
 8004658:	661a      	str	r2, [r3, #96]	@ 0x60

        /* Clear RxISR function pointer */
        huart->RxISR = NULL;
 800465a:	687b      	ldr	r3, [r7, #4]
 800465c:	2200      	movs	r2, #0
 800465e:	669a      	str	r2, [r3, #104]	@ 0x68
  __ASM volatile ("MRS %0, primask" : "=r" (result) :: "memory");
 8004660:	f3ef 8310 	mrs	r3, PRIMASK
 8004664:	627b      	str	r3, [r7, #36]	@ 0x24
  return(result);
 8004666:	6a7b      	ldr	r3, [r7, #36]	@ 0x24

        ATOMIC_CLEAR_BIT(huart->Instance->CR1, USART_CR1_IDLEIE);
 8004668:	2480      	movs	r4, #128	@ 0x80
 800466a:	193a      	adds	r2, r7, r4
 800466c:	6013      	str	r3, [r2, #0]
 800466e:	2301      	movs	r3, #1
 8004670:	62bb      	str	r3, [r7, #40]	@ 0x28
  __ASM volatile ("MSR primask, %0" : : "r" (priMask) : "memory");
 8004672:	6abb      	ldr	r3, [r7, #40]	@ 0x28
 8004674:	f383 8810 	msr	PRIMASK, r3
}
 8004678:	46c0      	nop			@ (mov r8, r8)
 800467a:	687b      	ldr	r3, [r7, #4]
 800467c:	681b      	ldr	r3, [r3, #0]
 800467e:	681a      	ldr	r2, [r3, #0]
 8004680:	687b      	ldr	r3, [r7, #4]
 8004682:	681b      	ldr	r3, [r3, #0]
 8004684:	2110      	movs	r1, #16
 8004686:	438a      	bics	r2, r1
 8004688:	601a      	str	r2, [r3, #0]
 800468a:	193b      	adds	r3, r7, r4
 800468c:	681b      	ldr	r3, [r3, #0]
 800468e:	62fb      	str	r3, [r7, #44]	@ 0x2c
  __ASM volatile ("MSR primask, %0" : : "r" (priMask) : "memory");
 8004690:	6afb      	ldr	r3, [r7, #44]	@ 0x2c
 8004692:	f383 8810 	msr	PRIMASK, r3
}
 8004696:	46c0      	nop			@ (mov r8, r8)

        /* Initialize type of RxEvent that correspond to RxEvent callback execution;
           In this case, Rx Event type is Idle Event */
        huart->RxEventType = HAL_UART_RXEVENT_IDLE;
 8004698:	687b      	ldr	r3, [r7, #4]
 800469a:	2202      	movs	r2, #2
 800469c:	665a      	str	r2, [r3, #100]	@ 0x64
#if (USE_HAL_UART_REGISTER_CALLBACKS == 1)
        /*Call registered Rx complete callback*/
        huart->RxEventCallback(huart, nb_rx_data);
#else
        /*Call legacy weak Rx Event callback*/
        HAL_UARTEx_RxEventCallback(huart, nb_rx_data);
 800469e:	183b      	adds	r3, r7, r0
 80046a0:	881a      	ldrh	r2, [r3, #0]
 80046a2:	687b      	ldr	r3, [r7, #4]
 80046a4:	0011      	movs	r1, r2
 80046a6:	0018      	movs	r0, r3
 80046a8:	f000 f848 	bl	800473c <HAL_UARTEx_RxEventCallback>
#endif /* (USE_HAL_UART_REGISTER_CALLBACKS) */
      }
      return;
 80046ac:	e02c      	b.n	8004708 <HAL_UART_IRQHandler+0x57c>
  }
#endif /* USART_CR3_WUFIE */
#endif /* USART_CR1_UESM */

  /* UART in mode Transmitter ------------------------------------------------*/
  if (((isrflags & USART_ISR_TXE) != 0U)
 80046ae:	23a4      	movs	r3, #164	@ 0xa4
 80046b0:	18fb      	adds	r3, r7, r3
 80046b2:	681b      	ldr	r3, [r3, #0]
 80046b4:	2280      	movs	r2, #128	@ 0x80
 80046b6:	4013      	ands	r3, r2
 80046b8:	d00f      	beq.n	80046da <HAL_UART_IRQHandler+0x54e>
      && ((cr1its & USART_CR1_TXEIE) != 0U))
 80046ba:	23a0      	movs	r3, #160	@ 0xa0
 80046bc:	18fb      	adds	r3, r7, r3
 80046be:	681b      	ldr	r3, [r3, #0]
 80046c0:	2280      	movs	r2, #128	@ 0x80
 80046c2:	4013      	ands	r3, r2
 80046c4:	d009      	beq.n	80046da <HAL_UART_IRQHandler+0x54e>
  {
    if (huart->TxISR != NULL)
 80046c6:	687b      	ldr	r3, [r7, #4]
 80046c8:	6edb      	ldr	r3, [r3, #108]	@ 0x6c
 80046ca:	2b00      	cmp	r3, #0
 80046cc:	d01e      	beq.n	800470c <HAL_UART_IRQHandler+0x580>
    {
      huart->TxISR(huart);
 80046ce:	687b      	ldr	r3, [r7, #4]
 80046d0:	6edb      	ldr	r3, [r3, #108]	@ 0x6c
 80046d2:	687a      	ldr	r2, [r7, #4]
 80046d4:	0010      	movs	r0, r2
 80046d6:	4798      	blx	r3
    }
    return;
 80046d8:	e018      	b.n	800470c <HAL_UART_IRQHandler+0x580>
  }

  /* UART in mode Transmitter (transmission end) -----------------------------*/
  if (((isrflags & USART_ISR_TC) != 0U) && ((cr1its & USART_CR1_TCIE) != 0U))
 80046da:	23a4      	movs	r3, #164	@ 0xa4
 80046dc:	18fb      	adds	r3, r7, r3
 80046de:	681b      	ldr	r3, [r3, #0]
 80046e0:	2240      	movs	r2, #64	@ 0x40
 80046e2:	4013      	ands	r3, r2
 80046e4:	d013      	beq.n	800470e <HAL_UART_IRQHandler+0x582>
 80046e6:	23a0      	movs	r3, #160	@ 0xa0
 80046e8:	18fb      	adds	r3, r7, r3
 80046ea:	681b      	ldr	r3, [r3, #0]
 80046ec:	2240      	movs	r2, #64	@ 0x40
 80046ee:	4013      	ands	r3, r2
 80046f0:	d00d      	beq.n	800470e <HAL_UART_IRQHandler+0x582>
  {
    UART_EndTransmit_IT(huart);
 80046f2:	687b      	ldr	r3, [r7, #4]
 80046f4:	0018      	movs	r0, r3
 80046f6:	f000 fc6a 	bl	8004fce <UART_EndTransmit_IT>
    return;
 80046fa:	e008      	b.n	800470e <HAL_UART_IRQHandler+0x582>
      return;
 80046fc:	46c0      	nop			@ (mov r8, r8)
 80046fe:	e006      	b.n	800470e <HAL_UART_IRQHandler+0x582>
    return;
 8004700:	46c0      	nop			@ (mov r8, r8)
 8004702:	e004      	b.n	800470e <HAL_UART_IRQHandler+0x582>
      return;
 8004704:	46c0      	nop			@ (mov r8, r8)
 8004706:	e002      	b.n	800470e <HAL_UART_IRQHandler+0x582>
      return;
 8004708:	46c0      	nop			@ (mov r8, r8)
 800470a:	e000      	b.n	800470e <HAL_UART_IRQHandler+0x582>
    return;
 800470c:	46c0      	nop			@ (mov r8, r8)
  }

}
 800470e:	46bd      	mov	sp, r7
 8004710:	b02b      	add	sp, #172	@ 0xac
 8004712:	bd90      	pop	{r4, r7, pc}
 8004714:	fffffeff 	.word	0xfffffeff
 8004718:	fffffedf 	.word	0xfffffedf

0800471c <HAL_UART_TxCpltCallback>:
  * @brief Tx Transfer completed callback.
  * @param huart UART handle.
  * @retval None
  */
__weak void HAL_UART_TxCpltCallback(UART_HandleTypeDef *huart)
{
 800471c:	b580      	push	{r7, lr}
 800471e:	b082      	sub	sp, #8
 8004720:	af00      	add	r7, sp, #0
 8004722:	6078      	str	r0, [r7, #4]
  UNUSED(huart);

  /* NOTE : This function should not be modified, when the callback is needed,
            the HAL_UART_TxCpltCallback can be implemented in the user file.
   */
}
 8004724:	46c0      	nop			@ (mov r8, r8)
 8004726:	46bd      	mov	sp, r7
 8004728:	b002      	add	sp, #8
 800472a:	bd80      	pop	{r7, pc}

0800472c <HAL_UART_ErrorCallback>:
  * @brief  UART error callback.
  * @param  huart UART handle.
  * @retval None
  */
__weak void HAL_UART_ErrorCallback(UART_HandleTypeDef *huart)
{
 800472c:	b580      	push	{r7, lr}
 800472e:	b082      	sub	sp, #8
 8004730:	af00      	add	r7, sp, #0
 8004732:	6078      	str	r0, [r7, #4]
  UNUSED(huart);

  /* NOTE : This function should not be modified, when the callback is needed,
            the HAL_UART_ErrorCallback can be implemented in the user file.
   */
}
 8004734:	46c0      	nop			@ (mov r8, r8)
 8004736:	46bd      	mov	sp, r7
 8004738:	b002      	add	sp, #8
 800473a:	bd80      	pop	{r7, pc}

0800473c <HAL_UARTEx_RxEventCallback>:
  * @param  Size  Number of data available in application reception buffer (indicates a position in
  *               reception buffer until which, data are available)
  * @retval None
  */
__weak void HAL_UARTEx_RxEventCallback(UART_HandleTypeDef *huart, uint16_t Size)
{
 800473c:	b580      	push	{r7, lr}
 800473e:	b082      	sub	sp, #8
 8004740:	af00      	add	r7, sp, #0
 8004742:	6078      	str	r0, [r7, #4]
 8004744:	000a      	movs	r2, r1
 8004746:	1cbb      	adds	r3, r7, #2
 8004748:	801a      	strh	r2, [r3, #0]
  UNUSED(Size);

  /* NOTE : This function should not be modified, when the callback is needed,
            the HAL_UARTEx_RxEventCallback can be implemented in the user file.
   */
}
 800474a:	46c0      	nop			@ (mov r8, r8)
 800474c:	46bd      	mov	sp, r7
 800474e:	b002      	add	sp, #8
 8004750:	bd80      	pop	{r7, pc}
	...

08004754 <UART_SetConfig>:
  * @brief Configure the UART peripheral.
  * @param huart UART handle.
  * @retval HAL status
  */
HAL_StatusTypeDef UART_SetConfig(UART_HandleTypeDef *huart)
{
 8004754:	b580      	push	{r7, lr}
 8004756:	b088      	sub	sp, #32
 8004758:	af00      	add	r7, sp, #0
 800475a:	6078      	str	r0, [r7, #4]
  uint32_t tmpreg;
  uint16_t brrtemp;
  UART_ClockSourceTypeDef clocksource;
  uint32_t usartdiv;
  HAL_StatusTypeDef ret               = HAL_OK;
 800475c:	231e      	movs	r3, #30
 800475e:	18fb      	adds	r3, r7, r3
 8004760:	2200      	movs	r2, #0
 8004762:	701a      	strb	r2, [r3, #0]
  *  the UART Word Length, Parity, Mode and oversampling:
  *  set the M bits according to huart->Init.WordLength value
  *  set PCE and PS bits according to huart->Init.Parity value
  *  set TE and RE bits according to huart->Init.Mode value
  *  set OVER8 bit according to huart->Init.OverSampling value */
  tmpreg = (uint32_t)huart->Init.WordLength | huart->Init.Parity | huart->Init.Mode | huart->Init.OverSampling ;
 8004764:	687b      	ldr	r3, [r7, #4]
 8004766:	689a      	ldr	r2, [r3, #8]
 8004768:	687b      	ldr	r3, [r7, #4]
 800476a:	691b      	ldr	r3, [r3, #16]
 800476c:	431a      	orrs	r2, r3
 800476e:	687b      	ldr	r3, [r7, #4]
 8004770:	695b      	ldr	r3, [r3, #20]
 8004772:	431a      	orrs	r2, r3
 8004774:	687b      	ldr	r3, [r7, #4]
 8004776:	69db      	ldr	r3, [r3, #28]
 8004778:	4313      	orrs	r3, r2
 800477a:	617b      	str	r3, [r7, #20]
  MODIFY_REG(huart->Instance->CR1, USART_CR1_FIELDS, tmpreg);
 800477c:	687b      	ldr	r3, [r7, #4]
 800477e:	681b      	ldr	r3, [r3, #0]
 8004780:	681b      	ldr	r3, [r3, #0]
 8004782:	4a8d      	ldr	r2, [pc, #564]	@ (80049b8 <UART_SetConfig+0x264>)
 8004784:	4013      	ands	r3, r2
 8004786:	0019      	movs	r1, r3
 8004788:	687b      	ldr	r3, [r7, #4]
 800478a:	681b      	ldr	r3, [r3, #0]
 800478c:	697a      	ldr	r2, [r7, #20]
 800478e:	430a      	orrs	r2, r1
 8004790:	601a      	str	r2, [r3, #0]

  /*-------------------------- USART CR2 Configuration -----------------------*/
  /* Configure the UART Stop Bits: Set STOP[13:12] bits according
  * to huart->Init.StopBits value */
  MODIFY_REG(huart->Instance->CR2, USART_CR2_STOP, huart->Init.StopBits);
 8004792:	687b      	ldr	r3, [r7, #4]
 8004794:	681b      	ldr	r3, [r3, #0]
 8004796:	685b      	ldr	r3, [r3, #4]
 8004798:	4a88      	ldr	r2, [pc, #544]	@ (80049bc <UART_SetConfig+0x268>)
 800479a:	4013      	ands	r3, r2
 800479c:	0019      	movs	r1, r3
 800479e:	687b      	ldr	r3, [r7, #4]
 80047a0:	68da      	ldr	r2, [r3, #12]
 80047a2:	687b      	ldr	r3, [r7, #4]
 80047a4:	681b      	ldr	r3, [r3, #0]
 80047a6:	430a      	orrs	r2, r1
 80047a8:	605a      	str	r2, [r3, #4]
  /* Configure
  * - UART HardWare Flow Control: set CTSE and RTSE bits according
  *   to huart->Init.HwFlowCtl value
  * - one-bit sampling method versus three samples' majority rule according
  *   to huart->Init.OneBitSampling (not applicable to LPUART) */
  tmpreg = (uint32_t)huart->Init.HwFlowCtl;
 80047aa:	687b      	ldr	r3, [r7, #4]
 80047ac:	699b      	ldr	r3, [r3, #24]
 80047ae:	617b      	str	r3, [r7, #20]

  tmpreg |= huart->Init.OneBitSampling;
 80047b0:	687b      	ldr	r3, [r7, #4]
 80047b2:	6a1b      	ldr	r3, [r3, #32]
 80047b4:	697a      	ldr	r2, [r7, #20]
 80047b6:	4313      	orrs	r3, r2
 80047b8:	617b      	str	r3, [r7, #20]
  MODIFY_REG(huart->Instance->CR3, USART_CR3_FIELDS, tmpreg);
 80047ba:	687b      	ldr	r3, [r7, #4]
 80047bc:	681b      	ldr	r3, [r3, #0]
 80047be:	689b      	ldr	r3, [r3, #8]
 80047c0:	4a7f      	ldr	r2, [pc, #508]	@ (80049c0 <UART_SetConfig+0x26c>)
 80047c2:	4013      	ands	r3, r2
 80047c4:	0019      	movs	r1, r3
 80047c6:	687b      	ldr	r3, [r7, #4]
 80047c8:	681b      	ldr	r3, [r3, #0]
 80047ca:	697a      	ldr	r2, [r7, #20]
 80047cc:	430a      	orrs	r2, r1
 80047ce:	609a      	str	r2, [r3, #8]


  /*-------------------------- USART BRR Configuration -----------------------*/
  UART_GETCLOCKSOURCE(huart, clocksource);
 80047d0:	687b      	ldr	r3, [r7, #4]
 80047d2:	681b      	ldr	r3, [r3, #0]
 80047d4:	4a7b      	ldr	r2, [pc, #492]	@ (80049c4 <UART_SetConfig+0x270>)
 80047d6:	4293      	cmp	r3, r2
 80047d8:	d127      	bne.n	800482a <UART_SetConfig+0xd6>
 80047da:	4b7b      	ldr	r3, [pc, #492]	@ (80049c8 <UART_SetConfig+0x274>)
 80047dc:	6b1b      	ldr	r3, [r3, #48]	@ 0x30
 80047de:	2203      	movs	r2, #3
 80047e0:	4013      	ands	r3, r2
 80047e2:	2b03      	cmp	r3, #3
 80047e4:	d00d      	beq.n	8004802 <UART_SetConfig+0xae>
 80047e6:	d81b      	bhi.n	8004820 <UART_SetConfig+0xcc>
 80047e8:	2b02      	cmp	r3, #2
 80047ea:	d014      	beq.n	8004816 <UART_SetConfig+0xc2>
 80047ec:	d818      	bhi.n	8004820 <UART_SetConfig+0xcc>
 80047ee:	2b00      	cmp	r3, #0
 80047f0:	d002      	beq.n	80047f8 <UART_SetConfig+0xa4>
 80047f2:	2b01      	cmp	r3, #1
 80047f4:	d00a      	beq.n	800480c <UART_SetConfig+0xb8>
 80047f6:	e013      	b.n	8004820 <UART_SetConfig+0xcc>
 80047f8:	231f      	movs	r3, #31
 80047fa:	18fb      	adds	r3, r7, r3
 80047fc:	2200      	movs	r2, #0
 80047fe:	701a      	strb	r2, [r3, #0]
 8004800:	e021      	b.n	8004846 <UART_SetConfig+0xf2>
 8004802:	231f      	movs	r3, #31
 8004804:	18fb      	adds	r3, r7, r3
 8004806:	2202      	movs	r2, #2
 8004808:	701a      	strb	r2, [r3, #0]
 800480a:	e01c      	b.n	8004846 <UART_SetConfig+0xf2>
 800480c:	231f      	movs	r3, #31
 800480e:	18fb      	adds	r3, r7, r3
 8004810:	2204      	movs	r2, #4
 8004812:	701a      	strb	r2, [r3, #0]
 8004814:	e017      	b.n	8004846 <UART_SetConfig+0xf2>
 8004816:	231f      	movs	r3, #31
 8004818:	18fb      	adds	r3, r7, r3
 800481a:	2208      	movs	r2, #8
 800481c:	701a      	strb	r2, [r3, #0]
 800481e:	e012      	b.n	8004846 <UART_SetConfig+0xf2>
 8004820:	231f      	movs	r3, #31
 8004822:	18fb      	adds	r3, r7, r3
 8004824:	2210      	movs	r2, #16
 8004826:	701a      	strb	r2, [r3, #0]
 8004828:	e00d      	b.n	8004846 <UART_SetConfig+0xf2>
 800482a:	687b      	ldr	r3, [r7, #4]
 800482c:	681b      	ldr	r3, [r3, #0]
 800482e:	4a67      	ldr	r2, [pc, #412]	@ (80049cc <UART_SetConfig+0x278>)
 8004830:	4293      	cmp	r3, r2
 8004832:	d104      	bne.n	800483e <UART_SetConfig+0xea>
 8004834:	231f      	movs	r3, #31
 8004836:	18fb      	adds	r3, r7, r3
 8004838:	2200      	movs	r2, #0
 800483a:	701a      	strb	r2, [r3, #0]
 800483c:	e003      	b.n	8004846 <UART_SetConfig+0xf2>
 800483e:	231f      	movs	r3, #31
 8004840:	18fb      	adds	r3, r7, r3
 8004842:	2210      	movs	r2, #16
 8004844:	701a      	strb	r2, [r3, #0]

  if (huart->Init.OverSampling == UART_OVERSAMPLING_8)
 8004846:	687b      	ldr	r3, [r7, #4]
 8004848:	69da      	ldr	r2, [r3, #28]
 800484a:	2380      	movs	r3, #128	@ 0x80
 800484c:	021b      	lsls	r3, r3, #8
 800484e:	429a      	cmp	r2, r3
 8004850:	d15c      	bne.n	800490c <UART_SetConfig+0x1b8>
  {
    switch (clocksource)
 8004852:	231f      	movs	r3, #31
 8004854:	18fb      	adds	r3, r7, r3
 8004856:	781b      	ldrb	r3, [r3, #0]
 8004858:	2b08      	cmp	r3, #8
 800485a:	d015      	beq.n	8004888 <UART_SetConfig+0x134>
 800485c:	dc18      	bgt.n	8004890 <UART_SetConfig+0x13c>
 800485e:	2b04      	cmp	r3, #4
 8004860:	d00d      	beq.n	800487e <UART_SetConfig+0x12a>
 8004862:	dc15      	bgt.n	8004890 <UART_SetConfig+0x13c>
 8004864:	2b00      	cmp	r3, #0
 8004866:	d002      	beq.n	800486e <UART_SetConfig+0x11a>
 8004868:	2b02      	cmp	r3, #2
 800486a:	d005      	beq.n	8004878 <UART_SetConfig+0x124>
 800486c:	e010      	b.n	8004890 <UART_SetConfig+0x13c>
    {
      case UART_CLOCKSOURCE_PCLK1:
        pclk = HAL_RCC_GetPCLK1Freq();
 800486e:	f7ff fb2d 	bl	8003ecc <HAL_RCC_GetPCLK1Freq>
 8004872:	0003      	movs	r3, r0
 8004874:	61bb      	str	r3, [r7, #24]
        break;
 8004876:	e012      	b.n	800489e <UART_SetConfig+0x14a>
      case UART_CLOCKSOURCE_HSI:
        pclk = (uint32_t) HSI_VALUE;
 8004878:	4b55      	ldr	r3, [pc, #340]	@ (80049d0 <UART_SetConfig+0x27c>)
 800487a:	61bb      	str	r3, [r7, #24]
        break;
 800487c:	e00f      	b.n	800489e <UART_SetConfig+0x14a>
      case UART_CLOCKSOURCE_SYSCLK:
        pclk = HAL_RCC_GetSysClockFreq();
 800487e:	f7ff fac5 	bl	8003e0c <HAL_RCC_GetSysClockFreq>
 8004882:	0003      	movs	r3, r0
 8004884:	61bb      	str	r3, [r7, #24]
        break;
 8004886:	e00a      	b.n	800489e <UART_SetConfig+0x14a>
      case UART_CLOCKSOURCE_LSE:
        pclk = (uint32_t) LSE_VALUE;
 8004888:	2380      	movs	r3, #128	@ 0x80
 800488a:	021b      	lsls	r3, r3, #8
 800488c:	61bb      	str	r3, [r7, #24]
        break;
 800488e:	e006      	b.n	800489e <UART_SetConfig+0x14a>
      default:
        pclk = 0U;
 8004890:	2300      	movs	r3, #0
 8004892:	61bb      	str	r3, [r7, #24]
        ret = HAL_ERROR;
 8004894:	231e      	movs	r3, #30
 8004896:	18fb      	adds	r3, r7, r3
 8004898:	2201      	movs	r2, #1
 800489a:	701a      	strb	r2, [r3, #0]
        break;
 800489c:	46c0      	nop			@ (mov r8, r8)
    }

    /* USARTDIV must be greater than or equal to 0d16 */
    if (pclk != 0U)
 800489e:	69bb      	ldr	r3, [r7, #24]
 80048a0:	2b00      	cmp	r3, #0
 80048a2:	d100      	bne.n	80048a6 <UART_SetConfig+0x152>
 80048a4:	e07a      	b.n	800499c <UART_SetConfig+0x248>
    {
      usartdiv = (uint32_t)(UART_DIV_SAMPLING8(pclk, huart->Init.BaudRate));
 80048a6:	69bb      	ldr	r3, [r7, #24]
 80048a8:	005a      	lsls	r2, r3, #1
 80048aa:	687b      	ldr	r3, [r7, #4]
 80048ac:	685b      	ldr	r3, [r3, #4]
 80048ae:	085b      	lsrs	r3, r3, #1
 80048b0:	18d2      	adds	r2, r2, r3
 80048b2:	687b      	ldr	r3, [r7, #4]
 80048b4:	685b      	ldr	r3, [r3, #4]
 80048b6:	0019      	movs	r1, r3
 80048b8:	0010      	movs	r0, r2
 80048ba:	f7fb fc41 	bl	8000140 <__udivsi3>
 80048be:	0003      	movs	r3, r0
 80048c0:	613b      	str	r3, [r7, #16]
      if ((usartdiv >= UART_BRR_MIN) && (usartdiv <= UART_BRR_MAX))
 80048c2:	693b      	ldr	r3, [r7, #16]
 80048c4:	2b0f      	cmp	r3, #15
 80048c6:	d91c      	bls.n	8004902 <UART_SetConfig+0x1ae>
 80048c8:	693a      	ldr	r2, [r7, #16]
 80048ca:	2380      	movs	r3, #128	@ 0x80
 80048cc:	025b      	lsls	r3, r3, #9
 80048ce:	429a      	cmp	r2, r3
 80048d0:	d217      	bcs.n	8004902 <UART_SetConfig+0x1ae>
      {
        brrtemp = (uint16_t)(usartdiv & 0xFFF0U);
 80048d2:	693b      	ldr	r3, [r7, #16]
 80048d4:	b29a      	uxth	r2, r3
 80048d6:	200e      	movs	r0, #14
 80048d8:	183b      	adds	r3, r7, r0
 80048da:	210f      	movs	r1, #15
 80048dc:	438a      	bics	r2, r1
 80048de:	801a      	strh	r2, [r3, #0]
        brrtemp |= (uint16_t)((usartdiv & (uint16_t)0x000FU) >> 1U);
 80048e0:	693b      	ldr	r3, [r7, #16]
 80048e2:	085b      	lsrs	r3, r3, #1
 80048e4:	b29b      	uxth	r3, r3
 80048e6:	2207      	movs	r2, #7
 80048e8:	4013      	ands	r3, r2
 80048ea:	b299      	uxth	r1, r3
 80048ec:	183b      	adds	r3, r7, r0
 80048ee:	183a      	adds	r2, r7, r0
 80048f0:	8812      	ldrh	r2, [r2, #0]
 80048f2:	430a      	orrs	r2, r1
 80048f4:	801a      	strh	r2, [r3, #0]
        huart->Instance->BRR = brrtemp;
 80048f6:	687b      	ldr	r3, [r7, #4]
 80048f8:	681b      	ldr	r3, [r3, #0]
 80048fa:	183a      	adds	r2, r7, r0
 80048fc:	8812      	ldrh	r2, [r2, #0]
 80048fe:	60da      	str	r2, [r3, #12]
 8004900:	e04c      	b.n	800499c <UART_SetConfig+0x248>
      }
      else
      {
        ret = HAL_ERROR;
 8004902:	231e      	movs	r3, #30
 8004904:	18fb      	adds	r3, r7, r3
 8004906:	2201      	movs	r2, #1
 8004908:	701a      	strb	r2, [r3, #0]
 800490a:	e047      	b.n	800499c <UART_SetConfig+0x248>
      }
    }
  }
  else
  {
    switch (clocksource)
 800490c:	231f      	movs	r3, #31
 800490e:	18fb      	adds	r3, r7, r3
 8004910:	781b      	ldrb	r3, [r3, #0]
 8004912:	2b08      	cmp	r3, #8
 8004914:	d015      	beq.n	8004942 <UART_SetConfig+0x1ee>
 8004916:	dc18      	bgt.n	800494a <UART_SetConfig+0x1f6>
 8004918:	2b04      	cmp	r3, #4
 800491a:	d00d      	beq.n	8004938 <UART_SetConfig+0x1e4>
 800491c:	dc15      	bgt.n	800494a <UART_SetConfig+0x1f6>
 800491e:	2b00      	cmp	r3, #0
 8004920:	d002      	beq.n	8004928 <UART_SetConfig+0x1d4>
 8004922:	2b02      	cmp	r3, #2
 8004924:	d005      	beq.n	8004932 <UART_SetConfig+0x1de>
 8004926:	e010      	b.n	800494a <UART_SetConfig+0x1f6>
    {
      case UART_CLOCKSOURCE_PCLK1:
        pclk = HAL_RCC_GetPCLK1Freq();
 8004928:	f7ff fad0 	bl	8003ecc <HAL_RCC_GetPCLK1Freq>
 800492c:	0003      	movs	r3, r0
 800492e:	61bb      	str	r3, [r7, #24]
        break;
 8004930:	e012      	b.n	8004958 <UART_SetConfig+0x204>
      case UART_CLOCKSOURCE_HSI:
        pclk = (uint32_t) HSI_VALUE;
 8004932:	4b27      	ldr	r3, [pc, #156]	@ (80049d0 <UART_SetConfig+0x27c>)
 8004934:	61bb      	str	r3, [r7, #24]
        break;
 8004936:	e00f      	b.n	8004958 <UART_SetConfig+0x204>
      case UART_CLOCKSOURCE_SYSCLK:
        pclk = HAL_RCC_GetSysClockFreq();
 8004938:	f7ff fa68 	bl	8003e0c <HAL_RCC_GetSysClockFreq>
 800493c:	0003      	movs	r3, r0
 800493e:	61bb      	str	r3, [r7, #24]
        break;
 8004940:	e00a      	b.n	8004958 <UART_SetConfig+0x204>
      case UART_CLOCKSOURCE_LSE:
        pclk = (uint32_t) LSE_VALUE;
 8004942:	2380      	movs	r3, #128	@ 0x80
 8004944:	021b      	lsls	r3, r3, #8
 8004946:	61bb      	str	r3, [r7, #24]
        break;
 8004948:	e006      	b.n	8004958 <UART_SetConfig+0x204>
      default:
        pclk = 0U;
 800494a:	2300      	movs	r3, #0
 800494c:	61bb      	str	r3, [r7, #24]
        ret = HAL_ERROR;
 800494e:	231e      	movs	r3, #30
 8004950:	18fb      	adds	r3, r7, r3
 8004952:	2201      	movs	r2, #1
 8004954:	701a      	strb	r2, [r3, #0]
        break;
 8004956:	46c0      	nop			@ (mov r8, r8)
    }

    if (pclk != 0U)
 8004958:	69bb      	ldr	r3, [r7, #24]
 800495a:	2b00      	cmp	r3, #0
 800495c:	d01e      	beq.n	800499c <UART_SetConfig+0x248>
    {
      /* USARTDIV must be greater than or equal to 0d16 */
      usartdiv = (uint32_t)(UART_DIV_SAMPLING16(pclk, huart->Init.BaudRate));
 800495e:	687b      	ldr	r3, [r7, #4]
 8004960:	685b      	ldr	r3, [r3, #4]
 8004962:	085a      	lsrs	r2, r3, #1
 8004964:	69bb      	ldr	r3, [r7, #24]
 8004966:	18d2      	adds	r2, r2, r3
 8004968:	687b      	ldr	r3, [r7, #4]
 800496a:	685b      	ldr	r3, [r3, #4]
 800496c:	0019      	movs	r1, r3
 800496e:	0010      	movs	r0, r2
 8004970:	f7fb fbe6 	bl	8000140 <__udivsi3>
 8004974:	0003      	movs	r3, r0
 8004976:	613b      	str	r3, [r7, #16]
      if ((usartdiv >= UART_BRR_MIN) && (usartdiv <= UART_BRR_MAX))
 8004978:	693b      	ldr	r3, [r7, #16]
 800497a:	2b0f      	cmp	r3, #15
 800497c:	d90a      	bls.n	8004994 <UART_SetConfig+0x240>
 800497e:	693a      	ldr	r2, [r7, #16]
 8004980:	2380      	movs	r3, #128	@ 0x80
 8004982:	025b      	lsls	r3, r3, #9
 8004984:	429a      	cmp	r2, r3
 8004986:	d205      	bcs.n	8004994 <UART_SetConfig+0x240>
      {
        huart->Instance->BRR = (uint16_t)usartdiv;
 8004988:	693b      	ldr	r3, [r7, #16]
 800498a:	b29a      	uxth	r2, r3
 800498c:	687b      	ldr	r3, [r7, #4]
 800498e:	681b      	ldr	r3, [r3, #0]
 8004990:	60da      	str	r2, [r3, #12]
 8004992:	e003      	b.n	800499c <UART_SetConfig+0x248>
      }
      else
      {
        ret = HAL_ERROR;
 8004994:	231e      	movs	r3, #30
 8004996:	18fb      	adds	r3, r7, r3
 8004998:	2201      	movs	r2, #1
 800499a:	701a      	strb	r2, [r3, #0]
    }
  }


  /* Clear ISR function pointers */
  huart->RxISR = NULL;
 800499c:	687b      	ldr	r3, [r7, #4]
 800499e:	2200      	movs	r2, #0
 80049a0:	669a      	str	r2, [r3, #104]	@ 0x68
  huart->TxISR = NULL;
 80049a2:	687b      	ldr	r3, [r7, #4]
 80049a4:	2200      	movs	r2, #0
 80049a6:	66da      	str	r2, [r3, #108]	@ 0x6c

  return ret;
 80049a8:	231e      	movs	r3, #30
 80049aa:	18fb      	adds	r3, r7, r3
 80049ac:	781b      	ldrb	r3, [r3, #0]
}
 80049ae:	0018      	movs	r0, r3
 80049b0:	46bd      	mov	sp, r7
 80049b2:	b008      	add	sp, #32
 80049b4:	bd80      	pop	{r7, pc}
 80049b6:	46c0      	nop			@ (mov r8, r8)
 80049b8:	ffff69f3 	.word	0xffff69f3
 80049bc:	ffffcfff 	.word	0xffffcfff
 80049c0:	fffff4ff 	.word	0xfffff4ff
 80049c4:	40013800 	.word	0x40013800
 80049c8:	40021000 	.word	0x40021000
 80049cc:	40004400 	.word	0x40004400
 80049d0:	007a1200 	.word	0x007a1200

080049d4 <UART_AdvFeatureConfig>:
  * @brief Configure the UART peripheral advanced features.
  * @param huart UART handle.
  * @retval None
  */
void UART_AdvFeatureConfig(UART_HandleTypeDef *huart)
{
 80049d4:	b580      	push	{r7, lr}
 80049d6:	b082      	sub	sp, #8
 80049d8:	af00      	add	r7, sp, #0
 80049da:	6078      	str	r0, [r7, #4]
  /* Check whether the set of advanced features to configure is properly set */
  assert_param(IS_UART_ADVFEATURE_INIT(huart->AdvancedInit.AdvFeatureInit));

  /* if required, configure RX/TX pins swap */
  if (HAL_IS_BIT_SET(huart->AdvancedInit.AdvFeatureInit, UART_ADVFEATURE_SWAP_INIT))
 80049dc:	687b      	ldr	r3, [r7, #4]
 80049de:	6a5b      	ldr	r3, [r3, #36]	@ 0x24
 80049e0:	2208      	movs	r2, #8
 80049e2:	4013      	ands	r3, r2
 80049e4:	d00b      	beq.n	80049fe <UART_AdvFeatureConfig+0x2a>
  {
    assert_param(IS_UART_ADVFEATURE_SWAP(huart->AdvancedInit.Swap));
    MODIFY_REG(huart->Instance->CR2, USART_CR2_SWAP, huart->AdvancedInit.Swap);
 80049e6:	687b      	ldr	r3, [r7, #4]
 80049e8:	681b      	ldr	r3, [r3, #0]
 80049ea:	685b      	ldr	r3, [r3, #4]
 80049ec:	4a4a      	ldr	r2, [pc, #296]	@ (8004b18 <UART_AdvFeatureConfig+0x144>)
 80049ee:	4013      	ands	r3, r2
 80049f0:	0019      	movs	r1, r3
 80049f2:	687b      	ldr	r3, [r7, #4]
 80049f4:	6b5a      	ldr	r2, [r3, #52]	@ 0x34
 80049f6:	687b      	ldr	r3, [r7, #4]
 80049f8:	681b      	ldr	r3, [r3, #0]
 80049fa:	430a      	orrs	r2, r1
 80049fc:	605a      	str	r2, [r3, #4]
  }

  /* if required, configure TX pin active level inversion */
  if (HAL_IS_BIT_SET(huart->AdvancedInit.AdvFeatureInit, UART_ADVFEATURE_TXINVERT_INIT))
 80049fe:	687b      	ldr	r3, [r7, #4]
 8004a00:	6a5b      	ldr	r3, [r3, #36]	@ 0x24
 8004a02:	2201      	movs	r2, #1
 8004a04:	4013      	ands	r3, r2
 8004a06:	d00b      	beq.n	8004a20 <UART_AdvFeatureConfig+0x4c>
  {
    assert_param(IS_UART_ADVFEATURE_TXINV(huart->AdvancedInit.TxPinLevelInvert));
    MODIFY_REG(huart->Instance->CR2, USART_CR2_TXINV, huart->AdvancedInit.TxPinLevelInvert);
 8004a08:	687b      	ldr	r3, [r7, #4]
 8004a0a:	681b      	ldr	r3, [r3, #0]
 8004a0c:	685b      	ldr	r3, [r3, #4]
 8004a0e:	4a43      	ldr	r2, [pc, #268]	@ (8004b1c <UART_AdvFeatureConfig+0x148>)
 8004a10:	4013      	ands	r3, r2
 8004a12:	0019      	movs	r1, r3
 8004a14:	687b      	ldr	r3, [r7, #4]
 8004a16:	6a9a      	ldr	r2, [r3, #40]	@ 0x28
 8004a18:	687b      	ldr	r3, [r7, #4]
 8004a1a:	681b      	ldr	r3, [r3, #0]
 8004a1c:	430a      	orrs	r2, r1
 8004a1e:	605a      	str	r2, [r3, #4]
  }

  /* if required, configure RX pin active level inversion */
  if (HAL_IS_BIT_SET(huart->AdvancedInit.AdvFeatureInit, UART_ADVFEATURE_RXINVERT_INIT))
 8004a20:	687b      	ldr	r3, [r7, #4]
 8004a22:	6a5b      	ldr	r3, [r3, #36]	@ 0x24
 8004a24:	2202      	movs	r2, #2
 8004a26:	4013      	ands	r3, r2
 8004a28:	d00b      	beq.n	8004a42 <UART_AdvFeatureConfig+0x6e>
  {
    assert_param(IS_UART_ADVFEATURE_RXINV(huart->AdvancedInit.RxPinLevelInvert));
    MODIFY_REG(huart->Instance->CR2, USART_CR2_RXINV, huart->AdvancedInit.RxPinLevelInvert);
 8004a2a:	687b      	ldr	r3, [r7, #4]
 8004a2c:	681b      	ldr	r3, [r3, #0]
 8004a2e:	685b      	ldr	r3, [r3, #4]
 8004a30:	4a3b      	ldr	r2, [pc, #236]	@ (8004b20 <UART_AdvFeatureConfig+0x14c>)
 8004a32:	4013      	ands	r3, r2
 8004a34:	0019      	movs	r1, r3
 8004a36:	687b      	ldr	r3, [r7, #4]
 8004a38:	6ada      	ldr	r2, [r3, #44]	@ 0x2c
 8004a3a:	687b      	ldr	r3, [r7, #4]
 8004a3c:	681b      	ldr	r3, [r3, #0]
 8004a3e:	430a      	orrs	r2, r1
 8004a40:	605a      	str	r2, [r3, #4]
  }

  /* if required, configure data inversion */
  if (HAL_IS_BIT_SET(huart->AdvancedInit.AdvFeatureInit, UART_ADVFEATURE_DATAINVERT_INIT))
 8004a42:	687b      	ldr	r3, [r7, #4]
 8004a44:	6a5b      	ldr	r3, [r3, #36]	@ 0x24
 8004a46:	2204      	movs	r2, #4
 8004a48:	4013      	ands	r3, r2
 8004a4a:	d00b      	beq.n	8004a64 <UART_AdvFeatureConfig+0x90>
  {
    assert_param(IS_UART_ADVFEATURE_DATAINV(huart->AdvancedInit.DataInvert));
    MODIFY_REG(huart->Instance->CR2, USART_CR2_DATAINV, huart->AdvancedInit.DataInvert);
 8004a4c:	687b      	ldr	r3, [r7, #4]
 8004a4e:	681b      	ldr	r3, [r3, #0]
 8004a50:	685b      	ldr	r3, [r3, #4]
 8004a52:	4a34      	ldr	r2, [pc, #208]	@ (8004b24 <UART_AdvFeatureConfig+0x150>)
 8004a54:	4013      	ands	r3, r2
 8004a56:	0019      	movs	r1, r3
 8004a58:	687b      	ldr	r3, [r7, #4]
 8004a5a:	6b1a      	ldr	r2, [r3, #48]	@ 0x30
 8004a5c:	687b      	ldr	r3, [r7, #4]
 8004a5e:	681b      	ldr	r3, [r3, #0]
 8004a60:	430a      	orrs	r2, r1
 8004a62:	605a      	str	r2, [r3, #4]
  }

  /* if required, configure RX overrun detection disabling */
  if (HAL_IS_BIT_SET(huart->AdvancedInit.AdvFeatureInit, UART_ADVFEATURE_RXOVERRUNDISABLE_INIT))
 8004a64:	687b      	ldr	r3, [r7, #4]
 8004a66:	6a5b      	ldr	r3, [r3, #36]	@ 0x24
 8004a68:	2210      	movs	r2, #16
 8004a6a:	4013      	ands	r3, r2
 8004a6c:	d00b      	beq.n	8004a86 <UART_AdvFeatureConfig+0xb2>
  {
    assert_param(IS_UART_OVERRUN(huart->AdvancedInit.OverrunDisable));
    MODIFY_REG(huart->Instance->CR3, USART_CR3_OVRDIS, huart->AdvancedInit.OverrunDisable);
 8004a6e:	687b      	ldr	r3, [r7, #4]
 8004a70:	681b      	ldr	r3, [r3, #0]
 8004a72:	689b      	ldr	r3, [r3, #8]
 8004a74:	4a2c      	ldr	r2, [pc, #176]	@ (8004b28 <UART_AdvFeatureConfig+0x154>)
 8004a76:	4013      	ands	r3, r2
 8004a78:	0019      	movs	r1, r3
 8004a7a:	687b      	ldr	r3, [r7, #4]
 8004a7c:	6b9a      	ldr	r2, [r3, #56]	@ 0x38
 8004a7e:	687b      	ldr	r3, [r7, #4]
 8004a80:	681b      	ldr	r3, [r3, #0]
 8004a82:	430a      	orrs	r2, r1
 8004a84:	609a      	str	r2, [r3, #8]
  }

  /* if required, configure DMA disabling on reception error */
  if (HAL_IS_BIT_SET(huart->AdvancedInit.AdvFeatureInit, UART_ADVFEATURE_DMADISABLEONERROR_INIT))
 8004a86:	687b      	ldr	r3, [r7, #4]
 8004a88:	6a5b      	ldr	r3, [r3, #36]	@ 0x24
 8004a8a:	2220      	movs	r2, #32
 8004a8c:	4013      	ands	r3, r2
 8004a8e:	d00b      	beq.n	8004aa8 <UART_AdvFeatureConfig+0xd4>
  {
    assert_param(IS_UART_ADVFEATURE_DMAONRXERROR(huart->AdvancedInit.DMADisableonRxError));
    MODIFY_REG(huart->Instance->CR3, USART_CR3_DDRE, huart->AdvancedInit.DMADisableonRxError);
 8004a90:	687b      	ldr	r3, [r7, #4]
 8004a92:	681b      	ldr	r3, [r3, #0]
 8004a94:	689b      	ldr	r3, [r3, #8]
 8004a96:	4a25      	ldr	r2, [pc, #148]	@ (8004b2c <UART_AdvFeatureConfig+0x158>)
 8004a98:	4013      	ands	r3, r2
 8004a9a:	0019      	movs	r1, r3
 8004a9c:	687b      	ldr	r3, [r7, #4]
 8004a9e:	6bda      	ldr	r2, [r3, #60]	@ 0x3c
 8004aa0:	687b      	ldr	r3, [r7, #4]
 8004aa2:	681b      	ldr	r3, [r3, #0]
 8004aa4:	430a      	orrs	r2, r1
 8004aa6:	609a      	str	r2, [r3, #8]
  }

  /* if required, configure auto Baud rate detection scheme */
  if (HAL_IS_BIT_SET(huart->AdvancedInit.AdvFeatureInit, UART_ADVFEATURE_AUTOBAUDRATE_INIT))
 8004aa8:	687b      	ldr	r3, [r7, #4]
 8004aaa:	6a5b      	ldr	r3, [r3, #36]	@ 0x24
 8004aac:	2240      	movs	r2, #64	@ 0x40
 8004aae:	4013      	ands	r3, r2
 8004ab0:	d01d      	beq.n	8004aee <UART_AdvFeatureConfig+0x11a>
  {
    assert_param(IS_USART_AUTOBAUDRATE_DETECTION_INSTANCE(huart->Instance));
    assert_param(IS_UART_ADVFEATURE_AUTOBAUDRATE(huart->AdvancedInit.AutoBaudRateEnable));
    MODIFY_REG(huart->Instance->CR2, USART_CR2_ABREN, huart->AdvancedInit.AutoBaudRateEnable);
 8004ab2:	687b      	ldr	r3, [r7, #4]
 8004ab4:	681b      	ldr	r3, [r3, #0]
 8004ab6:	685b      	ldr	r3, [r3, #4]
 8004ab8:	4a1d      	ldr	r2, [pc, #116]	@ (8004b30 <UART_AdvFeatureConfig+0x15c>)
 8004aba:	4013      	ands	r3, r2
 8004abc:	0019      	movs	r1, r3
 8004abe:	687b      	ldr	r3, [r7, #4]
 8004ac0:	6c1a      	ldr	r2, [r3, #64]	@ 0x40
 8004ac2:	687b      	ldr	r3, [r7, #4]
 8004ac4:	681b      	ldr	r3, [r3, #0]
 8004ac6:	430a      	orrs	r2, r1
 8004ac8:	605a      	str	r2, [r3, #4]
    /* set auto Baudrate detection parameters if detection is enabled */
    if (huart->AdvancedInit.AutoBaudRateEnable == UART_ADVFEATURE_AUTOBAUDRATE_ENABLE)
 8004aca:	687b      	ldr	r3, [r7, #4]
 8004acc:	6c1a      	ldr	r2, [r3, #64]	@ 0x40
 8004ace:	2380      	movs	r3, #128	@ 0x80
 8004ad0:	035b      	lsls	r3, r3, #13
 8004ad2:	429a      	cmp	r2, r3
 8004ad4:	d10b      	bne.n	8004aee <UART_AdvFeatureConfig+0x11a>
    {
      assert_param(IS_UART_ADVFEATURE_AUTOBAUDRATEMODE(huart->AdvancedInit.AutoBaudRateMode));
      MODIFY_REG(huart->Instance->CR2, USART_CR2_ABRMODE, huart->AdvancedInit.AutoBaudRateMode);
 8004ad6:	687b      	ldr	r3, [r7, #4]
 8004ad8:	681b      	ldr	r3, [r3, #0]
 8004ada:	685b      	ldr	r3, [r3, #4]
 8004adc:	4a15      	ldr	r2, [pc, #84]	@ (8004b34 <UART_AdvFeatureConfig+0x160>)
 8004ade:	4013      	ands	r3, r2
 8004ae0:	0019      	movs	r1, r3
 8004ae2:	687b      	ldr	r3, [r7, #4]
 8004ae4:	6c5a      	ldr	r2, [r3, #68]	@ 0x44
 8004ae6:	687b      	ldr	r3, [r7, #4]
 8004ae8:	681b      	ldr	r3, [r3, #0]
 8004aea:	430a      	orrs	r2, r1
 8004aec:	605a      	str	r2, [r3, #4]
    }
  }

  /* if required, configure MSB first on communication line */
  if (HAL_IS_BIT_SET(huart->AdvancedInit.AdvFeatureInit, UART_ADVFEATURE_MSBFIRST_INIT))
 8004aee:	687b      	ldr	r3, [r7, #4]
 8004af0:	6a5b      	ldr	r3, [r3, #36]	@ 0x24
 8004af2:	2280      	movs	r2, #128	@ 0x80
 8004af4:	4013      	ands	r3, r2
 8004af6:	d00b      	beq.n	8004b10 <UART_AdvFeatureConfig+0x13c>
  {
    assert_param(IS_UART_ADVFEATURE_MSBFIRST(huart->AdvancedInit.MSBFirst));
    MODIFY_REG(huart->Instance->CR2, USART_CR2_MSBFIRST, huart->AdvancedInit.MSBFirst);
 8004af8:	687b      	ldr	r3, [r7, #4]
 8004afa:	681b      	ldr	r3, [r3, #0]
 8004afc:	685b      	ldr	r3, [r3, #4]
 8004afe:	4a0e      	ldr	r2, [pc, #56]	@ (8004b38 <UART_AdvFeatureConfig+0x164>)
 8004b00:	4013      	ands	r3, r2
 8004b02:	0019      	movs	r1, r3
 8004b04:	687b      	ldr	r3, [r7, #4]
 8004b06:	6c9a      	ldr	r2, [r3, #72]	@ 0x48
 8004b08:	687b      	ldr	r3, [r7, #4]
 8004b0a:	681b      	ldr	r3, [r3, #0]
 8004b0c:	430a      	orrs	r2, r1
 8004b0e:	605a      	str	r2, [r3, #4]
  }
}
 8004b10:	46c0      	nop			@ (mov r8, r8)
 8004b12:	46bd      	mov	sp, r7
 8004b14:	b002      	add	sp, #8
 8004b16:	bd80      	pop	{r7, pc}
 8004b18:	ffff7fff 	.word	0xffff7fff
 8004b1c:	fffdffff 	.word	0xfffdffff
 8004b20:	fffeffff 	.word	0xfffeffff
 8004b24:	fffbffff 	.word	0xfffbffff
 8004b28:	ffffefff 	.word	0xffffefff
 8004b2c:	ffffdfff 	.word	0xffffdfff
 8004b30:	ffefffff 	.word	0xffefffff
 8004b34:	ff9fffff 	.word	0xff9fffff
 8004b38:	fff7ffff 	.word	0xfff7ffff

08004b3c <UART_CheckIdleState>:
  * @brief Check the UART Idle State.
  * @param huart UART handle.
  * @retval HAL status
  */
HAL_StatusTypeDef UART_CheckIdleState(UART_HandleTypeDef *huart)
{
 8004b3c:	b580      	push	{r7, lr}
 8004b3e:	b092      	sub	sp, #72	@ 0x48
 8004b40:	af02      	add	r7, sp, #8
 8004b42:	6078      	str	r0, [r7, #4]
  uint32_t tickstart;

  /* Initialize the UART ErrorCode */
  huart->ErrorCode = HAL_UART_ERROR_NONE;
 8004b44:	687b      	ldr	r3, [r7, #4]
 8004b46:	2284      	movs	r2, #132	@ 0x84
 8004b48:	2100      	movs	r1, #0
 8004b4a:	5099      	str	r1, [r3, r2]

  /* Init tickstart for timeout management */
  tickstart = HAL_GetTick();
 8004b4c:	f7fe fa92 	bl	8003074 <HAL_GetTick>
 8004b50:	0003      	movs	r3, r0
 8004b52:	63fb      	str	r3, [r7, #60]	@ 0x3c

  /* Check if the Transmitter is enabled */
  if ((huart->Instance->CR1 & USART_CR1_TE) == USART_CR1_TE)
 8004b54:	687b      	ldr	r3, [r7, #4]
 8004b56:	681b      	ldr	r3, [r3, #0]
 8004b58:	681b      	ldr	r3, [r3, #0]
 8004b5a:	2208      	movs	r2, #8
 8004b5c:	4013      	ands	r3, r2
 8004b5e:	2b08      	cmp	r3, #8
 8004b60:	d12c      	bne.n	8004bbc <UART_CheckIdleState+0x80>
  {
    /* Wait until TEACK flag is set */
    if (UART_WaitOnFlagUntilTimeout(huart, USART_ISR_TEACK, RESET, tickstart, HAL_UART_TIMEOUT_VALUE) != HAL_OK)
 8004b62:	6bfb      	ldr	r3, [r7, #60]	@ 0x3c
 8004b64:	2280      	movs	r2, #128	@ 0x80
 8004b66:	0391      	lsls	r1, r2, #14
 8004b68:	6878      	ldr	r0, [r7, #4]
 8004b6a:	4a46      	ldr	r2, [pc, #280]	@ (8004c84 <UART_CheckIdleState+0x148>)
 8004b6c:	9200      	str	r2, [sp, #0]
 8004b6e:	2200      	movs	r2, #0
 8004b70:	f000 f88c 	bl	8004c8c <UART_WaitOnFlagUntilTimeout>
 8004b74:	1e03      	subs	r3, r0, #0
 8004b76:	d021      	beq.n	8004bbc <UART_CheckIdleState+0x80>
  __ASM volatile ("MRS %0, primask" : "=r" (result) :: "memory");
 8004b78:	f3ef 8310 	mrs	r3, PRIMASK
 8004b7c:	627b      	str	r3, [r7, #36]	@ 0x24
  return(result);
 8004b7e:	6a7b      	ldr	r3, [r7, #36]	@ 0x24
    {
      /* Disable TXE interrupt for the interrupt process */
      ATOMIC_CLEAR_BIT(huart->Instance->CR1, (USART_CR1_TXEIE));
 8004b80:	63bb      	str	r3, [r7, #56]	@ 0x38
 8004b82:	2301      	movs	r3, #1
 8004b84:	62bb      	str	r3, [r7, #40]	@ 0x28
  __ASM volatile ("MSR primask, %0" : : "r" (priMask) : "memory");
 8004b86:	6abb      	ldr	r3, [r7, #40]	@ 0x28
 8004b88:	f383 8810 	msr	PRIMASK, r3
}
 8004b8c:	46c0      	nop			@ (mov r8, r8)
 8004b8e:	687b      	ldr	r3, [r7, #4]
 8004b90:	681b      	ldr	r3, [r3, #0]
 8004b92:	681a      	ldr	r2, [r3, #0]
 8004b94:	687b      	ldr	r3, [r7, #4]
 8004b96:	681b      	ldr	r3, [r3, #0]
 8004b98:	2180      	movs	r1, #128	@ 0x80
 8004b9a:	438a      	bics	r2, r1
 8004b9c:	601a      	str	r2, [r3, #0]
 8004b9e:	6bbb      	ldr	r3, [r7, #56]	@ 0x38
 8004ba0:	62fb      	str	r3, [r7, #44]	@ 0x2c
  __ASM volatile ("MSR primask, %0" : : "r" (priMask) : "memory");
 8004ba2:	6afb      	ldr	r3, [r7, #44]	@ 0x2c
 8004ba4:	f383 8810 	msr	PRIMASK, r3
}
 8004ba8:	46c0      	nop			@ (mov r8, r8)

      huart->gState = HAL_UART_STATE_READY;
 8004baa:	687b      	ldr	r3, [r7, #4]
 8004bac:	2220      	movs	r2, #32
 8004bae:	67da      	str	r2, [r3, #124]	@ 0x7c

      __HAL_UNLOCK(huart);
 8004bb0:	687b      	ldr	r3, [r7, #4]
 8004bb2:	2278      	movs	r2, #120	@ 0x78
 8004bb4:	2100      	movs	r1, #0
 8004bb6:	5499      	strb	r1, [r3, r2]

      /* Timeout occurred */
      return HAL_TIMEOUT;
 8004bb8:	2303      	movs	r3, #3
 8004bba:	e05f      	b.n	8004c7c <UART_CheckIdleState+0x140>
    }
  }

  /* Check if the Receiver is enabled */
  if ((huart->Instance->CR1 & USART_CR1_RE) == USART_CR1_RE)
 8004bbc:	687b      	ldr	r3, [r7, #4]
 8004bbe:	681b      	ldr	r3, [r3, #0]
 8004bc0:	681b      	ldr	r3, [r3, #0]
 8004bc2:	2204      	movs	r2, #4
 8004bc4:	4013      	ands	r3, r2
 8004bc6:	2b04      	cmp	r3, #4
 8004bc8:	d146      	bne.n	8004c58 <UART_CheckIdleState+0x11c>
  {
    /* Wait until REACK flag is set */
    if (UART_WaitOnFlagUntilTimeout(huart, USART_ISR_REACK, RESET, tickstart, HAL_UART_TIMEOUT_VALUE) != HAL_OK)
 8004bca:	6bfb      	ldr	r3, [r7, #60]	@ 0x3c
 8004bcc:	2280      	movs	r2, #128	@ 0x80
 8004bce:	03d1      	lsls	r1, r2, #15
 8004bd0:	6878      	ldr	r0, [r7, #4]
 8004bd2:	4a2c      	ldr	r2, [pc, #176]	@ (8004c84 <UART_CheckIdleState+0x148>)
 8004bd4:	9200      	str	r2, [sp, #0]
 8004bd6:	2200      	movs	r2, #0
 8004bd8:	f000 f858 	bl	8004c8c <UART_WaitOnFlagUntilTimeout>
 8004bdc:	1e03      	subs	r3, r0, #0
 8004bde:	d03b      	beq.n	8004c58 <UART_CheckIdleState+0x11c>
  __ASM volatile ("MRS %0, primask" : "=r" (result) :: "memory");
 8004be0:	f3ef 8310 	mrs	r3, PRIMASK
 8004be4:	60fb      	str	r3, [r7, #12]
  return(result);
 8004be6:	68fb      	ldr	r3, [r7, #12]
    {
      /* Disable RXNE, PE and ERR (Frame error, noise error, overrun error)
      interrupts for the interrupt process */
      ATOMIC_CLEAR_BIT(huart->Instance->CR1, (USART_CR1_RXNEIE | USART_CR1_PEIE));
 8004be8:	637b      	str	r3, [r7, #52]	@ 0x34
 8004bea:	2301      	movs	r3, #1
 8004bec:	613b      	str	r3, [r7, #16]
  __ASM volatile ("MSR primask, %0" : : "r" (priMask) : "memory");
 8004bee:	693b      	ldr	r3, [r7, #16]
 8004bf0:	f383 8810 	msr	PRIMASK, r3
}
 8004bf4:	46c0      	nop			@ (mov r8, r8)
 8004bf6:	687b      	ldr	r3, [r7, #4]
 8004bf8:	681b      	ldr	r3, [r3, #0]
 8004bfa:	681a      	ldr	r2, [r3, #0]
 8004bfc:	687b      	ldr	r3, [r7, #4]
 8004bfe:	681b      	ldr	r3, [r3, #0]
 8004c00:	4921      	ldr	r1, [pc, #132]	@ (8004c88 <UART_CheckIdleState+0x14c>)
 8004c02:	400a      	ands	r2, r1
 8004c04:	601a      	str	r2, [r3, #0]
 8004c06:	6b7b      	ldr	r3, [r7, #52]	@ 0x34
 8004c08:	617b      	str	r3, [r7, #20]
  __ASM volatile ("MSR primask, %0" : : "r" (priMask) : "memory");
 8004c0a:	697b      	ldr	r3, [r7, #20]
 8004c0c:	f383 8810 	msr	PRIMASK, r3
}
 8004c10:	46c0      	nop			@ (mov r8, r8)
  __ASM volatile ("MRS %0, primask" : "=r" (result) :: "memory");
 8004c12:	f3ef 8310 	mrs	r3, PRIMASK
 8004c16:	61bb      	str	r3, [r7, #24]
  return(result);
 8004c18:	69bb      	ldr	r3, [r7, #24]
      ATOMIC_CLEAR_BIT(huart->Instance->CR3, USART_CR3_EIE);
 8004c1a:	633b      	str	r3, [r7, #48]	@ 0x30
 8004c1c:	2301      	movs	r3, #1
 8004c1e:	61fb      	str	r3, [r7, #28]
  __ASM volatile ("MSR primask, %0" : : "r" (priMask) : "memory");
 8004c20:	69fb      	ldr	r3, [r7, #28]
 8004c22:	f383 8810 	msr	PRIMASK, r3
}
 8004c26:	46c0      	nop			@ (mov r8, r8)
 8004c28:	687b      	ldr	r3, [r7, #4]
 8004c2a:	681b      	ldr	r3, [r3, #0]
 8004c2c:	689a      	ldr	r2, [r3, #8]
 8004c2e:	687b      	ldr	r3, [r7, #4]
 8004c30:	681b      	ldr	r3, [r3, #0]
 8004c32:	2101      	movs	r1, #1
 8004c34:	438a      	bics	r2, r1
 8004c36:	609a      	str	r2, [r3, #8]
 8004c38:	6b3b      	ldr	r3, [r7, #48]	@ 0x30
 8004c3a:	623b      	str	r3, [r7, #32]
  __ASM volatile ("MSR primask, %0" : : "r" (priMask) : "memory");
 8004c3c:	6a3b      	ldr	r3, [r7, #32]
 8004c3e:	f383 8810 	msr	PRIMASK, r3
}
 8004c42:	46c0      	nop			@ (mov r8, r8)

      huart->RxState = HAL_UART_STATE_READY;
 8004c44:	687b      	ldr	r3, [r7, #4]
 8004c46:	2280      	movs	r2, #128	@ 0x80
 8004c48:	2120      	movs	r1, #32
 8004c4a:	5099      	str	r1, [r3, r2]

      __HAL_UNLOCK(huart);
 8004c4c:	687b      	ldr	r3, [r7, #4]
 8004c4e:	2278      	movs	r2, #120	@ 0x78
 8004c50:	2100      	movs	r1, #0
 8004c52:	5499      	strb	r1, [r3, r2]

      /* Timeout occurred */
      return HAL_TIMEOUT;
 8004c54:	2303      	movs	r3, #3
 8004c56:	e011      	b.n	8004c7c <UART_CheckIdleState+0x140>
    }
  }

  /* Initialize the UART State */
  huart->gState = HAL_UART_STATE_READY;
 8004c58:	687b      	ldr	r3, [r7, #4]
 8004c5a:	2220      	movs	r2, #32
 8004c5c:	67da      	str	r2, [r3, #124]	@ 0x7c
  huart->RxState = HAL_UART_STATE_READY;
 8004c5e:	687b      	ldr	r3, [r7, #4]
 8004c60:	2280      	movs	r2, #128	@ 0x80
 8004c62:	2120      	movs	r1, #32
 8004c64:	5099      	str	r1, [r3, r2]
  huart->ReceptionType = HAL_UART_RECEPTION_STANDARD;
 8004c66:	687b      	ldr	r3, [r7, #4]
 8004c68:	2200      	movs	r2, #0
 8004c6a:	661a      	str	r2, [r3, #96]	@ 0x60
  huart->RxEventType = HAL_UART_RXEVENT_TC;
 8004c6c:	687b      	ldr	r3, [r7, #4]
 8004c6e:	2200      	movs	r2, #0
 8004c70:	665a      	str	r2, [r3, #100]	@ 0x64

  __HAL_UNLOCK(huart);
 8004c72:	687b      	ldr	r3, [r7, #4]
 8004c74:	2278      	movs	r2, #120	@ 0x78
 8004c76:	2100      	movs	r1, #0
 8004c78:	5499      	strb	r1, [r3, r2]

  return HAL_OK;
 8004c7a:	2300      	movs	r3, #0
}
 8004c7c:	0018      	movs	r0, r3
 8004c7e:	46bd      	mov	sp, r7
 8004c80:	b010      	add	sp, #64	@ 0x40
 8004c82:	bd80      	pop	{r7, pc}
 8004c84:	01ffffff 	.word	0x01ffffff
 8004c88:	fffffedf 	.word	0xfffffedf

08004c8c <UART_WaitOnFlagUntilTimeout>:
  * @param Timeout   Timeout duration
  * @retval HAL status
  */
HAL_StatusTypeDef UART_WaitOnFlagUntilTimeout(UART_HandleTypeDef *huart, uint32_t Flag, FlagStatus Status,
                                              uint32_t Tickstart, uint32_t Timeout)
{
 8004c8c:	b580      	push	{r7, lr}
 8004c8e:	b084      	sub	sp, #16
 8004c90:	af00      	add	r7, sp, #0
 8004c92:	60f8      	str	r0, [r7, #12]
 8004c94:	60b9      	str	r1, [r7, #8]
 8004c96:	603b      	str	r3, [r7, #0]
 8004c98:	1dfb      	adds	r3, r7, #7
 8004c9a:	701a      	strb	r2, [r3, #0]
  /* Wait until flag is set */
  while ((__HAL_UART_GET_FLAG(huart, Flag) ? SET : RESET) == Status)
 8004c9c:	e051      	b.n	8004d42 <UART_WaitOnFlagUntilTimeout+0xb6>
  {
    /* Check for the Timeout */
    if (Timeout != HAL_MAX_DELAY)
 8004c9e:	69bb      	ldr	r3, [r7, #24]
 8004ca0:	3301      	adds	r3, #1
 8004ca2:	d04e      	beq.n	8004d42 <UART_WaitOnFlagUntilTimeout+0xb6>
    {
      if (((HAL_GetTick() - Tickstart) > Timeout) || (Timeout == 0U))
 8004ca4:	f7fe f9e6 	bl	8003074 <HAL_GetTick>
 8004ca8:	0002      	movs	r2, r0
 8004caa:	683b      	ldr	r3, [r7, #0]
 8004cac:	1ad3      	subs	r3, r2, r3
 8004cae:	69ba      	ldr	r2, [r7, #24]
 8004cb0:	429a      	cmp	r2, r3
 8004cb2:	d302      	bcc.n	8004cba <UART_WaitOnFlagUntilTimeout+0x2e>
 8004cb4:	69bb      	ldr	r3, [r7, #24]
 8004cb6:	2b00      	cmp	r3, #0
 8004cb8:	d101      	bne.n	8004cbe <UART_WaitOnFlagUntilTimeout+0x32>
      {

        return HAL_TIMEOUT;
 8004cba:	2303      	movs	r3, #3
 8004cbc:	e051      	b.n	8004d62 <UART_WaitOnFlagUntilTimeout+0xd6>
      }

      if ((READ_BIT(huart->Instance->CR1, USART_CR1_RE) != 0U) && (Flag != UART_FLAG_TXE) && (Flag != UART_FLAG_TC))
 8004cbe:	68fb      	ldr	r3, [r7, #12]
 8004cc0:	681b      	ldr	r3, [r3, #0]
 8004cc2:	681b      	ldr	r3, [r3, #0]
 8004cc4:	2204      	movs	r2, #4
 8004cc6:	4013      	ands	r3, r2
 8004cc8:	d03b      	beq.n	8004d42 <UART_WaitOnFlagUntilTimeout+0xb6>
 8004cca:	68bb      	ldr	r3, [r7, #8]
 8004ccc:	2b80      	cmp	r3, #128	@ 0x80
 8004cce:	d038      	beq.n	8004d42 <UART_WaitOnFlagUntilTimeout+0xb6>
 8004cd0:	68bb      	ldr	r3, [r7, #8]
 8004cd2:	2b40      	cmp	r3, #64	@ 0x40
 8004cd4:	d035      	beq.n	8004d42 <UART_WaitOnFlagUntilTimeout+0xb6>
      {
        if (__HAL_UART_GET_FLAG(huart, UART_FLAG_ORE) == SET)
 8004cd6:	68fb      	ldr	r3, [r7, #12]
 8004cd8:	681b      	ldr	r3, [r3, #0]
 8004cda:	69db      	ldr	r3, [r3, #28]
 8004cdc:	2208      	movs	r2, #8
 8004cde:	4013      	ands	r3, r2
 8004ce0:	2b08      	cmp	r3, #8
 8004ce2:	d111      	bne.n	8004d08 <UART_WaitOnFlagUntilTimeout+0x7c>
        {
          /* Clear Overrun Error flag*/
          __HAL_UART_CLEAR_FLAG(huart, UART_CLEAR_OREF);
 8004ce4:	68fb      	ldr	r3, [r7, #12]
 8004ce6:	681b      	ldr	r3, [r3, #0]
 8004ce8:	2208      	movs	r2, #8
 8004cea:	621a      	str	r2, [r3, #32]

          /* Blocking error : transfer is aborted
          Set the UART state ready to be able to start again the process,
          Disable Rx Interrupts if ongoing */
          UART_EndRxTransfer(huart);
 8004cec:	68fb      	ldr	r3, [r7, #12]
 8004cee:	0018      	movs	r0, r3
 8004cf0:	f000 f8f2 	bl	8004ed8 <UART_EndRxTransfer>

          huart->ErrorCode = HAL_UART_ERROR_ORE;
 8004cf4:	68fb      	ldr	r3, [r7, #12]
 8004cf6:	2284      	movs	r2, #132	@ 0x84
 8004cf8:	2108      	movs	r1, #8
 8004cfa:	5099      	str	r1, [r3, r2]

          /* Process Unlocked */
          __HAL_UNLOCK(huart);
 8004cfc:	68fb      	ldr	r3, [r7, #12]
 8004cfe:	2278      	movs	r2, #120	@ 0x78
 8004d00:	2100      	movs	r1, #0
 8004d02:	5499      	strb	r1, [r3, r2]

          return HAL_ERROR;
 8004d04:	2301      	movs	r3, #1
 8004d06:	e02c      	b.n	8004d62 <UART_WaitOnFlagUntilTimeout+0xd6>
        }
        if (__HAL_UART_GET_FLAG(huart, UART_FLAG_RTOF) == SET)
 8004d08:	68fb      	ldr	r3, [r7, #12]
 8004d0a:	681b      	ldr	r3, [r3, #0]
 8004d0c:	69da      	ldr	r2, [r3, #28]
 8004d0e:	2380      	movs	r3, #128	@ 0x80
 8004d10:	011b      	lsls	r3, r3, #4
 8004d12:	401a      	ands	r2, r3
 8004d14:	2380      	movs	r3, #128	@ 0x80
 8004d16:	011b      	lsls	r3, r3, #4
 8004d18:	429a      	cmp	r2, r3
 8004d1a:	d112      	bne.n	8004d42 <UART_WaitOnFlagUntilTimeout+0xb6>
        {
          /* Clear Receiver Timeout flag*/
          __HAL_UART_CLEAR_FLAG(huart, UART_CLEAR_RTOF);
 8004d1c:	68fb      	ldr	r3, [r7, #12]
 8004d1e:	681b      	ldr	r3, [r3, #0]
 8004d20:	2280      	movs	r2, #128	@ 0x80
 8004d22:	0112      	lsls	r2, r2, #4
 8004d24:	621a      	str	r2, [r3, #32]

          /* Blocking error : transfer is aborted
          Set the UART state ready to be able to start again the process,
          Disable Rx Interrupts if ongoing */
          UART_EndRxTransfer(huart);
 8004d26:	68fb      	ldr	r3, [r7, #12]
 8004d28:	0018      	movs	r0, r3
 8004d2a:	f000 f8d5 	bl	8004ed8 <UART_EndRxTransfer>

          huart->ErrorCode = HAL_UART_ERROR_RTO;
 8004d2e:	68fb      	ldr	r3, [r7, #12]
 8004d30:	2284      	movs	r2, #132	@ 0x84
 8004d32:	2120      	movs	r1, #32
 8004d34:	5099      	str	r1, [r3, r2]

          /* Process Unlocked */
          __HAL_UNLOCK(huart);
 8004d36:	68fb      	ldr	r3, [r7, #12]
 8004d38:	2278      	movs	r2, #120	@ 0x78
 8004d3a:	2100      	movs	r1, #0
 8004d3c:	5499      	strb	r1, [r3, r2]

          return HAL_TIMEOUT;
 8004d3e:	2303      	movs	r3, #3
 8004d40:	e00f      	b.n	8004d62 <UART_WaitOnFlagUntilTimeout+0xd6>
  while ((__HAL_UART_GET_FLAG(huart, Flag) ? SET : RESET) == Status)
 8004d42:	68fb      	ldr	r3, [r7, #12]
 8004d44:	681b      	ldr	r3, [r3, #0]
 8004d46:	69db      	ldr	r3, [r3, #28]
 8004d48:	68ba      	ldr	r2, [r7, #8]
 8004d4a:	4013      	ands	r3, r2
 8004d4c:	68ba      	ldr	r2, [r7, #8]
 8004d4e:	1ad3      	subs	r3, r2, r3
 8004d50:	425a      	negs	r2, r3
 8004d52:	4153      	adcs	r3, r2
 8004d54:	b2db      	uxtb	r3, r3
 8004d56:	001a      	movs	r2, r3
 8004d58:	1dfb      	adds	r3, r7, #7
 8004d5a:	781b      	ldrb	r3, [r3, #0]
 8004d5c:	429a      	cmp	r2, r3
 8004d5e:	d09e      	beq.n	8004c9e <UART_WaitOnFlagUntilTimeout+0x12>
        }
      }
    }
  }
  return HAL_OK;
 8004d60:	2300      	movs	r3, #0
}
 8004d62:	0018      	movs	r0, r3
 8004d64:	46bd      	mov	sp, r7
 8004d66:	b004      	add	sp, #16
 8004d68:	bd80      	pop	{r7, pc}
	...

08004d6c <UART_Start_Receive_IT>:
  * @param  pData Pointer to data buffer (u8 or u16 data elements).
  * @param  Size  Amount of data elements (u8 or u16) to be received.
  * @retval HAL status
  */
HAL_StatusTypeDef UART_Start_Receive_IT(UART_HandleTypeDef *huart, uint8_t *pData, uint16_t Size)
{
 8004d6c:	b580      	push	{r7, lr}
 8004d6e:	b090      	sub	sp, #64	@ 0x40
 8004d70:	af00      	add	r7, sp, #0
 8004d72:	60f8      	str	r0, [r7, #12]
 8004d74:	60b9      	str	r1, [r7, #8]
 8004d76:	1dbb      	adds	r3, r7, #6
 8004d78:	801a      	strh	r2, [r3, #0]
  huart->pRxBuffPtr  = pData;
 8004d7a:	68fb      	ldr	r3, [r7, #12]
 8004d7c:	68ba      	ldr	r2, [r7, #8]
 8004d7e:	655a      	str	r2, [r3, #84]	@ 0x54
  huart->RxXferSize  = Size;
 8004d80:	68fb      	ldr	r3, [r7, #12]
 8004d82:	1dba      	adds	r2, r7, #6
 8004d84:	2158      	movs	r1, #88	@ 0x58
 8004d86:	8812      	ldrh	r2, [r2, #0]
 8004d88:	525a      	strh	r2, [r3, r1]
  huart->RxXferCount = Size;
 8004d8a:	68fb      	ldr	r3, [r7, #12]
 8004d8c:	1dba      	adds	r2, r7, #6
 8004d8e:	215a      	movs	r1, #90	@ 0x5a
 8004d90:	8812      	ldrh	r2, [r2, #0]
 8004d92:	525a      	strh	r2, [r3, r1]
  huart->RxISR       = NULL;
 8004d94:	68fb      	ldr	r3, [r7, #12]
 8004d96:	2200      	movs	r2, #0
 8004d98:	669a      	str	r2, [r3, #104]	@ 0x68

  /* Computation of UART mask to apply to RDR register */
  UART_MASK_COMPUTATION(huart);
 8004d9a:	68fb      	ldr	r3, [r7, #12]
 8004d9c:	689a      	ldr	r2, [r3, #8]
 8004d9e:	2380      	movs	r3, #128	@ 0x80
 8004da0:	015b      	lsls	r3, r3, #5
 8004da2:	429a      	cmp	r2, r3
 8004da4:	d10d      	bne.n	8004dc2 <UART_Start_Receive_IT+0x56>
 8004da6:	68fb      	ldr	r3, [r7, #12]
 8004da8:	691b      	ldr	r3, [r3, #16]
 8004daa:	2b00      	cmp	r3, #0
 8004dac:	d104      	bne.n	8004db8 <UART_Start_Receive_IT+0x4c>
 8004dae:	68fb      	ldr	r3, [r7, #12]
 8004db0:	225c      	movs	r2, #92	@ 0x5c
 8004db2:	4946      	ldr	r1, [pc, #280]	@ (8004ecc <UART_Start_Receive_IT+0x160>)
 8004db4:	5299      	strh	r1, [r3, r2]
 8004db6:	e01a      	b.n	8004dee <UART_Start_Receive_IT+0x82>
 8004db8:	68fb      	ldr	r3, [r7, #12]
 8004dba:	225c      	movs	r2, #92	@ 0x5c
 8004dbc:	21ff      	movs	r1, #255	@ 0xff
 8004dbe:	5299      	strh	r1, [r3, r2]
 8004dc0:	e015      	b.n	8004dee <UART_Start_Receive_IT+0x82>
 8004dc2:	68fb      	ldr	r3, [r7, #12]
 8004dc4:	689b      	ldr	r3, [r3, #8]
 8004dc6:	2b00      	cmp	r3, #0
 8004dc8:	d10d      	bne.n	8004de6 <UART_Start_Receive_IT+0x7a>
 8004dca:	68fb      	ldr	r3, [r7, #12]
 8004dcc:	691b      	ldr	r3, [r3, #16]
 8004dce:	2b00      	cmp	r3, #0
 8004dd0:	d104      	bne.n	8004ddc <UART_Start_Receive_IT+0x70>
 8004dd2:	68fb      	ldr	r3, [r7, #12]
 8004dd4:	225c      	movs	r2, #92	@ 0x5c
 8004dd6:	21ff      	movs	r1, #255	@ 0xff
 8004dd8:	5299      	strh	r1, [r3, r2]
 8004dda:	e008      	b.n	8004dee <UART_Start_Receive_IT+0x82>
 8004ddc:	68fb      	ldr	r3, [r7, #12]
 8004dde:	225c      	movs	r2, #92	@ 0x5c
 8004de0:	217f      	movs	r1, #127	@ 0x7f
 8004de2:	5299      	strh	r1, [r3, r2]
 8004de4:	e003      	b.n	8004dee <UART_Start_Receive_IT+0x82>
 8004de6:	68fb      	ldr	r3, [r7, #12]
 8004de8:	225c      	movs	r2, #92	@ 0x5c
 8004dea:	2100      	movs	r1, #0
 8004dec:	5299      	strh	r1, [r3, r2]

  huart->ErrorCode = HAL_UART_ERROR_NONE;
 8004dee:	68fb      	ldr	r3, [r7, #12]
 8004df0:	2284      	movs	r2, #132	@ 0x84
 8004df2:	2100      	movs	r1, #0
 8004df4:	5099      	str	r1, [r3, r2]
  huart->RxState = HAL_UART_STATE_BUSY_RX;
 8004df6:	68fb      	ldr	r3, [r7, #12]
 8004df8:	2280      	movs	r2, #128	@ 0x80
 8004dfa:	2122      	movs	r1, #34	@ 0x22
 8004dfc:	5099      	str	r1, [r3, r2]
  __ASM volatile ("MRS %0, primask" : "=r" (result) :: "memory");
 8004dfe:	f3ef 8310 	mrs	r3, PRIMASK
 8004e02:	62bb      	str	r3, [r7, #40]	@ 0x28
  return(result);
 8004e04:	6abb      	ldr	r3, [r7, #40]	@ 0x28

  /* Enable the UART Error Interrupt: (Frame error, noise error, overrun error) */
  ATOMIC_SET_BIT(huart->Instance->CR3, USART_CR3_EIE);
 8004e06:	63fb      	str	r3, [r7, #60]	@ 0x3c
 8004e08:	2301      	movs	r3, #1
 8004e0a:	62fb      	str	r3, [r7, #44]	@ 0x2c
  __ASM volatile ("MSR primask, %0" : : "r" (priMask) : "memory");
 8004e0c:	6afb      	ldr	r3, [r7, #44]	@ 0x2c
 8004e0e:	f383 8810 	msr	PRIMASK, r3
}
 8004e12:	46c0      	nop			@ (mov r8, r8)
 8004e14:	68fb      	ldr	r3, [r7, #12]
 8004e16:	681b      	ldr	r3, [r3, #0]
 8004e18:	689a      	ldr	r2, [r3, #8]
 8004e1a:	68fb      	ldr	r3, [r7, #12]
 8004e1c:	681b      	ldr	r3, [r3, #0]
 8004e1e:	2101      	movs	r1, #1
 8004e20:	430a      	orrs	r2, r1
 8004e22:	609a      	str	r2, [r3, #8]
 8004e24:	6bfb      	ldr	r3, [r7, #60]	@ 0x3c
 8004e26:	633b      	str	r3, [r7, #48]	@ 0x30
  __ASM volatile ("MSR primask, %0" : : "r" (priMask) : "memory");
 8004e28:	6b3b      	ldr	r3, [r7, #48]	@ 0x30
 8004e2a:	f383 8810 	msr	PRIMASK, r3
}
 8004e2e:	46c0      	nop			@ (mov r8, r8)

  /* Set the Rx ISR function pointer according to the data word length */
  if ((huart->Init.WordLength == UART_WORDLENGTH_9B) && (huart->Init.Parity == UART_PARITY_NONE))
 8004e30:	68fb      	ldr	r3, [r7, #12]
 8004e32:	689a      	ldr	r2, [r3, #8]
 8004e34:	2380      	movs	r3, #128	@ 0x80
 8004e36:	015b      	lsls	r3, r3, #5
 8004e38:	429a      	cmp	r2, r3
 8004e3a:	d107      	bne.n	8004e4c <UART_Start_Receive_IT+0xe0>
 8004e3c:	68fb      	ldr	r3, [r7, #12]
 8004e3e:	691b      	ldr	r3, [r3, #16]
 8004e40:	2b00      	cmp	r3, #0
 8004e42:	d103      	bne.n	8004e4c <UART_Start_Receive_IT+0xe0>
  {
    huart->RxISR = UART_RxISR_16BIT;
 8004e44:	68fb      	ldr	r3, [r7, #12]
 8004e46:	4a22      	ldr	r2, [pc, #136]	@ (8004ed0 <UART_Start_Receive_IT+0x164>)
 8004e48:	669a      	str	r2, [r3, #104]	@ 0x68
 8004e4a:	e002      	b.n	8004e52 <UART_Start_Receive_IT+0xe6>
  }
  else
  {
    huart->RxISR = UART_RxISR_8BIT;
 8004e4c:	68fb      	ldr	r3, [r7, #12]
 8004e4e:	4a21      	ldr	r2, [pc, #132]	@ (8004ed4 <UART_Start_Receive_IT+0x168>)
 8004e50:	669a      	str	r2, [r3, #104]	@ 0x68
  }

  /* Enable the UART Parity Error interrupt and Data Register Not Empty interrupt */
  if (huart->Init.Parity != UART_PARITY_NONE)
 8004e52:	68fb      	ldr	r3, [r7, #12]
 8004e54:	691b      	ldr	r3, [r3, #16]
 8004e56:	2b00      	cmp	r3, #0
 8004e58:	d019      	beq.n	8004e8e <UART_Start_Receive_IT+0x122>
  __ASM volatile ("MRS %0, primask" : "=r" (result) :: "memory");
 8004e5a:	f3ef 8310 	mrs	r3, PRIMASK
 8004e5e:	61fb      	str	r3, [r7, #28]
  return(result);
 8004e60:	69fb      	ldr	r3, [r7, #28]
  {
    ATOMIC_SET_BIT(huart->Instance->CR1, USART_CR1_PEIE | USART_CR1_RXNEIE);
 8004e62:	637b      	str	r3, [r7, #52]	@ 0x34
 8004e64:	2301      	movs	r3, #1
 8004e66:	623b      	str	r3, [r7, #32]
  __ASM volatile ("MSR primask, %0" : : "r" (priMask) : "memory");
 8004e68:	6a3b      	ldr	r3, [r7, #32]
 8004e6a:	f383 8810 	msr	PRIMASK, r3
}
 8004e6e:	46c0      	nop			@ (mov r8, r8)
 8004e70:	68fb      	ldr	r3, [r7, #12]
 8004e72:	681b      	ldr	r3, [r3, #0]
 8004e74:	681a      	ldr	r2, [r3, #0]
 8004e76:	68fb      	ldr	r3, [r7, #12]
 8004e78:	681b      	ldr	r3, [r3, #0]
 8004e7a:	2190      	movs	r1, #144	@ 0x90
 8004e7c:	0049      	lsls	r1, r1, #1
 8004e7e:	430a      	orrs	r2, r1
 8004e80:	601a      	str	r2, [r3, #0]
 8004e82:	6b7b      	ldr	r3, [r7, #52]	@ 0x34
 8004e84:	627b      	str	r3, [r7, #36]	@ 0x24
  __ASM volatile ("MSR primask, %0" : : "r" (priMask) : "memory");
 8004e86:	6a7b      	ldr	r3, [r7, #36]	@ 0x24
 8004e88:	f383 8810 	msr	PRIMASK, r3
}
 8004e8c:	e018      	b.n	8004ec0 <UART_Start_Receive_IT+0x154>
  __ASM volatile ("MRS %0, primask" : "=r" (result) :: "memory");
 8004e8e:	f3ef 8310 	mrs	r3, PRIMASK
 8004e92:	613b      	str	r3, [r7, #16]
  return(result);
 8004e94:	693b      	ldr	r3, [r7, #16]
  }
  else
  {
    ATOMIC_SET_BIT(huart->Instance->CR1, USART_CR1_RXNEIE);
 8004e96:	63bb      	str	r3, [r7, #56]	@ 0x38
 8004e98:	2301      	movs	r3, #1
 8004e9a:	617b      	str	r3, [r7, #20]
  __ASM volatile ("MSR primask, %0" : : "r" (priMask) : "memory");
 8004e9c:	697b      	ldr	r3, [r7, #20]
 8004e9e:	f383 8810 	msr	PRIMASK, r3
}
 8004ea2:	46c0      	nop			@ (mov r8, r8)
 8004ea4:	68fb      	ldr	r3, [r7, #12]
 8004ea6:	681b      	ldr	r3, [r3, #0]
 8004ea8:	681a      	ldr	r2, [r3, #0]
 8004eaa:	68fb      	ldr	r3, [r7, #12]
 8004eac:	681b      	ldr	r3, [r3, #0]
 8004eae:	2120      	movs	r1, #32
 8004eb0:	430a      	orrs	r2, r1
 8004eb2:	601a      	str	r2, [r3, #0]
 8004eb4:	6bbb      	ldr	r3, [r7, #56]	@ 0x38
 8004eb6:	61bb      	str	r3, [r7, #24]
  __ASM volatile ("MSR primask, %0" : : "r" (priMask) : "memory");
 8004eb8:	69bb      	ldr	r3, [r7, #24]
 8004eba:	f383 8810 	msr	PRIMASK, r3
}
 8004ebe:	46c0      	nop			@ (mov r8, r8)
  }
  return HAL_OK;
 8004ec0:	2300      	movs	r3, #0
}
 8004ec2:	0018      	movs	r0, r3
 8004ec4:	46bd      	mov	sp, r7
 8004ec6:	b010      	add	sp, #64	@ 0x40
 8004ec8:	bd80      	pop	{r7, pc}
 8004eca:	46c0      	nop			@ (mov r8, r8)
 8004ecc:	000001ff 	.word	0x000001ff
 8004ed0:	080051dd 	.word	0x080051dd
 8004ed4:	08005025 	.word	0x08005025

08004ed8 <UART_EndRxTransfer>:
  * @brief  End ongoing Rx transfer on UART peripheral (following error detection or Reception completion).
  * @param  huart UART handle.
  * @retval None
  */
static void UART_EndRxTransfer(UART_HandleTypeDef *huart)
{
 8004ed8:	b580      	push	{r7, lr}
 8004eda:	b08e      	sub	sp, #56	@ 0x38
 8004edc:	af00      	add	r7, sp, #0
 8004ede:	6078      	str	r0, [r7, #4]
  __ASM volatile ("MRS %0, primask" : "=r" (result) :: "memory");
 8004ee0:	f3ef 8310 	mrs	r3, PRIMASK
 8004ee4:	617b      	str	r3, [r7, #20]
  return(result);
 8004ee6:	697b      	ldr	r3, [r7, #20]
  /* Disable RXNE, PE and ERR (Frame error, noise error, overrun error) interrupts */
  ATOMIC_CLEAR_BIT(huart->Instance->CR1, (USART_CR1_RXNEIE | USART_CR1_PEIE));
 8004ee8:	637b      	str	r3, [r7, #52]	@ 0x34
 8004eea:	2301      	movs	r3, #1
 8004eec:	61bb      	str	r3, [r7, #24]
  __ASM volatile ("MSR primask, %0" : : "r" (priMask) : "memory");
 8004eee:	69bb      	ldr	r3, [r7, #24]
 8004ef0:	f383 8810 	msr	PRIMASK, r3
}
 8004ef4:	46c0      	nop			@ (mov r8, r8)
 8004ef6:	687b      	ldr	r3, [r7, #4]
 8004ef8:	681b      	ldr	r3, [r3, #0]
 8004efa:	681a      	ldr	r2, [r3, #0]
 8004efc:	687b      	ldr	r3, [r7, #4]
 8004efe:	681b      	ldr	r3, [r3, #0]
 8004f00:	4926      	ldr	r1, [pc, #152]	@ (8004f9c <UART_EndRxTransfer+0xc4>)
 8004f02:	400a      	ands	r2, r1
 8004f04:	601a      	str	r2, [r3, #0]
 8004f06:	6b7b      	ldr	r3, [r7, #52]	@ 0x34
 8004f08:	61fb      	str	r3, [r7, #28]
  __ASM volatile ("MSR primask, %0" : : "r" (priMask) : "memory");
 8004f0a:	69fb      	ldr	r3, [r7, #28]
 8004f0c:	f383 8810 	msr	PRIMASK, r3
}
 8004f10:	46c0      	nop			@ (mov r8, r8)
  __ASM volatile ("MRS %0, primask" : "=r" (result) :: "memory");
 8004f12:	f3ef 8310 	mrs	r3, PRIMASK
 8004f16:	623b      	str	r3, [r7, #32]
  return(result);
 8004f18:	6a3b      	ldr	r3, [r7, #32]
  ATOMIC_CLEAR_BIT(huart->Instance->CR3, USART_CR3_EIE);
 8004f1a:	633b      	str	r3, [r7, #48]	@ 0x30
 8004f1c:	2301      	movs	r3, #1
 8004f1e:	627b      	str	r3, [r7, #36]	@ 0x24
  __ASM volatile ("MSR primask, %0" : : "r" (priMask) : "memory");
 8004f20:	6a7b      	ldr	r3, [r7, #36]	@ 0x24
 8004f22:	f383 8810 	msr	PRIMASK, r3
}
 8004f26:	46c0      	nop			@ (mov r8, r8)
 8004f28:	687b      	ldr	r3, [r7, #4]
 8004f2a:	681b      	ldr	r3, [r3, #0]
 8004f2c:	689a      	ldr	r2, [r3, #8]
 8004f2e:	687b      	ldr	r3, [r7, #4]
 8004f30:	681b      	ldr	r3, [r3, #0]
 8004f32:	2101      	movs	r1, #1
 8004f34:	438a      	bics	r2, r1
 8004f36:	609a      	str	r2, [r3, #8]
 8004f38:	6b3b      	ldr	r3, [r7, #48]	@ 0x30
 8004f3a:	62bb      	str	r3, [r7, #40]	@ 0x28
  __ASM volatile ("MSR primask, %0" : : "r" (priMask) : "memory");
 8004f3c:	6abb      	ldr	r3, [r7, #40]	@ 0x28
 8004f3e:	f383 8810 	msr	PRIMASK, r3
}
 8004f42:	46c0      	nop			@ (mov r8, r8)

  /* In case of reception waiting for IDLE event, disable also the IDLE IE interrupt source */
  if (huart->ReceptionType == HAL_UART_RECEPTION_TOIDLE)
 8004f44:	687b      	ldr	r3, [r7, #4]
 8004f46:	6e1b      	ldr	r3, [r3, #96]	@ 0x60
 8004f48:	2b01      	cmp	r3, #1
 8004f4a:	d118      	bne.n	8004f7e <UART_EndRxTransfer+0xa6>
  __ASM volatile ("MRS %0, primask" : "=r" (result) :: "memory");
 8004f4c:	f3ef 8310 	mrs	r3, PRIMASK
 8004f50:	60bb      	str	r3, [r7, #8]
  return(result);
 8004f52:	68bb      	ldr	r3, [r7, #8]
  {
    ATOMIC_CLEAR_BIT(huart->Instance->CR1, USART_CR1_IDLEIE);
 8004f54:	62fb      	str	r3, [r7, #44]	@ 0x2c
 8004f56:	2301      	movs	r3, #1
 8004f58:	60fb      	str	r3, [r7, #12]
  __ASM volatile ("MSR primask, %0" : : "r" (priMask) : "memory");
 8004f5a:	68fb      	ldr	r3, [r7, #12]
 8004f5c:	f383 8810 	msr	PRIMASK, r3
}
 8004f60:	46c0      	nop			@ (mov r8, r8)
 8004f62:	687b      	ldr	r3, [r7, #4]
 8004f64:	681b      	ldr	r3, [r3, #0]
 8004f66:	681a      	ldr	r2, [r3, #0]
 8004f68:	687b      	ldr	r3, [r7, #4]
 8004f6a:	681b      	ldr	r3, [r3, #0]
 8004f6c:	2110      	movs	r1, #16
 8004f6e:	438a      	bics	r2, r1
 8004f70:	601a      	str	r2, [r3, #0]
 8004f72:	6afb      	ldr	r3, [r7, #44]	@ 0x2c
 8004f74:	613b      	str	r3, [r7, #16]
  __ASM volatile ("MSR primask, %0" : : "r" (priMask) : "memory");
 8004f76:	693b      	ldr	r3, [r7, #16]
 8004f78:	f383 8810 	msr	PRIMASK, r3
}
 8004f7c:	46c0      	nop			@ (mov r8, r8)
  }

  /* At end of Rx process, restore huart->RxState to Ready */
  huart->RxState = HAL_UART_STATE_READY;
 8004f7e:	687b      	ldr	r3, [r7, #4]
 8004f80:	2280      	movs	r2, #128	@ 0x80
 8004f82:	2120      	movs	r1, #32
 8004f84:	5099      	str	r1, [r3, r2]
  huart->ReceptionType = HAL_UART_RECEPTION_STANDARD;
 8004f86:	687b      	ldr	r3, [r7, #4]
 8004f88:	2200      	movs	r2, #0
 8004f8a:	661a      	str	r2, [r3, #96]	@ 0x60

  /* Reset RxIsr function pointer */
  huart->RxISR = NULL;
 8004f8c:	687b      	ldr	r3, [r7, #4]
 8004f8e:	2200      	movs	r2, #0
 8004f90:	669a      	str	r2, [r3, #104]	@ 0x68
}
 8004f92:	46c0      	nop			@ (mov r8, r8)
 8004f94:	46bd      	mov	sp, r7
 8004f96:	b00e      	add	sp, #56	@ 0x38
 8004f98:	bd80      	pop	{r7, pc}
 8004f9a:	46c0      	nop			@ (mov r8, r8)
 8004f9c:	fffffedf 	.word	0xfffffedf

08004fa0 <UART_DMAAbortOnError>:
  *         (To be called at end of DMA Abort procedure following error occurrence).
  * @param  hdma DMA handle.
  * @retval None
  */
static void UART_DMAAbortOnError(DMA_HandleTypeDef *hdma)
{
 8004fa0:	b580      	push	{r7, lr}
 8004fa2:	b084      	sub	sp, #16
 8004fa4:	af00      	add	r7, sp, #0
 8004fa6:	6078      	str	r0, [r7, #4]
  UART_HandleTypeDef *huart = (UART_HandleTypeDef *)(hdma->Parent);
 8004fa8:	687b      	ldr	r3, [r7, #4]
 8004faa:	6a5b      	ldr	r3, [r3, #36]	@ 0x24
 8004fac:	60fb      	str	r3, [r7, #12]
  huart->RxXferCount = 0U;
 8004fae:	68fb      	ldr	r3, [r7, #12]
 8004fb0:	225a      	movs	r2, #90	@ 0x5a
 8004fb2:	2100      	movs	r1, #0
 8004fb4:	5299      	strh	r1, [r3, r2]
  huart->TxXferCount = 0U;
 8004fb6:	68fb      	ldr	r3, [r7, #12]
 8004fb8:	2252      	movs	r2, #82	@ 0x52
 8004fba:	2100      	movs	r1, #0
 8004fbc:	5299      	strh	r1, [r3, r2]
#if (USE_HAL_UART_REGISTER_CALLBACKS == 1)
  /*Call registered error callback*/
  huart->ErrorCallback(huart);
#else
  /*Call legacy weak error callback*/
  HAL_UART_ErrorCallback(huart);
 8004fbe:	68fb      	ldr	r3, [r7, #12]
 8004fc0:	0018      	movs	r0, r3
 8004fc2:	f7ff fbb3 	bl	800472c <HAL_UART_ErrorCallback>
#endif /* USE_HAL_UART_REGISTER_CALLBACKS */
}
 8004fc6:	46c0      	nop			@ (mov r8, r8)
 8004fc8:	46bd      	mov	sp, r7
 8004fca:	b004      	add	sp, #16
 8004fcc:	bd80      	pop	{r7, pc}

08004fce <UART_EndTransmit_IT>:
  * @param  huart pointer to a UART_HandleTypeDef structure that contains
  *                the configuration information for the specified UART module.
  * @retval None
  */
static void UART_EndTransmit_IT(UART_HandleTypeDef *huart)
{
 8004fce:	b580      	push	{r7, lr}
 8004fd0:	b086      	sub	sp, #24
 8004fd2:	af00      	add	r7, sp, #0
 8004fd4:	6078      	str	r0, [r7, #4]
  __ASM volatile ("MRS %0, primask" : "=r" (result) :: "memory");
 8004fd6:	f3ef 8310 	mrs	r3, PRIMASK
 8004fda:	60bb      	str	r3, [r7, #8]
  return(result);
 8004fdc:	68bb      	ldr	r3, [r7, #8]
  /* Disable the UART Transmit Complete Interrupt */
  ATOMIC_CLEAR_BIT(huart->Instance->CR1, USART_CR1_TCIE);
 8004fde:	617b      	str	r3, [r7, #20]
 8004fe0:	2301      	movs	r3, #1
 8004fe2:	60fb      	str	r3, [r7, #12]
  __ASM volatile ("MSR primask, %0" : : "r" (priMask) : "memory");
 8004fe4:	68fb      	ldr	r3, [r7, #12]
 8004fe6:	f383 8810 	msr	PRIMASK, r3
}
 8004fea:	46c0      	nop			@ (mov r8, r8)
 8004fec:	687b      	ldr	r3, [r7, #4]
 8004fee:	681b      	ldr	r3, [r3, #0]
 8004ff0:	681a      	ldr	r2, [r3, #0]
 8004ff2:	687b      	ldr	r3, [r7, #4]
 8004ff4:	681b      	ldr	r3, [r3, #0]
 8004ff6:	2140      	movs	r1, #64	@ 0x40
 8004ff8:	438a      	bics	r2, r1
 8004ffa:	601a      	str	r2, [r3, #0]
 8004ffc:	697b      	ldr	r3, [r7, #20]
 8004ffe:	613b      	str	r3, [r7, #16]
  __ASM volatile ("MSR primask, %0" : : "r" (priMask) : "memory");
 8005000:	693b      	ldr	r3, [r7, #16]
 8005002:	f383 8810 	msr	PRIMASK, r3
}
 8005006:	46c0      	nop			@ (mov r8, r8)

  /* Tx process is ended, restore huart->gState to Ready */
  huart->gState = HAL_UART_STATE_READY;
 8005008:	687b      	ldr	r3, [r7, #4]
 800500a:	2220      	movs	r2, #32
 800500c:	67da      	str	r2, [r3, #124]	@ 0x7c

  /* Cleat TxISR function pointer */
  huart->TxISR = NULL;
 800500e:	687b      	ldr	r3, [r7, #4]
 8005010:	2200      	movs	r2, #0
 8005012:	66da      	str	r2, [r3, #108]	@ 0x6c
#if (USE_HAL_UART_REGISTER_CALLBACKS == 1)
  /*Call registered Tx complete callback*/
  huart->TxCpltCallback(huart);
#else
  /*Call legacy weak Tx complete callback*/
  HAL_UART_TxCpltCallback(huart);
 8005014:	687b      	ldr	r3, [r7, #4]
 8005016:	0018      	movs	r0, r3
 8005018:	f7ff fb80 	bl	800471c <HAL_UART_TxCpltCallback>
#endif /* USE_HAL_UART_REGISTER_CALLBACKS */
}
 800501c:	46c0      	nop			@ (mov r8, r8)
 800501e:	46bd      	mov	sp, r7
 8005020:	b006      	add	sp, #24
 8005022:	bd80      	pop	{r7, pc}

08005024 <UART_RxISR_8BIT>:
  * @brief RX interrupt handler for 7 or 8 bits data word length .
  * @param huart UART handle.
  * @retval None
  */
static void UART_RxISR_8BIT(UART_HandleTypeDef *huart)
{
 8005024:	b580      	push	{r7, lr}
 8005026:	b094      	sub	sp, #80	@ 0x50
 8005028:	af00      	add	r7, sp, #0
 800502a:	6078      	str	r0, [r7, #4]
  uint16_t uhMask = huart->Mask;
 800502c:	204e      	movs	r0, #78	@ 0x4e
 800502e:	183b      	adds	r3, r7, r0
 8005030:	687a      	ldr	r2, [r7, #4]
 8005032:	215c      	movs	r1, #92	@ 0x5c
 8005034:	5a52      	ldrh	r2, [r2, r1]
 8005036:	801a      	strh	r2, [r3, #0]
  uint16_t  uhdata;

  /* Check that a Rx process is ongoing */
  if (huart->RxState == HAL_UART_STATE_BUSY_RX)
 8005038:	687b      	ldr	r3, [r7, #4]
 800503a:	2280      	movs	r2, #128	@ 0x80
 800503c:	589b      	ldr	r3, [r3, r2]
 800503e:	2b22      	cmp	r3, #34	@ 0x22
 8005040:	d000      	beq.n	8005044 <UART_RxISR_8BIT+0x20>
 8005042:	e0ba      	b.n	80051ba <UART_RxISR_8BIT+0x196>
  {
    uhdata = (uint16_t) READ_REG(huart->Instance->RDR);
 8005044:	687b      	ldr	r3, [r7, #4]
 8005046:	681a      	ldr	r2, [r3, #0]
 8005048:	214c      	movs	r1, #76	@ 0x4c
 800504a:	187b      	adds	r3, r7, r1
 800504c:	8c92      	ldrh	r2, [r2, #36]	@ 0x24
 800504e:	801a      	strh	r2, [r3, #0]
    *huart->pRxBuffPtr = (uint8_t)(uhdata & (uint8_t)uhMask);
 8005050:	187b      	adds	r3, r7, r1
 8005052:	881b      	ldrh	r3, [r3, #0]
 8005054:	b2da      	uxtb	r2, r3
 8005056:	183b      	adds	r3, r7, r0
 8005058:	881b      	ldrh	r3, [r3, #0]
 800505a:	b2d9      	uxtb	r1, r3
 800505c:	687b      	ldr	r3, [r7, #4]
 800505e:	6d5b      	ldr	r3, [r3, #84]	@ 0x54
 8005060:	400a      	ands	r2, r1
 8005062:	b2d2      	uxtb	r2, r2
 8005064:	701a      	strb	r2, [r3, #0]
    huart->pRxBuffPtr++;
 8005066:	687b      	ldr	r3, [r7, #4]
 8005068:	6d5b      	ldr	r3, [r3, #84]	@ 0x54
 800506a:	1c5a      	adds	r2, r3, #1
 800506c:	687b      	ldr	r3, [r7, #4]
 800506e:	655a      	str	r2, [r3, #84]	@ 0x54
    huart->RxXferCount--;
 8005070:	687b      	ldr	r3, [r7, #4]
 8005072:	225a      	movs	r2, #90	@ 0x5a
 8005074:	5a9b      	ldrh	r3, [r3, r2]
 8005076:	b29b      	uxth	r3, r3
 8005078:	3b01      	subs	r3, #1
 800507a:	b299      	uxth	r1, r3
 800507c:	687b      	ldr	r3, [r7, #4]
 800507e:	225a      	movs	r2, #90	@ 0x5a
 8005080:	5299      	strh	r1, [r3, r2]

    if (huart->RxXferCount == 0U)
 8005082:	687b      	ldr	r3, [r7, #4]
 8005084:	225a      	movs	r2, #90	@ 0x5a
 8005086:	5a9b      	ldrh	r3, [r3, r2]
 8005088:	b29b      	uxth	r3, r3
 800508a:	2b00      	cmp	r3, #0
 800508c:	d000      	beq.n	8005090 <UART_RxISR_8BIT+0x6c>
 800508e:	e09c      	b.n	80051ca <UART_RxISR_8BIT+0x1a6>
  __ASM volatile ("MRS %0, primask" : "=r" (result) :: "memory");
 8005090:	f3ef 8310 	mrs	r3, PRIMASK
 8005094:	627b      	str	r3, [r7, #36]	@ 0x24
  return(result);
 8005096:	6a7b      	ldr	r3, [r7, #36]	@ 0x24
    {
      /* Disable the UART Parity Error Interrupt and RXNE interrupts */
      ATOMIC_CLEAR_BIT(huart->Instance->CR1, (USART_CR1_RXNEIE | USART_CR1_PEIE));
 8005098:	64bb      	str	r3, [r7, #72]	@ 0x48
 800509a:	2301      	movs	r3, #1
 800509c:	62bb      	str	r3, [r7, #40]	@ 0x28
  __ASM volatile ("MSR primask, %0" : : "r" (priMask) : "memory");
 800509e:	6abb      	ldr	r3, [r7, #40]	@ 0x28
 80050a0:	f383 8810 	msr	PRIMASK, r3
}
 80050a4:	46c0      	nop			@ (mov r8, r8)
 80050a6:	687b      	ldr	r3, [r7, #4]
 80050a8:	681b      	ldr	r3, [r3, #0]
 80050aa:	681a      	ldr	r2, [r3, #0]
 80050ac:	687b      	ldr	r3, [r7, #4]
 80050ae:	681b      	ldr	r3, [r3, #0]
 80050b0:	4948      	ldr	r1, [pc, #288]	@ (80051d4 <UART_RxISR_8BIT+0x1b0>)
 80050b2:	400a      	ands	r2, r1
 80050b4:	601a      	str	r2, [r3, #0]
 80050b6:	6cbb      	ldr	r3, [r7, #72]	@ 0x48
 80050b8:	62fb      	str	r3, [r7, #44]	@ 0x2c
  __ASM volatile ("MSR primask, %0" : : "r" (priMask) : "memory");
 80050ba:	6afb      	ldr	r3, [r7, #44]	@ 0x2c
 80050bc:	f383 8810 	msr	PRIMASK, r3
}
 80050c0:	46c0      	nop			@ (mov r8, r8)
  __ASM volatile ("MRS %0, primask" : "=r" (result) :: "memory");
 80050c2:	f3ef 8310 	mrs	r3, PRIMASK
 80050c6:	633b      	str	r3, [r7, #48]	@ 0x30
  return(result);
 80050c8:	6b3b      	ldr	r3, [r7, #48]	@ 0x30

      /* Disable the UART Error Interrupt: (Frame error, noise error, overrun error) */
      ATOMIC_CLEAR_BIT(huart->Instance->CR3, USART_CR3_EIE);
 80050ca:	647b      	str	r3, [r7, #68]	@ 0x44
 80050cc:	2301      	movs	r3, #1
 80050ce:	637b      	str	r3, [r7, #52]	@ 0x34
  __ASM volatile ("MSR primask, %0" : : "r" (priMask) : "memory");
 80050d0:	6b7b      	ldr	r3, [r7, #52]	@ 0x34
 80050d2:	f383 8810 	msr	PRIMASK, r3
}
 80050d6:	46c0      	nop			@ (mov r8, r8)
 80050d8:	687b      	ldr	r3, [r7, #4]
 80050da:	681b      	ldr	r3, [r3, #0]
 80050dc:	689a      	ldr	r2, [r3, #8]
 80050de:	687b      	ldr	r3, [r7, #4]
 80050e0:	681b      	ldr	r3, [r3, #0]
 80050e2:	2101      	movs	r1, #1
 80050e4:	438a      	bics	r2, r1
 80050e6:	609a      	str	r2, [r3, #8]
 80050e8:	6c7b      	ldr	r3, [r7, #68]	@ 0x44
 80050ea:	63bb      	str	r3, [r7, #56]	@ 0x38
  __ASM volatile ("MSR primask, %0" : : "r" (priMask) : "memory");
 80050ec:	6bbb      	ldr	r3, [r7, #56]	@ 0x38
 80050ee:	f383 8810 	msr	PRIMASK, r3
}
 80050f2:	46c0      	nop			@ (mov r8, r8)

      /* Rx process is completed, restore huart->RxState to Ready */
      huart->RxState = HAL_UART_STATE_READY;
 80050f4:	687b      	ldr	r3, [r7, #4]
 80050f6:	2280      	movs	r2, #128	@ 0x80
 80050f8:	2120      	movs	r1, #32
 80050fa:	5099      	str	r1, [r3, r2]

      /* Clear RxISR function pointer */
      huart->RxISR = NULL;
 80050fc:	687b      	ldr	r3, [r7, #4]
 80050fe:	2200      	movs	r2, #0
 8005100:	669a      	str	r2, [r3, #104]	@ 0x68

      /* Initialize type of RxEvent to Transfer Complete */
      huart->RxEventType = HAL_UART_RXEVENT_TC;
 8005102:	687b      	ldr	r3, [r7, #4]
 8005104:	2200      	movs	r2, #0
 8005106:	665a      	str	r2, [r3, #100]	@ 0x64

      /* Check that USART RTOEN bit is set */
      if (READ_BIT(huart->Instance->CR2, USART_CR2_RTOEN) != 0U)
 8005108:	687b      	ldr	r3, [r7, #4]
 800510a:	681b      	ldr	r3, [r3, #0]
 800510c:	685a      	ldr	r2, [r3, #4]
 800510e:	2380      	movs	r3, #128	@ 0x80
 8005110:	041b      	lsls	r3, r3, #16
 8005112:	4013      	ands	r3, r2
 8005114:	d018      	beq.n	8005148 <UART_RxISR_8BIT+0x124>
  __ASM volatile ("MRS %0, primask" : "=r" (result) :: "memory");
 8005116:	f3ef 8310 	mrs	r3, PRIMASK
 800511a:	61bb      	str	r3, [r7, #24]
  return(result);
 800511c:	69bb      	ldr	r3, [r7, #24]
      {
        /* Enable the UART Receiver Timeout Interrupt */
        ATOMIC_CLEAR_BIT(huart->Instance->CR1, USART_CR1_RTOIE);
 800511e:	643b      	str	r3, [r7, #64]	@ 0x40
 8005120:	2301      	movs	r3, #1
 8005122:	61fb      	str	r3, [r7, #28]
  __ASM volatile ("MSR primask, %0" : : "r" (priMask) : "memory");
 8005124:	69fb      	ldr	r3, [r7, #28]
 8005126:	f383 8810 	msr	PRIMASK, r3
}
 800512a:	46c0      	nop			@ (mov r8, r8)
 800512c:	687b      	ldr	r3, [r7, #4]
 800512e:	681b      	ldr	r3, [r3, #0]
 8005130:	681a      	ldr	r2, [r3, #0]
 8005132:	687b      	ldr	r3, [r7, #4]
 8005134:	681b      	ldr	r3, [r3, #0]
 8005136:	4928      	ldr	r1, [pc, #160]	@ (80051d8 <UART_RxISR_8BIT+0x1b4>)
 8005138:	400a      	ands	r2, r1
 800513a:	601a      	str	r2, [r3, #0]
 800513c:	6c3b      	ldr	r3, [r7, #64]	@ 0x40
 800513e:	623b      	str	r3, [r7, #32]
  __ASM volatile ("MSR primask, %0" : : "r" (priMask) : "memory");
 8005140:	6a3b      	ldr	r3, [r7, #32]
 8005142:	f383 8810 	msr	PRIMASK, r3
}
 8005146:	46c0      	nop			@ (mov r8, r8)
      }

      /* Check current reception Mode :
         If Reception till IDLE event has been selected : */
      if (huart->ReceptionType == HAL_UART_RECEPTION_TOIDLE)
 8005148:	687b      	ldr	r3, [r7, #4]
 800514a:	6e1b      	ldr	r3, [r3, #96]	@ 0x60
 800514c:	2b01      	cmp	r3, #1
 800514e:	d12f      	bne.n	80051b0 <UART_RxISR_8BIT+0x18c>
      {
        /* Set reception type to Standard */
        huart->ReceptionType = HAL_UART_RECEPTION_STANDARD;
 8005150:	687b      	ldr	r3, [r7, #4]
 8005152:	2200      	movs	r2, #0
 8005154:	661a      	str	r2, [r3, #96]	@ 0x60
  __ASM volatile ("MRS %0, primask" : "=r" (result) :: "memory");
 8005156:	f3ef 8310 	mrs	r3, PRIMASK
 800515a:	60fb      	str	r3, [r7, #12]
  return(result);
 800515c:	68fb      	ldr	r3, [r7, #12]

        /* Disable IDLE interrupt */
        ATOMIC_CLEAR_BIT(huart->Instance->CR1, USART_CR1_IDLEIE);
 800515e:	63fb      	str	r3, [r7, #60]	@ 0x3c
 8005160:	2301      	movs	r3, #1
 8005162:	613b      	str	r3, [r7, #16]
  __ASM volatile ("MSR primask, %0" : : "r" (priMask) : "memory");
 8005164:	693b      	ldr	r3, [r7, #16]
 8005166:	f383 8810 	msr	PRIMASK, r3
}
 800516a:	46c0      	nop			@ (mov r8, r8)
 800516c:	687b      	ldr	r3, [r7, #4]
 800516e:	681b      	ldr	r3, [r3, #0]
 8005170:	681a      	ldr	r2, [r3, #0]
 8005172:	687b      	ldr	r3, [r7, #4]
 8005174:	681b      	ldr	r3, [r3, #0]
 8005176:	2110      	movs	r1, #16
 8005178:	438a      	bics	r2, r1
 800517a:	601a      	str	r2, [r3, #0]
 800517c:	6bfb      	ldr	r3, [r7, #60]	@ 0x3c
 800517e:	617b      	str	r3, [r7, #20]
  __ASM volatile ("MSR primask, %0" : : "r" (priMask) : "memory");
 8005180:	697b      	ldr	r3, [r7, #20]
 8005182:	f383 8810 	msr	PRIMASK, r3
}
 8005186:	46c0      	nop			@ (mov r8, r8)

        if (__HAL_UART_GET_FLAG(huart, UART_FLAG_IDLE) == SET)
 8005188:	687b      	ldr	r3, [r7, #4]
 800518a:	681b      	ldr	r3, [r3, #0]
 800518c:	69db      	ldr	r3, [r3, #28]
 800518e:	2210      	movs	r2, #16
 8005190:	4013      	ands	r3, r2
 8005192:	2b10      	cmp	r3, #16
 8005194:	d103      	bne.n	800519e <UART_RxISR_8BIT+0x17a>
        {
          /* Clear IDLE Flag */
          __HAL_UART_CLEAR_FLAG(huart, UART_CLEAR_IDLEF);
 8005196:	687b      	ldr	r3, [r7, #4]
 8005198:	681b      	ldr	r3, [r3, #0]
 800519a:	2210      	movs	r2, #16
 800519c:	621a      	str	r2, [r3, #32]
#if (USE_HAL_UART_REGISTER_CALLBACKS == 1)
        /*Call registered Rx Event callback*/
        huart->RxEventCallback(huart, huart->RxXferSize);
#else
        /*Call legacy weak Rx Event callback*/
        HAL_UARTEx_RxEventCallback(huart, huart->RxXferSize);
 800519e:	687b      	ldr	r3, [r7, #4]
 80051a0:	2258      	movs	r2, #88	@ 0x58
 80051a2:	5a9a      	ldrh	r2, [r3, r2]
 80051a4:	687b      	ldr	r3, [r7, #4]
 80051a6:	0011      	movs	r1, r2
 80051a8:	0018      	movs	r0, r3
 80051aa:	f7ff fac7 	bl	800473c <HAL_UARTEx_RxEventCallback>
  else
  {
    /* Clear RXNE interrupt flag */
    __HAL_UART_SEND_REQ(huart, UART_RXDATA_FLUSH_REQUEST);
  }
}
 80051ae:	e00c      	b.n	80051ca <UART_RxISR_8BIT+0x1a6>
        HAL_UART_RxCpltCallback(huart);
 80051b0:	687b      	ldr	r3, [r7, #4]
 80051b2:	0018      	movs	r0, r3
 80051b4:	f7fd fe1a 	bl	8002dec <HAL_UART_RxCpltCallback>
}
 80051b8:	e007      	b.n	80051ca <UART_RxISR_8BIT+0x1a6>
    __HAL_UART_SEND_REQ(huart, UART_RXDATA_FLUSH_REQUEST);
 80051ba:	687b      	ldr	r3, [r7, #4]
 80051bc:	681b      	ldr	r3, [r3, #0]
 80051be:	699a      	ldr	r2, [r3, #24]
 80051c0:	687b      	ldr	r3, [r7, #4]
 80051c2:	681b      	ldr	r3, [r3, #0]
 80051c4:	2108      	movs	r1, #8
 80051c6:	430a      	orrs	r2, r1
 80051c8:	619a      	str	r2, [r3, #24]
}
 80051ca:	46c0      	nop			@ (mov r8, r8)
 80051cc:	46bd      	mov	sp, r7
 80051ce:	b014      	add	sp, #80	@ 0x50
 80051d0:	bd80      	pop	{r7, pc}
 80051d2:	46c0      	nop			@ (mov r8, r8)
 80051d4:	fffffedf 	.word	0xfffffedf
 80051d8:	fbffffff 	.word	0xfbffffff

080051dc <UART_RxISR_16BIT>:
  *         interruptions have been enabled by HAL_UART_Receive_IT()
  * @param huart UART handle.
  * @retval None
  */
static void UART_RxISR_16BIT(UART_HandleTypeDef *huart)
{
 80051dc:	b580      	push	{r7, lr}
 80051de:	b094      	sub	sp, #80	@ 0x50
 80051e0:	af00      	add	r7, sp, #0
 80051e2:	6078      	str	r0, [r7, #4]
  uint16_t *tmp;
  uint16_t uhMask = huart->Mask;
 80051e4:	204e      	movs	r0, #78	@ 0x4e
 80051e6:	183b      	adds	r3, r7, r0
 80051e8:	687a      	ldr	r2, [r7, #4]
 80051ea:	215c      	movs	r1, #92	@ 0x5c
 80051ec:	5a52      	ldrh	r2, [r2, r1]
 80051ee:	801a      	strh	r2, [r3, #0]
  uint16_t  uhdata;

  /* Check that a Rx process is ongoing */
  if (huart->RxState == HAL_UART_STATE_BUSY_RX)
 80051f0:	687b      	ldr	r3, [r7, #4]
 80051f2:	2280      	movs	r2, #128	@ 0x80
 80051f4:	589b      	ldr	r3, [r3, r2]
 80051f6:	2b22      	cmp	r3, #34	@ 0x22
 80051f8:	d000      	beq.n	80051fc <UART_RxISR_16BIT+0x20>
 80051fa:	e0ba      	b.n	8005372 <UART_RxISR_16BIT+0x196>
  {
    uhdata = (uint16_t) READ_REG(huart->Instance->RDR);
 80051fc:	687b      	ldr	r3, [r7, #4]
 80051fe:	681a      	ldr	r2, [r3, #0]
 8005200:	214c      	movs	r1, #76	@ 0x4c
 8005202:	187b      	adds	r3, r7, r1
 8005204:	8c92      	ldrh	r2, [r2, #36]	@ 0x24
 8005206:	801a      	strh	r2, [r3, #0]
    tmp = (uint16_t *) huart->pRxBuffPtr ;
 8005208:	687b      	ldr	r3, [r7, #4]
 800520a:	6d5b      	ldr	r3, [r3, #84]	@ 0x54
 800520c:	64bb      	str	r3, [r7, #72]	@ 0x48
    *tmp = (uint16_t)(uhdata & uhMask);
 800520e:	187b      	adds	r3, r7, r1
 8005210:	183a      	adds	r2, r7, r0
 8005212:	881b      	ldrh	r3, [r3, #0]
 8005214:	8812      	ldrh	r2, [r2, #0]
 8005216:	4013      	ands	r3, r2
 8005218:	b29a      	uxth	r2, r3
 800521a:	6cbb      	ldr	r3, [r7, #72]	@ 0x48
 800521c:	801a      	strh	r2, [r3, #0]
    huart->pRxBuffPtr += 2U;
 800521e:	687b      	ldr	r3, [r7, #4]
 8005220:	6d5b      	ldr	r3, [r3, #84]	@ 0x54
 8005222:	1c9a      	adds	r2, r3, #2
 8005224:	687b      	ldr	r3, [r7, #4]
 8005226:	655a      	str	r2, [r3, #84]	@ 0x54
    huart->RxXferCount--;
 8005228:	687b      	ldr	r3, [r7, #4]
 800522a:	225a      	movs	r2, #90	@ 0x5a
 800522c:	5a9b      	ldrh	r3, [r3, r2]
 800522e:	b29b      	uxth	r3, r3
 8005230:	3b01      	subs	r3, #1
 8005232:	b299      	uxth	r1, r3
 8005234:	687b      	ldr	r3, [r7, #4]
 8005236:	225a      	movs	r2, #90	@ 0x5a
 8005238:	5299      	strh	r1, [r3, r2]

    if (huart->RxXferCount == 0U)
 800523a:	687b      	ldr	r3, [r7, #4]
 800523c:	225a      	movs	r2, #90	@ 0x5a
 800523e:	5a9b      	ldrh	r3, [r3, r2]
 8005240:	b29b      	uxth	r3, r3
 8005242:	2b00      	cmp	r3, #0
 8005244:	d000      	beq.n	8005248 <UART_RxISR_16BIT+0x6c>
 8005246:	e09c      	b.n	8005382 <UART_RxISR_16BIT+0x1a6>
  __ASM volatile ("MRS %0, primask" : "=r" (result) :: "memory");
 8005248:	f3ef 8310 	mrs	r3, PRIMASK
 800524c:	623b      	str	r3, [r7, #32]
  return(result);
 800524e:	6a3b      	ldr	r3, [r7, #32]
    {
      /* Disable the UART Parity Error Interrupt and RXNE interrupt*/
      ATOMIC_CLEAR_BIT(huart->Instance->CR1, (USART_CR1_RXNEIE | USART_CR1_PEIE));
 8005250:	647b      	str	r3, [r7, #68]	@ 0x44
 8005252:	2301      	movs	r3, #1
 8005254:	627b      	str	r3, [r7, #36]	@ 0x24
  __ASM volatile ("MSR primask, %0" : : "r" (priMask) : "memory");
 8005256:	6a7b      	ldr	r3, [r7, #36]	@ 0x24
 8005258:	f383 8810 	msr	PRIMASK, r3
}
 800525c:	46c0      	nop			@ (mov r8, r8)
 800525e:	687b      	ldr	r3, [r7, #4]
 8005260:	681b      	ldr	r3, [r3, #0]
 8005262:	681a      	ldr	r2, [r3, #0]
 8005264:	687b      	ldr	r3, [r7, #4]
 8005266:	681b      	ldr	r3, [r3, #0]
 8005268:	4948      	ldr	r1, [pc, #288]	@ (800538c <UART_RxISR_16BIT+0x1b0>)
 800526a:	400a      	ands	r2, r1
 800526c:	601a      	str	r2, [r3, #0]
 800526e:	6c7b      	ldr	r3, [r7, #68]	@ 0x44
 8005270:	62bb      	str	r3, [r7, #40]	@ 0x28
  __ASM volatile ("MSR primask, %0" : : "r" (priMask) : "memory");
 8005272:	6abb      	ldr	r3, [r7, #40]	@ 0x28
 8005274:	f383 8810 	msr	PRIMASK, r3
}
 8005278:	46c0      	nop			@ (mov r8, r8)
  __ASM volatile ("MRS %0, primask" : "=r" (result) :: "memory");
 800527a:	f3ef 8310 	mrs	r3, PRIMASK
 800527e:	62fb      	str	r3, [r7, #44]	@ 0x2c
  return(result);
 8005280:	6afb      	ldr	r3, [r7, #44]	@ 0x2c

      /* Disable the UART Error Interrupt: (Frame error, noise error, overrun error) */
      ATOMIC_CLEAR_BIT(huart->Instance->CR3, USART_CR3_EIE);
 8005282:	643b      	str	r3, [r7, #64]	@ 0x40
 8005284:	2301      	movs	r3, #1
 8005286:	633b      	str	r3, [r7, #48]	@ 0x30
  __ASM volatile ("MSR primask, %0" : : "r" (priMask) : "memory");
 8005288:	6b3b      	ldr	r3, [r7, #48]	@ 0x30
 800528a:	f383 8810 	msr	PRIMASK, r3
}
 800528e:	46c0      	nop			@ (mov r8, r8)
 8005290:	687b      	ldr	r3, [r7, #4]
 8005292:	681b      	ldr	r3, [r3, #0]
 8005294:	689a      	ldr	r2, [r3, #8]
 8005296:	687b      	ldr	r3, [r7, #4]
 8005298:	681b      	ldr	r3, [r3, #0]
 800529a:	2101      	movs	r1, #1
 800529c:	438a      	bics	r2, r1
 800529e:	609a      	str	r2, [r3, #8]
 80052a0:	6c3b      	ldr	r3, [r7, #64]	@ 0x40
 80052a2:	637b      	str	r3, [r7, #52]	@ 0x34
  __ASM volatile ("MSR primask, %0" : : "r" (priMask) : "memory");
 80052a4:	6b7b      	ldr	r3, [r7, #52]	@ 0x34
 80052a6:	f383 8810 	msr	PRIMASK, r3
}
 80052aa:	46c0      	nop			@ (mov r8, r8)

      /* Rx process is completed, restore huart->RxState to Ready */
      huart->RxState = HAL_UART_STATE_READY;
 80052ac:	687b      	ldr	r3, [r7, #4]
 80052ae:	2280      	movs	r2, #128	@ 0x80
 80052b0:	2120      	movs	r1, #32
 80052b2:	5099      	str	r1, [r3, r2]

      /* Clear RxISR function pointer */
      huart->RxISR = NULL;
 80052b4:	687b      	ldr	r3, [r7, #4]
 80052b6:	2200      	movs	r2, #0
 80052b8:	669a      	str	r2, [r3, #104]	@ 0x68

      /* Initialize type of RxEvent to Transfer Complete */
      huart->RxEventType = HAL_UART_RXEVENT_TC;
 80052ba:	687b      	ldr	r3, [r7, #4]
 80052bc:	2200      	movs	r2, #0
 80052be:	665a      	str	r2, [r3, #100]	@ 0x64

      /* Check that USART RTOEN bit is set */
      if (READ_BIT(huart->Instance->CR2, USART_CR2_RTOEN) != 0U)
 80052c0:	687b      	ldr	r3, [r7, #4]
 80052c2:	681b      	ldr	r3, [r3, #0]
 80052c4:	685a      	ldr	r2, [r3, #4]
 80052c6:	2380      	movs	r3, #128	@ 0x80
 80052c8:	041b      	lsls	r3, r3, #16
 80052ca:	4013      	ands	r3, r2
 80052cc:	d018      	beq.n	8005300 <UART_RxISR_16BIT+0x124>
  __ASM volatile ("MRS %0, primask" : "=r" (result) :: "memory");
 80052ce:	f3ef 8310 	mrs	r3, PRIMASK
 80052d2:	617b      	str	r3, [r7, #20]
  return(result);
 80052d4:	697b      	ldr	r3, [r7, #20]
      {
        /* Enable the UART Receiver Timeout Interrupt */
        ATOMIC_CLEAR_BIT(huart->Instance->CR1, USART_CR1_RTOIE);
 80052d6:	63fb      	str	r3, [r7, #60]	@ 0x3c
 80052d8:	2301      	movs	r3, #1
 80052da:	61bb      	str	r3, [r7, #24]
  __ASM volatile ("MSR primask, %0" : : "r" (priMask) : "memory");
 80052dc:	69bb      	ldr	r3, [r7, #24]
 80052de:	f383 8810 	msr	PRIMASK, r3
}
 80052e2:	46c0      	nop			@ (mov r8, r8)
 80052e4:	687b      	ldr	r3, [r7, #4]
 80052e6:	681b      	ldr	r3, [r3, #0]
 80052e8:	681a      	ldr	r2, [r3, #0]
 80052ea:	687b      	ldr	r3, [r7, #4]
 80052ec:	681b      	ldr	r3, [r3, #0]
 80052ee:	4928      	ldr	r1, [pc, #160]	@ (8005390 <UART_RxISR_16BIT+0x1b4>)
 80052f0:	400a      	ands	r2, r1
 80052f2:	601a      	str	r2, [r3, #0]
 80052f4:	6bfb      	ldr	r3, [r7, #60]	@ 0x3c
 80052f6:	61fb      	str	r3, [r7, #28]
  __ASM volatile ("MSR primask, %0" : : "r" (priMask) : "memory");
 80052f8:	69fb      	ldr	r3, [r7, #28]
 80052fa:	f383 8810 	msr	PRIMASK, r3
}
 80052fe:	46c0      	nop			@ (mov r8, r8)
      }

      /* Check current reception Mode :
         If Reception till IDLE event has been selected : */
      if (huart->ReceptionType == HAL_UART_RECEPTION_TOIDLE)
 8005300:	687b      	ldr	r3, [r7, #4]
 8005302:	6e1b      	ldr	r3, [r3, #96]	@ 0x60
 8005304:	2b01      	cmp	r3, #1
 8005306:	d12f      	bne.n	8005368 <UART_RxISR_16BIT+0x18c>
      {
        /* Set reception type to Standard */
        huart->ReceptionType = HAL_UART_RECEPTION_STANDARD;
 8005308:	687b      	ldr	r3, [r7, #4]
 800530a:	2200      	movs	r2, #0
 800530c:	661a      	str	r2, [r3, #96]	@ 0x60
  __ASM volatile ("MRS %0, primask" : "=r" (result) :: "memory");
 800530e:	f3ef 8310 	mrs	r3, PRIMASK
 8005312:	60bb      	str	r3, [r7, #8]
  return(result);
 8005314:	68bb      	ldr	r3, [r7, #8]

        /* Disable IDLE interrupt */
        ATOMIC_CLEAR_BIT(huart->Instance->CR1, USART_CR1_IDLEIE);
 8005316:	63bb      	str	r3, [r7, #56]	@ 0x38
 8005318:	2301      	movs	r3, #1
 800531a:	60fb      	str	r3, [r7, #12]
  __ASM volatile ("MSR primask, %0" : : "r" (priMask) : "memory");
 800531c:	68fb      	ldr	r3, [r7, #12]
 800531e:	f383 8810 	msr	PRIMASK, r3
}
 8005322:	46c0      	nop			@ (mov r8, r8)
 8005324:	687b      	ldr	r3, [r7, #4]
 8005326:	681b      	ldr	r3, [r3, #0]
 8005328:	681a      	ldr	r2, [r3, #0]
 800532a:	687b      	ldr	r3, [r7, #4]
 800532c:	681b      	ldr	r3, [r3, #0]
 800532e:	2110      	movs	r1, #16
 8005330:	438a      	bics	r2, r1
 8005332:	601a      	str	r2, [r3, #0]
 8005334:	6bbb      	ldr	r3, [r7, #56]	@ 0x38
 8005336:	613b      	str	r3, [r7, #16]
  __ASM volatile ("MSR primask, %0" : : "r" (priMask) : "memory");
 8005338:	693b      	ldr	r3, [r7, #16]
 800533a:	f383 8810 	msr	PRIMASK, r3
}
 800533e:	46c0      	nop			@ (mov r8, r8)

        if (__HAL_UART_GET_FLAG(huart, UART_FLAG_IDLE) == SET)
 8005340:	687b      	ldr	r3, [r7, #4]
 8005342:	681b      	ldr	r3, [r3, #0]
 8005344:	69db      	ldr	r3, [r3, #28]
 8005346:	2210      	movs	r2, #16
 8005348:	4013      	ands	r3, r2
 800534a:	2b10      	cmp	r3, #16
 800534c:	d103      	bne.n	8005356 <UART_RxISR_16BIT+0x17a>
        {
          /* Clear IDLE Flag */
          __HAL_UART_CLEAR_FLAG(huart, UART_CLEAR_IDLEF);
 800534e:	687b      	ldr	r3, [r7, #4]
 8005350:	681b      	ldr	r3, [r3, #0]
 8005352:	2210      	movs	r2, #16
 8005354:	621a      	str	r2, [r3, #32]
#if (USE_HAL_UART_REGISTER_CALLBACKS == 1)
        /*Call registered Rx Event callback*/
        huart->RxEventCallback(huart, huart->RxXferSize);
#else
        /*Call legacy weak Rx Event callback*/
        HAL_UARTEx_RxEventCallback(huart, huart->RxXferSize);
 8005356:	687b      	ldr	r3, [r7, #4]
 8005358:	2258      	movs	r2, #88	@ 0x58
 800535a:	5a9a      	ldrh	r2, [r3, r2]
 800535c:	687b      	ldr	r3, [r7, #4]
 800535e:	0011      	movs	r1, r2
 8005360:	0018      	movs	r0, r3
 8005362:	f7ff f9eb 	bl	800473c <HAL_UARTEx_RxEventCallback>
  else
  {
    /* Clear RXNE interrupt flag */
    __HAL_UART_SEND_REQ(huart, UART_RXDATA_FLUSH_REQUEST);
  }
}
 8005366:	e00c      	b.n	8005382 <UART_RxISR_16BIT+0x1a6>
        HAL_UART_RxCpltCallback(huart);
 8005368:	687b      	ldr	r3, [r7, #4]
 800536a:	0018      	movs	r0, r3
 800536c:	f7fd fd3e 	bl	8002dec <HAL_UART_RxCpltCallback>
}
 8005370:	e007      	b.n	8005382 <UART_RxISR_16BIT+0x1a6>
    __HAL_UART_SEND_REQ(huart, UART_RXDATA_FLUSH_REQUEST);
 8005372:	687b      	ldr	r3, [r7, #4]
 8005374:	681b      	ldr	r3, [r3, #0]
 8005376:	699a      	ldr	r2, [r3, #24]
 8005378:	687b      	ldr	r3, [r7, #4]
 800537a:	681b      	ldr	r3, [r3, #0]
 800537c:	2108      	movs	r1, #8
 800537e:	430a      	orrs	r2, r1
 8005380:	619a      	str	r2, [r3, #24]
}
 8005382:	46c0      	nop			@ (mov r8, r8)
 8005384:	46bd      	mov	sp, r7
 8005386:	b014      	add	sp, #80	@ 0x50
 8005388:	bd80      	pop	{r7, pc}
 800538a:	46c0      	nop			@ (mov r8, r8)
 800538c:	fffffedf 	.word	0xfffffedf
 8005390:	fbffffff 	.word	0xfbffffff

08005394 <Reset_Handler>:

  .section .text.Reset_Handler
  .weak Reset_Handler
  .type Reset_Handler, %function
Reset_Handler:
  ldr   r0, =_estack
 8005394:	480d      	ldr	r0, [pc, #52]	@ (80053cc <LoopForever+0x2>)
  mov   sp, r0          /* set stack pointer */
 8005396:	4685      	mov	sp, r0
/* Call the clock system initialization function.*/
  bl  SystemInit
 8005398:	f7fd fe0c 	bl	8002fb4 <SystemInit>

/* Copy the data segment initializers from flash to SRAM */
  ldr r0, =_sdata
 800539c:	480c      	ldr	r0, [pc, #48]	@ (80053d0 <LoopForever+0x6>)
  ldr r1, =_edata
 800539e:	490d      	ldr	r1, [pc, #52]	@ (80053d4 <LoopForever+0xa>)
  ldr r2, =_sidata
 80053a0:	4a0d      	ldr	r2, [pc, #52]	@ (80053d8 <LoopForever+0xe>)
  movs r3, #0
 80053a2:	2300      	movs	r3, #0
  b LoopCopyDataInit
 80053a4:	e002      	b.n	80053ac <LoopCopyDataInit>

080053a6 <CopyDataInit>:

CopyDataInit:
  ldr r4, [r2, r3]
 80053a6:	58d4      	ldr	r4, [r2, r3]
  str r4, [r0, r3]
 80053a8:	50c4      	str	r4, [r0, r3]
  adds r3, r3, #4
 80053aa:	3304      	adds	r3, #4

080053ac <LoopCopyDataInit>:

LoopCopyDataInit:
  adds r4, r0, r3
 80053ac:	18c4      	adds	r4, r0, r3
  cmp r4, r1
 80053ae:	428c      	cmp	r4, r1
  bcc CopyDataInit
 80053b0:	d3f9      	bcc.n	80053a6 <CopyDataInit>

/* Zero fill the bss segment. */
  ldr r2, =_sbss
 80053b2:	4a0a      	ldr	r2, [pc, #40]	@ (80053dc <LoopForever+0x12>)
  ldr r4, =_ebss
 80053b4:	4c0a      	ldr	r4, [pc, #40]	@ (80053e0 <LoopForever+0x16>)
  movs r3, #0
 80053b6:	2300      	movs	r3, #0
  b LoopFillZerobss
 80053b8:	e001      	b.n	80053be <LoopFillZerobss>

080053ba <FillZerobss>:

FillZerobss:
  str  r3, [r2]
 80053ba:	6013      	str	r3, [r2, #0]
  adds r2, r2, #4
 80053bc:	3204      	adds	r2, #4

080053be <LoopFillZerobss>:

LoopFillZerobss:
  cmp r2, r4
 80053be:	42a2      	cmp	r2, r4
  bcc FillZerobss
 80053c0:	d3fb      	bcc.n	80053ba <FillZerobss>


/* Call static constructors */
  bl __libc_init_array
 80053c2:	f001 f8eb 	bl	800659c <__libc_init_array>
/* Call the application's entry point.*/

  bl main
 80053c6:	f7fd faf5 	bl	80029b4 <main>

080053ca <LoopForever>:

LoopForever:
  b LoopForever
 80053ca:	e7fe      	b.n	80053ca <LoopForever>
  ldr   r0, =_estack
 80053cc:	20002000 	.word	0x20002000
  ldr r0, =_sdata
 80053d0:	20000000 	.word	0x20000000
  ldr r1, =_edata
 80053d4:	200001e4 	.word	0x200001e4
  ldr r2, =_sidata
 80053d8:	08008a0c 	.word	0x08008a0c
  ldr r2, =_sbss
 80053dc:	200001e8 	.word	0x200001e8
  ldr r4, =_ebss
 80053e0:	20000610 	.word	0x20000610

080053e4 <ADC_IRQHandler>:
 * @retval : None
*/
  .section .text.Default_Handler,"ax",%progbits
Default_Handler:
Infinite_Loop:
  b Infinite_Loop
 80053e4:	e7fe      	b.n	80053e4 <ADC_IRQHandler>

080053e6 <atof>:
 80053e6:	b510      	push	{r4, lr}
 80053e8:	2100      	movs	r1, #0
 80053ea:	f000 fe17 	bl	800601c <strtod>
 80053ee:	bd10      	pop	{r4, pc}

080053f0 <sulp>:
 80053f0:	b570      	push	{r4, r5, r6, lr}
 80053f2:	0016      	movs	r6, r2
 80053f4:	000d      	movs	r5, r1
 80053f6:	f002 f8ff 	bl	80075f8 <__ulp>
 80053fa:	2e00      	cmp	r6, #0
 80053fc:	d00d      	beq.n	800541a <sulp+0x2a>
 80053fe:	236b      	movs	r3, #107	@ 0x6b
 8005400:	006a      	lsls	r2, r5, #1
 8005402:	0d52      	lsrs	r2, r2, #21
 8005404:	1a9b      	subs	r3, r3, r2
 8005406:	2b00      	cmp	r3, #0
 8005408:	dd07      	ble.n	800541a <sulp+0x2a>
 800540a:	2400      	movs	r4, #0
 800540c:	4a03      	ldr	r2, [pc, #12]	@ (800541c <sulp+0x2c>)
 800540e:	051b      	lsls	r3, r3, #20
 8005410:	189d      	adds	r5, r3, r2
 8005412:	002b      	movs	r3, r5
 8005414:	0022      	movs	r2, r4
 8005416:	f7fc f8b5 	bl	8001584 <__aeabi_dmul>
 800541a:	bd70      	pop	{r4, r5, r6, pc}
 800541c:	3ff00000 	.word	0x3ff00000

08005420 <_strtod_l>:
 8005420:	b5f0      	push	{r4, r5, r6, r7, lr}
 8005422:	b0a3      	sub	sp, #140	@ 0x8c
 8005424:	921b      	str	r2, [sp, #108]	@ 0x6c
 8005426:	2200      	movs	r2, #0
 8005428:	2600      	movs	r6, #0
 800542a:	2700      	movs	r7, #0
 800542c:	9005      	str	r0, [sp, #20]
 800542e:	9109      	str	r1, [sp, #36]	@ 0x24
 8005430:	921e      	str	r2, [sp, #120]	@ 0x78
 8005432:	911d      	str	r1, [sp, #116]	@ 0x74
 8005434:	780a      	ldrb	r2, [r1, #0]
 8005436:	2a2b      	cmp	r2, #43	@ 0x2b
 8005438:	d053      	beq.n	80054e2 <_strtod_l+0xc2>
 800543a:	d83f      	bhi.n	80054bc <_strtod_l+0x9c>
 800543c:	2a0d      	cmp	r2, #13
 800543e:	d839      	bhi.n	80054b4 <_strtod_l+0x94>
 8005440:	2a08      	cmp	r2, #8
 8005442:	d839      	bhi.n	80054b8 <_strtod_l+0x98>
 8005444:	2a00      	cmp	r2, #0
 8005446:	d042      	beq.n	80054ce <_strtod_l+0xae>
 8005448:	2200      	movs	r2, #0
 800544a:	9212      	str	r2, [sp, #72]	@ 0x48
 800544c:	2100      	movs	r1, #0
 800544e:	9d1d      	ldr	r5, [sp, #116]	@ 0x74
 8005450:	910c      	str	r1, [sp, #48]	@ 0x30
 8005452:	782a      	ldrb	r2, [r5, #0]
 8005454:	2a30      	cmp	r2, #48	@ 0x30
 8005456:	d000      	beq.n	800545a <_strtod_l+0x3a>
 8005458:	e083      	b.n	8005562 <_strtod_l+0x142>
 800545a:	786a      	ldrb	r2, [r5, #1]
 800545c:	3120      	adds	r1, #32
 800545e:	438a      	bics	r2, r1
 8005460:	2a58      	cmp	r2, #88	@ 0x58
 8005462:	d000      	beq.n	8005466 <_strtod_l+0x46>
 8005464:	e073      	b.n	800554e <_strtod_l+0x12e>
 8005466:	9302      	str	r3, [sp, #8]
 8005468:	9b12      	ldr	r3, [sp, #72]	@ 0x48
 800546a:	4a9b      	ldr	r2, [pc, #620]	@ (80056d8 <_strtod_l+0x2b8>)
 800546c:	9301      	str	r3, [sp, #4]
 800546e:	ab1e      	add	r3, sp, #120	@ 0x78
 8005470:	9300      	str	r3, [sp, #0]
 8005472:	9805      	ldr	r0, [sp, #20]
 8005474:	ab1f      	add	r3, sp, #124	@ 0x7c
 8005476:	a91d      	add	r1, sp, #116	@ 0x74
 8005478:	f001 f980 	bl	800677c <__gethex>
 800547c:	230f      	movs	r3, #15
 800547e:	0002      	movs	r2, r0
 8005480:	401a      	ands	r2, r3
 8005482:	0004      	movs	r4, r0
 8005484:	9206      	str	r2, [sp, #24]
 8005486:	4218      	tst	r0, r3
 8005488:	d005      	beq.n	8005496 <_strtod_l+0x76>
 800548a:	2a06      	cmp	r2, #6
 800548c:	d12b      	bne.n	80054e6 <_strtod_l+0xc6>
 800548e:	2300      	movs	r3, #0
 8005490:	3501      	adds	r5, #1
 8005492:	951d      	str	r5, [sp, #116]	@ 0x74
 8005494:	9312      	str	r3, [sp, #72]	@ 0x48
 8005496:	9b1b      	ldr	r3, [sp, #108]	@ 0x6c
 8005498:	2b00      	cmp	r3, #0
 800549a:	d002      	beq.n	80054a2 <_strtod_l+0x82>
 800549c:	9b1d      	ldr	r3, [sp, #116]	@ 0x74
 800549e:	9a1b      	ldr	r2, [sp, #108]	@ 0x6c
 80054a0:	6013      	str	r3, [r2, #0]
 80054a2:	9b12      	ldr	r3, [sp, #72]	@ 0x48
 80054a4:	2b00      	cmp	r3, #0
 80054a6:	d019      	beq.n	80054dc <_strtod_l+0xbc>
 80054a8:	2380      	movs	r3, #128	@ 0x80
 80054aa:	0030      	movs	r0, r6
 80054ac:	061b      	lsls	r3, r3, #24
 80054ae:	18f9      	adds	r1, r7, r3
 80054b0:	b023      	add	sp, #140	@ 0x8c
 80054b2:	bdf0      	pop	{r4, r5, r6, r7, pc}
 80054b4:	2a20      	cmp	r2, #32
 80054b6:	d1c7      	bne.n	8005448 <_strtod_l+0x28>
 80054b8:	3101      	adds	r1, #1
 80054ba:	e7ba      	b.n	8005432 <_strtod_l+0x12>
 80054bc:	2a2d      	cmp	r2, #45	@ 0x2d
 80054be:	d1c3      	bne.n	8005448 <_strtod_l+0x28>
 80054c0:	3a2c      	subs	r2, #44	@ 0x2c
 80054c2:	9212      	str	r2, [sp, #72]	@ 0x48
 80054c4:	1c4a      	adds	r2, r1, #1
 80054c6:	921d      	str	r2, [sp, #116]	@ 0x74
 80054c8:	784a      	ldrb	r2, [r1, #1]
 80054ca:	2a00      	cmp	r2, #0
 80054cc:	d1be      	bne.n	800544c <_strtod_l+0x2c>
 80054ce:	9b09      	ldr	r3, [sp, #36]	@ 0x24
 80054d0:	931d      	str	r3, [sp, #116]	@ 0x74
 80054d2:	2300      	movs	r3, #0
 80054d4:	9312      	str	r3, [sp, #72]	@ 0x48
 80054d6:	9b1b      	ldr	r3, [sp, #108]	@ 0x6c
 80054d8:	2b00      	cmp	r3, #0
 80054da:	d1df      	bne.n	800549c <_strtod_l+0x7c>
 80054dc:	0030      	movs	r0, r6
 80054de:	0039      	movs	r1, r7
 80054e0:	e7e6      	b.n	80054b0 <_strtod_l+0x90>
 80054e2:	2200      	movs	r2, #0
 80054e4:	e7ed      	b.n	80054c2 <_strtod_l+0xa2>
 80054e6:	9a1e      	ldr	r2, [sp, #120]	@ 0x78
 80054e8:	2a00      	cmp	r2, #0
 80054ea:	d007      	beq.n	80054fc <_strtod_l+0xdc>
 80054ec:	2135      	movs	r1, #53	@ 0x35
 80054ee:	a820      	add	r0, sp, #128	@ 0x80
 80054f0:	f002 f978 	bl	80077e4 <__copybits>
 80054f4:	991e      	ldr	r1, [sp, #120]	@ 0x78
 80054f6:	9805      	ldr	r0, [sp, #20]
 80054f8:	f001 fd3a 	bl	8006f70 <_Bfree>
 80054fc:	9806      	ldr	r0, [sp, #24]
 80054fe:	9b1f      	ldr	r3, [sp, #124]	@ 0x7c
 8005500:	3801      	subs	r0, #1
 8005502:	2804      	cmp	r0, #4
 8005504:	d806      	bhi.n	8005514 <_strtod_l+0xf4>
 8005506:	f7fa fe07 	bl	8000118 <__gnu_thumb1_case_uqi>
 800550a:	0312      	.short	0x0312
 800550c:	1e1c      	.short	0x1e1c
 800550e:	12          	.byte	0x12
 800550f:	00          	.byte	0x00
 8005510:	9e20      	ldr	r6, [sp, #128]	@ 0x80
 8005512:	9f21      	ldr	r7, [sp, #132]	@ 0x84
 8005514:	05e4      	lsls	r4, r4, #23
 8005516:	d502      	bpl.n	800551e <_strtod_l+0xfe>
 8005518:	2380      	movs	r3, #128	@ 0x80
 800551a:	061b      	lsls	r3, r3, #24
 800551c:	431f      	orrs	r7, r3
 800551e:	4b6f      	ldr	r3, [pc, #444]	@ (80056dc <_strtod_l+0x2bc>)
 8005520:	423b      	tst	r3, r7
 8005522:	d1b8      	bne.n	8005496 <_strtod_l+0x76>
 8005524:	f001 f834 	bl	8006590 <__errno>
 8005528:	2322      	movs	r3, #34	@ 0x22
 800552a:	6003      	str	r3, [r0, #0]
 800552c:	e7b3      	b.n	8005496 <_strtod_l+0x76>
 800552e:	496c      	ldr	r1, [pc, #432]	@ (80056e0 <_strtod_l+0x2c0>)
 8005530:	9a21      	ldr	r2, [sp, #132]	@ 0x84
 8005532:	9e20      	ldr	r6, [sp, #128]	@ 0x80
 8005534:	400a      	ands	r2, r1
 8005536:	496b      	ldr	r1, [pc, #428]	@ (80056e4 <_strtod_l+0x2c4>)
 8005538:	185b      	adds	r3, r3, r1
 800553a:	051b      	lsls	r3, r3, #20
 800553c:	431a      	orrs	r2, r3
 800553e:	0017      	movs	r7, r2
 8005540:	e7e8      	b.n	8005514 <_strtod_l+0xf4>
 8005542:	4f66      	ldr	r7, [pc, #408]	@ (80056dc <_strtod_l+0x2bc>)
 8005544:	e7e6      	b.n	8005514 <_strtod_l+0xf4>
 8005546:	2601      	movs	r6, #1
 8005548:	4f67      	ldr	r7, [pc, #412]	@ (80056e8 <_strtod_l+0x2c8>)
 800554a:	4276      	negs	r6, r6
 800554c:	e7e2      	b.n	8005514 <_strtod_l+0xf4>
 800554e:	9b1d      	ldr	r3, [sp, #116]	@ 0x74
 8005550:	1c5a      	adds	r2, r3, #1
 8005552:	921d      	str	r2, [sp, #116]	@ 0x74
 8005554:	785b      	ldrb	r3, [r3, #1]
 8005556:	2b30      	cmp	r3, #48	@ 0x30
 8005558:	d0f9      	beq.n	800554e <_strtod_l+0x12e>
 800555a:	2b00      	cmp	r3, #0
 800555c:	d09b      	beq.n	8005496 <_strtod_l+0x76>
 800555e:	2301      	movs	r3, #1
 8005560:	930c      	str	r3, [sp, #48]	@ 0x30
 8005562:	9b1d      	ldr	r3, [sp, #116]	@ 0x74
 8005564:	220a      	movs	r2, #10
 8005566:	9313      	str	r3, [sp, #76]	@ 0x4c
 8005568:	2300      	movs	r3, #0
 800556a:	9310      	str	r3, [sp, #64]	@ 0x40
 800556c:	930d      	str	r3, [sp, #52]	@ 0x34
 800556e:	9308      	str	r3, [sp, #32]
 8005570:	981d      	ldr	r0, [sp, #116]	@ 0x74
 8005572:	7804      	ldrb	r4, [r0, #0]
 8005574:	0023      	movs	r3, r4
 8005576:	3b30      	subs	r3, #48	@ 0x30
 8005578:	b2d9      	uxtb	r1, r3
 800557a:	2909      	cmp	r1, #9
 800557c:	d927      	bls.n	80055ce <_strtod_l+0x1ae>
 800557e:	2201      	movs	r2, #1
 8005580:	495a      	ldr	r1, [pc, #360]	@ (80056ec <_strtod_l+0x2cc>)
 8005582:	f000 ff8f 	bl	80064a4 <strncmp>
 8005586:	2800      	cmp	r0, #0
 8005588:	d033      	beq.n	80055f2 <_strtod_l+0x1d2>
 800558a:	2000      	movs	r0, #0
 800558c:	0023      	movs	r3, r4
 800558e:	4684      	mov	ip, r0
 8005590:	9a08      	ldr	r2, [sp, #32]
 8005592:	900e      	str	r0, [sp, #56]	@ 0x38
 8005594:	9206      	str	r2, [sp, #24]
 8005596:	2220      	movs	r2, #32
 8005598:	0019      	movs	r1, r3
 800559a:	4391      	bics	r1, r2
 800559c:	000a      	movs	r2, r1
 800559e:	2100      	movs	r1, #0
 80055a0:	9107      	str	r1, [sp, #28]
 80055a2:	2a45      	cmp	r2, #69	@ 0x45
 80055a4:	d000      	beq.n	80055a8 <_strtod_l+0x188>
 80055a6:	e0cb      	b.n	8005740 <_strtod_l+0x320>
 80055a8:	9b06      	ldr	r3, [sp, #24]
 80055aa:	9a0c      	ldr	r2, [sp, #48]	@ 0x30
 80055ac:	4303      	orrs	r3, r0
 80055ae:	4313      	orrs	r3, r2
 80055b0:	428b      	cmp	r3, r1
 80055b2:	d08c      	beq.n	80054ce <_strtod_l+0xae>
 80055b4:	9b1d      	ldr	r3, [sp, #116]	@ 0x74
 80055b6:	9309      	str	r3, [sp, #36]	@ 0x24
 80055b8:	3301      	adds	r3, #1
 80055ba:	931d      	str	r3, [sp, #116]	@ 0x74
 80055bc:	9b09      	ldr	r3, [sp, #36]	@ 0x24
 80055be:	785b      	ldrb	r3, [r3, #1]
 80055c0:	2b2b      	cmp	r3, #43	@ 0x2b
 80055c2:	d07b      	beq.n	80056bc <_strtod_l+0x29c>
 80055c4:	000c      	movs	r4, r1
 80055c6:	2b2d      	cmp	r3, #45	@ 0x2d
 80055c8:	d17e      	bne.n	80056c8 <_strtod_l+0x2a8>
 80055ca:	2401      	movs	r4, #1
 80055cc:	e077      	b.n	80056be <_strtod_l+0x29e>
 80055ce:	9908      	ldr	r1, [sp, #32]
 80055d0:	2908      	cmp	r1, #8
 80055d2:	dc09      	bgt.n	80055e8 <_strtod_l+0x1c8>
 80055d4:	990d      	ldr	r1, [sp, #52]	@ 0x34
 80055d6:	4351      	muls	r1, r2
 80055d8:	185b      	adds	r3, r3, r1
 80055da:	930d      	str	r3, [sp, #52]	@ 0x34
 80055dc:	9b08      	ldr	r3, [sp, #32]
 80055de:	3001      	adds	r0, #1
 80055e0:	3301      	adds	r3, #1
 80055e2:	9308      	str	r3, [sp, #32]
 80055e4:	901d      	str	r0, [sp, #116]	@ 0x74
 80055e6:	e7c3      	b.n	8005570 <_strtod_l+0x150>
 80055e8:	9d10      	ldr	r5, [sp, #64]	@ 0x40
 80055ea:	4355      	muls	r5, r2
 80055ec:	195b      	adds	r3, r3, r5
 80055ee:	9310      	str	r3, [sp, #64]	@ 0x40
 80055f0:	e7f4      	b.n	80055dc <_strtod_l+0x1bc>
 80055f2:	9b1d      	ldr	r3, [sp, #116]	@ 0x74
 80055f4:	1c5a      	adds	r2, r3, #1
 80055f6:	921d      	str	r2, [sp, #116]	@ 0x74
 80055f8:	9a08      	ldr	r2, [sp, #32]
 80055fa:	785b      	ldrb	r3, [r3, #1]
 80055fc:	2a00      	cmp	r2, #0
 80055fe:	d03e      	beq.n	800567e <_strtod_l+0x25e>
 8005600:	900e      	str	r0, [sp, #56]	@ 0x38
 8005602:	9206      	str	r2, [sp, #24]
 8005604:	001a      	movs	r2, r3
 8005606:	3a30      	subs	r2, #48	@ 0x30
 8005608:	2a09      	cmp	r2, #9
 800560a:	d912      	bls.n	8005632 <_strtod_l+0x212>
 800560c:	2201      	movs	r2, #1
 800560e:	4694      	mov	ip, r2
 8005610:	e7c1      	b.n	8005596 <_strtod_l+0x176>
 8005612:	9b1d      	ldr	r3, [sp, #116]	@ 0x74
 8005614:	3001      	adds	r0, #1
 8005616:	1c5a      	adds	r2, r3, #1
 8005618:	921d      	str	r2, [sp, #116]	@ 0x74
 800561a:	785b      	ldrb	r3, [r3, #1]
 800561c:	2b30      	cmp	r3, #48	@ 0x30
 800561e:	d0f8      	beq.n	8005612 <_strtod_l+0x1f2>
 8005620:	001a      	movs	r2, r3
 8005622:	3a31      	subs	r2, #49	@ 0x31
 8005624:	2a08      	cmp	r2, #8
 8005626:	d844      	bhi.n	80056b2 <_strtod_l+0x292>
 8005628:	900e      	str	r0, [sp, #56]	@ 0x38
 800562a:	2000      	movs	r0, #0
 800562c:	9a1d      	ldr	r2, [sp, #116]	@ 0x74
 800562e:	9006      	str	r0, [sp, #24]
 8005630:	9213      	str	r2, [sp, #76]	@ 0x4c
 8005632:	001c      	movs	r4, r3
 8005634:	1c42      	adds	r2, r0, #1
 8005636:	3c30      	subs	r4, #48	@ 0x30
 8005638:	2b30      	cmp	r3, #48	@ 0x30
 800563a:	d01a      	beq.n	8005672 <_strtod_l+0x252>
 800563c:	9b0e      	ldr	r3, [sp, #56]	@ 0x38
 800563e:	9906      	ldr	r1, [sp, #24]
 8005640:	189b      	adds	r3, r3, r2
 8005642:	930e      	str	r3, [sp, #56]	@ 0x38
 8005644:	230a      	movs	r3, #10
 8005646:	469c      	mov	ip, r3
 8005648:	9d06      	ldr	r5, [sp, #24]
 800564a:	1c4b      	adds	r3, r1, #1
 800564c:	1b5d      	subs	r5, r3, r5
 800564e:	42aa      	cmp	r2, r5
 8005650:	dc17      	bgt.n	8005682 <_strtod_l+0x262>
 8005652:	43c3      	mvns	r3, r0
 8005654:	9a06      	ldr	r2, [sp, #24]
 8005656:	17db      	asrs	r3, r3, #31
 8005658:	4003      	ands	r3, r0
 800565a:	18d1      	adds	r1, r2, r3
 800565c:	3201      	adds	r2, #1
 800565e:	18d3      	adds	r3, r2, r3
 8005660:	9306      	str	r3, [sp, #24]
 8005662:	2908      	cmp	r1, #8
 8005664:	dc1c      	bgt.n	80056a0 <_strtod_l+0x280>
 8005666:	230a      	movs	r3, #10
 8005668:	9a0d      	ldr	r2, [sp, #52]	@ 0x34
 800566a:	4353      	muls	r3, r2
 800566c:	2200      	movs	r2, #0
 800566e:	18e3      	adds	r3, r4, r3
 8005670:	930d      	str	r3, [sp, #52]	@ 0x34
 8005672:	9b1d      	ldr	r3, [sp, #116]	@ 0x74
 8005674:	0010      	movs	r0, r2
 8005676:	1c59      	adds	r1, r3, #1
 8005678:	911d      	str	r1, [sp, #116]	@ 0x74
 800567a:	785b      	ldrb	r3, [r3, #1]
 800567c:	e7c2      	b.n	8005604 <_strtod_l+0x1e4>
 800567e:	9808      	ldr	r0, [sp, #32]
 8005680:	e7cc      	b.n	800561c <_strtod_l+0x1fc>
 8005682:	2908      	cmp	r1, #8
 8005684:	dc05      	bgt.n	8005692 <_strtod_l+0x272>
 8005686:	4665      	mov	r5, ip
 8005688:	990d      	ldr	r1, [sp, #52]	@ 0x34
 800568a:	4369      	muls	r1, r5
 800568c:	910d      	str	r1, [sp, #52]	@ 0x34
 800568e:	0019      	movs	r1, r3
 8005690:	e7da      	b.n	8005648 <_strtod_l+0x228>
 8005692:	2b10      	cmp	r3, #16
 8005694:	dcfb      	bgt.n	800568e <_strtod_l+0x26e>
 8005696:	4661      	mov	r1, ip
 8005698:	9d10      	ldr	r5, [sp, #64]	@ 0x40
 800569a:	434d      	muls	r5, r1
 800569c:	9510      	str	r5, [sp, #64]	@ 0x40
 800569e:	e7f6      	b.n	800568e <_strtod_l+0x26e>
 80056a0:	2200      	movs	r2, #0
 80056a2:	290f      	cmp	r1, #15
 80056a4:	dce5      	bgt.n	8005672 <_strtod_l+0x252>
 80056a6:	230a      	movs	r3, #10
 80056a8:	9d10      	ldr	r5, [sp, #64]	@ 0x40
 80056aa:	435d      	muls	r5, r3
 80056ac:	1963      	adds	r3, r4, r5
 80056ae:	9310      	str	r3, [sp, #64]	@ 0x40
 80056b0:	e7df      	b.n	8005672 <_strtod_l+0x252>
 80056b2:	2200      	movs	r2, #0
 80056b4:	920e      	str	r2, [sp, #56]	@ 0x38
 80056b6:	9206      	str	r2, [sp, #24]
 80056b8:	3201      	adds	r2, #1
 80056ba:	e7a8      	b.n	800560e <_strtod_l+0x1ee>
 80056bc:	2400      	movs	r4, #0
 80056be:	9b09      	ldr	r3, [sp, #36]	@ 0x24
 80056c0:	3302      	adds	r3, #2
 80056c2:	931d      	str	r3, [sp, #116]	@ 0x74
 80056c4:	9b09      	ldr	r3, [sp, #36]	@ 0x24
 80056c6:	789b      	ldrb	r3, [r3, #2]
 80056c8:	001a      	movs	r2, r3
 80056ca:	3a30      	subs	r2, #48	@ 0x30
 80056cc:	2a09      	cmp	r2, #9
 80056ce:	d913      	bls.n	80056f8 <_strtod_l+0x2d8>
 80056d0:	9a09      	ldr	r2, [sp, #36]	@ 0x24
 80056d2:	921d      	str	r2, [sp, #116]	@ 0x74
 80056d4:	2200      	movs	r2, #0
 80056d6:	e032      	b.n	800573e <_strtod_l+0x31e>
 80056d8:	080087c4 	.word	0x080087c4
 80056dc:	7ff00000 	.word	0x7ff00000
 80056e0:	ffefffff 	.word	0xffefffff
 80056e4:	00000433 	.word	0x00000433
 80056e8:	7fffffff 	.word	0x7fffffff
 80056ec:	08008648 	.word	0x08008648
 80056f0:	9b1d      	ldr	r3, [sp, #116]	@ 0x74
 80056f2:	1c5a      	adds	r2, r3, #1
 80056f4:	921d      	str	r2, [sp, #116]	@ 0x74
 80056f6:	785b      	ldrb	r3, [r3, #1]
 80056f8:	2b30      	cmp	r3, #48	@ 0x30
 80056fa:	d0f9      	beq.n	80056f0 <_strtod_l+0x2d0>
 80056fc:	2200      	movs	r2, #0
 80056fe:	9207      	str	r2, [sp, #28]
 8005700:	001a      	movs	r2, r3
 8005702:	3a31      	subs	r2, #49	@ 0x31
 8005704:	2a08      	cmp	r2, #8
 8005706:	d81b      	bhi.n	8005740 <_strtod_l+0x320>
 8005708:	3b30      	subs	r3, #48	@ 0x30
 800570a:	001a      	movs	r2, r3
 800570c:	9b1d      	ldr	r3, [sp, #116]	@ 0x74
 800570e:	9307      	str	r3, [sp, #28]
 8005710:	9b1d      	ldr	r3, [sp, #116]	@ 0x74
 8005712:	1c59      	adds	r1, r3, #1
 8005714:	911d      	str	r1, [sp, #116]	@ 0x74
 8005716:	785b      	ldrb	r3, [r3, #1]
 8005718:	001d      	movs	r5, r3
 800571a:	3d30      	subs	r5, #48	@ 0x30
 800571c:	2d09      	cmp	r5, #9
 800571e:	d93a      	bls.n	8005796 <_strtod_l+0x376>
 8005720:	9d07      	ldr	r5, [sp, #28]
 8005722:	1b49      	subs	r1, r1, r5
 8005724:	000d      	movs	r5, r1
 8005726:	49b3      	ldr	r1, [pc, #716]	@ (80059f4 <_strtod_l+0x5d4>)
 8005728:	9107      	str	r1, [sp, #28]
 800572a:	2d08      	cmp	r5, #8
 800572c:	dc03      	bgt.n	8005736 <_strtod_l+0x316>
 800572e:	9207      	str	r2, [sp, #28]
 8005730:	428a      	cmp	r2, r1
 8005732:	dd00      	ble.n	8005736 <_strtod_l+0x316>
 8005734:	9107      	str	r1, [sp, #28]
 8005736:	2c00      	cmp	r4, #0
 8005738:	d002      	beq.n	8005740 <_strtod_l+0x320>
 800573a:	9a07      	ldr	r2, [sp, #28]
 800573c:	4252      	negs	r2, r2
 800573e:	9207      	str	r2, [sp, #28]
 8005740:	9a06      	ldr	r2, [sp, #24]
 8005742:	2a00      	cmp	r2, #0
 8005744:	d14b      	bne.n	80057de <_strtod_l+0x3be>
 8005746:	9a0c      	ldr	r2, [sp, #48]	@ 0x30
 8005748:	4310      	orrs	r0, r2
 800574a:	d000      	beq.n	800574e <_strtod_l+0x32e>
 800574c:	e6a3      	b.n	8005496 <_strtod_l+0x76>
 800574e:	4662      	mov	r2, ip
 8005750:	2a00      	cmp	r2, #0
 8005752:	d000      	beq.n	8005756 <_strtod_l+0x336>
 8005754:	e6bb      	b.n	80054ce <_strtod_l+0xae>
 8005756:	2b69      	cmp	r3, #105	@ 0x69
 8005758:	d025      	beq.n	80057a6 <_strtod_l+0x386>
 800575a:	dc21      	bgt.n	80057a0 <_strtod_l+0x380>
 800575c:	2b49      	cmp	r3, #73	@ 0x49
 800575e:	d022      	beq.n	80057a6 <_strtod_l+0x386>
 8005760:	2b4e      	cmp	r3, #78	@ 0x4e
 8005762:	d000      	beq.n	8005766 <_strtod_l+0x346>
 8005764:	e6b3      	b.n	80054ce <_strtod_l+0xae>
 8005766:	49a4      	ldr	r1, [pc, #656]	@ (80059f8 <_strtod_l+0x5d8>)
 8005768:	a81d      	add	r0, sp, #116	@ 0x74
 800576a:	f001 fa3d 	bl	8006be8 <__match>
 800576e:	2800      	cmp	r0, #0
 8005770:	d100      	bne.n	8005774 <_strtod_l+0x354>
 8005772:	e6ac      	b.n	80054ce <_strtod_l+0xae>
 8005774:	9b1d      	ldr	r3, [sp, #116]	@ 0x74
 8005776:	781b      	ldrb	r3, [r3, #0]
 8005778:	2b28      	cmp	r3, #40	@ 0x28
 800577a:	d12a      	bne.n	80057d2 <_strtod_l+0x3b2>
 800577c:	499f      	ldr	r1, [pc, #636]	@ (80059fc <_strtod_l+0x5dc>)
 800577e:	aa20      	add	r2, sp, #128	@ 0x80
 8005780:	a81d      	add	r0, sp, #116	@ 0x74
 8005782:	f001 fa45 	bl	8006c10 <__hexnan>
 8005786:	2805      	cmp	r0, #5
 8005788:	d123      	bne.n	80057d2 <_strtod_l+0x3b2>
 800578a:	9b21      	ldr	r3, [sp, #132]	@ 0x84
 800578c:	4a9c      	ldr	r2, [pc, #624]	@ (8005a00 <_strtod_l+0x5e0>)
 800578e:	9e20      	ldr	r6, [sp, #128]	@ 0x80
 8005790:	431a      	orrs	r2, r3
 8005792:	0017      	movs	r7, r2
 8005794:	e67f      	b.n	8005496 <_strtod_l+0x76>
 8005796:	210a      	movs	r1, #10
 8005798:	434a      	muls	r2, r1
 800579a:	18d2      	adds	r2, r2, r3
 800579c:	3a30      	subs	r2, #48	@ 0x30
 800579e:	e7b7      	b.n	8005710 <_strtod_l+0x2f0>
 80057a0:	2b6e      	cmp	r3, #110	@ 0x6e
 80057a2:	d0e0      	beq.n	8005766 <_strtod_l+0x346>
 80057a4:	e693      	b.n	80054ce <_strtod_l+0xae>
 80057a6:	4997      	ldr	r1, [pc, #604]	@ (8005a04 <_strtod_l+0x5e4>)
 80057a8:	a81d      	add	r0, sp, #116	@ 0x74
 80057aa:	f001 fa1d 	bl	8006be8 <__match>
 80057ae:	2800      	cmp	r0, #0
 80057b0:	d100      	bne.n	80057b4 <_strtod_l+0x394>
 80057b2:	e68c      	b.n	80054ce <_strtod_l+0xae>
 80057b4:	9b1d      	ldr	r3, [sp, #116]	@ 0x74
 80057b6:	4994      	ldr	r1, [pc, #592]	@ (8005a08 <_strtod_l+0x5e8>)
 80057b8:	3b01      	subs	r3, #1
 80057ba:	a81d      	add	r0, sp, #116	@ 0x74
 80057bc:	931d      	str	r3, [sp, #116]	@ 0x74
 80057be:	f001 fa13 	bl	8006be8 <__match>
 80057c2:	2800      	cmp	r0, #0
 80057c4:	d102      	bne.n	80057cc <_strtod_l+0x3ac>
 80057c6:	9b1d      	ldr	r3, [sp, #116]	@ 0x74
 80057c8:	3301      	adds	r3, #1
 80057ca:	931d      	str	r3, [sp, #116]	@ 0x74
 80057cc:	2600      	movs	r6, #0
 80057ce:	4f8c      	ldr	r7, [pc, #560]	@ (8005a00 <_strtod_l+0x5e0>)
 80057d0:	e661      	b.n	8005496 <_strtod_l+0x76>
 80057d2:	488e      	ldr	r0, [pc, #568]	@ (8005a0c <_strtod_l+0x5ec>)
 80057d4:	f000 ff1a 	bl	800660c <nan>
 80057d8:	0006      	movs	r6, r0
 80057da:	000f      	movs	r7, r1
 80057dc:	e65b      	b.n	8005496 <_strtod_l+0x76>
 80057de:	9b07      	ldr	r3, [sp, #28]
 80057e0:	9a0e      	ldr	r2, [sp, #56]	@ 0x38
 80057e2:	1a9b      	subs	r3, r3, r2
 80057e4:	930c      	str	r3, [sp, #48]	@ 0x30
 80057e6:	9b08      	ldr	r3, [sp, #32]
 80057e8:	2b00      	cmp	r3, #0
 80057ea:	d101      	bne.n	80057f0 <_strtod_l+0x3d0>
 80057ec:	9b06      	ldr	r3, [sp, #24]
 80057ee:	9308      	str	r3, [sp, #32]
 80057f0:	9c06      	ldr	r4, [sp, #24]
 80057f2:	2c10      	cmp	r4, #16
 80057f4:	dd00      	ble.n	80057f8 <_strtod_l+0x3d8>
 80057f6:	2410      	movs	r4, #16
 80057f8:	980d      	ldr	r0, [sp, #52]	@ 0x34
 80057fa:	f7fc fe1d 	bl	8002438 <__aeabi_ui2d>
 80057fe:	9b06      	ldr	r3, [sp, #24]
 8005800:	0006      	movs	r6, r0
 8005802:	000f      	movs	r7, r1
 8005804:	2b09      	cmp	r3, #9
 8005806:	dc13      	bgt.n	8005830 <_strtod_l+0x410>
 8005808:	9b0c      	ldr	r3, [sp, #48]	@ 0x30
 800580a:	2b00      	cmp	r3, #0
 800580c:	d100      	bne.n	8005810 <_strtod_l+0x3f0>
 800580e:	e642      	b.n	8005496 <_strtod_l+0x76>
 8005810:	9b0c      	ldr	r3, [sp, #48]	@ 0x30
 8005812:	2b00      	cmp	r3, #0
 8005814:	dc00      	bgt.n	8005818 <_strtod_l+0x3f8>
 8005816:	e07e      	b.n	8005916 <_strtod_l+0x4f6>
 8005818:	2b16      	cmp	r3, #22
 800581a:	dc63      	bgt.n	80058e4 <_strtod_l+0x4c4>
 800581c:	497c      	ldr	r1, [pc, #496]	@ (8005a10 <_strtod_l+0x5f0>)
 800581e:	00db      	lsls	r3, r3, #3
 8005820:	18c9      	adds	r1, r1, r3
 8005822:	0032      	movs	r2, r6
 8005824:	6808      	ldr	r0, [r1, #0]
 8005826:	6849      	ldr	r1, [r1, #4]
 8005828:	003b      	movs	r3, r7
 800582a:	f7fb feab 	bl	8001584 <__aeabi_dmul>
 800582e:	e7d3      	b.n	80057d8 <_strtod_l+0x3b8>
 8005830:	0022      	movs	r2, r4
 8005832:	4b77      	ldr	r3, [pc, #476]	@ (8005a10 <_strtod_l+0x5f0>)
 8005834:	3a09      	subs	r2, #9
 8005836:	00d2      	lsls	r2, r2, #3
 8005838:	189b      	adds	r3, r3, r2
 800583a:	681a      	ldr	r2, [r3, #0]
 800583c:	685b      	ldr	r3, [r3, #4]
 800583e:	f7fb fea1 	bl	8001584 <__aeabi_dmul>
 8005842:	0006      	movs	r6, r0
 8005844:	9810      	ldr	r0, [sp, #64]	@ 0x40
 8005846:	000f      	movs	r7, r1
 8005848:	f7fc fdf6 	bl	8002438 <__aeabi_ui2d>
 800584c:	000b      	movs	r3, r1
 800584e:	0002      	movs	r2, r0
 8005850:	0039      	movs	r1, r7
 8005852:	0030      	movs	r0, r6
 8005854:	f7fa fe96 	bl	8000584 <__aeabi_dadd>
 8005858:	9b06      	ldr	r3, [sp, #24]
 800585a:	0006      	movs	r6, r0
 800585c:	000f      	movs	r7, r1
 800585e:	2b0f      	cmp	r3, #15
 8005860:	ddd2      	ble.n	8005808 <_strtod_l+0x3e8>
 8005862:	9b06      	ldr	r3, [sp, #24]
 8005864:	1b1c      	subs	r4, r3, r4
 8005866:	9b0c      	ldr	r3, [sp, #48]	@ 0x30
 8005868:	18e4      	adds	r4, r4, r3
 800586a:	2c00      	cmp	r4, #0
 800586c:	dc00      	bgt.n	8005870 <_strtod_l+0x450>
 800586e:	e09b      	b.n	80059a8 <_strtod_l+0x588>
 8005870:	220f      	movs	r2, #15
 8005872:	0023      	movs	r3, r4
 8005874:	4013      	ands	r3, r2
 8005876:	4214      	tst	r4, r2
 8005878:	d00a      	beq.n	8005890 <_strtod_l+0x470>
 800587a:	4965      	ldr	r1, [pc, #404]	@ (8005a10 <_strtod_l+0x5f0>)
 800587c:	00db      	lsls	r3, r3, #3
 800587e:	18c9      	adds	r1, r1, r3
 8005880:	0032      	movs	r2, r6
 8005882:	6808      	ldr	r0, [r1, #0]
 8005884:	6849      	ldr	r1, [r1, #4]
 8005886:	003b      	movs	r3, r7
 8005888:	f7fb fe7c 	bl	8001584 <__aeabi_dmul>
 800588c:	0006      	movs	r6, r0
 800588e:	000f      	movs	r7, r1
 8005890:	230f      	movs	r3, #15
 8005892:	439c      	bics	r4, r3
 8005894:	d073      	beq.n	800597e <_strtod_l+0x55e>
 8005896:	3326      	adds	r3, #38	@ 0x26
 8005898:	33ff      	adds	r3, #255	@ 0xff
 800589a:	429c      	cmp	r4, r3
 800589c:	dd4b      	ble.n	8005936 <_strtod_l+0x516>
 800589e:	2300      	movs	r3, #0
 80058a0:	9306      	str	r3, [sp, #24]
 80058a2:	9307      	str	r3, [sp, #28]
 80058a4:	930d      	str	r3, [sp, #52]	@ 0x34
 80058a6:	9308      	str	r3, [sp, #32]
 80058a8:	2322      	movs	r3, #34	@ 0x22
 80058aa:	2600      	movs	r6, #0
 80058ac:	9a05      	ldr	r2, [sp, #20]
 80058ae:	4f54      	ldr	r7, [pc, #336]	@ (8005a00 <_strtod_l+0x5e0>)
 80058b0:	6013      	str	r3, [r2, #0]
 80058b2:	9b0d      	ldr	r3, [sp, #52]	@ 0x34
 80058b4:	42b3      	cmp	r3, r6
 80058b6:	d100      	bne.n	80058ba <_strtod_l+0x49a>
 80058b8:	e5ed      	b.n	8005496 <_strtod_l+0x76>
 80058ba:	991e      	ldr	r1, [sp, #120]	@ 0x78
 80058bc:	9805      	ldr	r0, [sp, #20]
 80058be:	f001 fb57 	bl	8006f70 <_Bfree>
 80058c2:	9908      	ldr	r1, [sp, #32]
 80058c4:	9805      	ldr	r0, [sp, #20]
 80058c6:	f001 fb53 	bl	8006f70 <_Bfree>
 80058ca:	9907      	ldr	r1, [sp, #28]
 80058cc:	9805      	ldr	r0, [sp, #20]
 80058ce:	f001 fb4f 	bl	8006f70 <_Bfree>
 80058d2:	990d      	ldr	r1, [sp, #52]	@ 0x34
 80058d4:	9805      	ldr	r0, [sp, #20]
 80058d6:	f001 fb4b 	bl	8006f70 <_Bfree>
 80058da:	9906      	ldr	r1, [sp, #24]
 80058dc:	9805      	ldr	r0, [sp, #20]
 80058de:	f001 fb47 	bl	8006f70 <_Bfree>
 80058e2:	e5d8      	b.n	8005496 <_strtod_l+0x76>
 80058e4:	2325      	movs	r3, #37	@ 0x25
 80058e6:	9a06      	ldr	r2, [sp, #24]
 80058e8:	1a9b      	subs	r3, r3, r2
 80058ea:	9a0c      	ldr	r2, [sp, #48]	@ 0x30
 80058ec:	4293      	cmp	r3, r2
 80058ee:	dbb8      	blt.n	8005862 <_strtod_l+0x442>
 80058f0:	240f      	movs	r4, #15
 80058f2:	9b06      	ldr	r3, [sp, #24]
 80058f4:	4d46      	ldr	r5, [pc, #280]	@ (8005a10 <_strtod_l+0x5f0>)
 80058f6:	1ae4      	subs	r4, r4, r3
 80058f8:	00e1      	lsls	r1, r4, #3
 80058fa:	1869      	adds	r1, r5, r1
 80058fc:	0032      	movs	r2, r6
 80058fe:	6808      	ldr	r0, [r1, #0]
 8005900:	6849      	ldr	r1, [r1, #4]
 8005902:	003b      	movs	r3, r7
 8005904:	f7fb fe3e 	bl	8001584 <__aeabi_dmul>
 8005908:	9b0c      	ldr	r3, [sp, #48]	@ 0x30
 800590a:	1b1c      	subs	r4, r3, r4
 800590c:	00e4      	lsls	r4, r4, #3
 800590e:	192d      	adds	r5, r5, r4
 8005910:	682a      	ldr	r2, [r5, #0]
 8005912:	686b      	ldr	r3, [r5, #4]
 8005914:	e789      	b.n	800582a <_strtod_l+0x40a>
 8005916:	9b0c      	ldr	r3, [sp, #48]	@ 0x30
 8005918:	3316      	adds	r3, #22
 800591a:	dba2      	blt.n	8005862 <_strtod_l+0x442>
 800591c:	9907      	ldr	r1, [sp, #28]
 800591e:	9a0e      	ldr	r2, [sp, #56]	@ 0x38
 8005920:	4b3b      	ldr	r3, [pc, #236]	@ (8005a10 <_strtod_l+0x5f0>)
 8005922:	1a52      	subs	r2, r2, r1
 8005924:	00d2      	lsls	r2, r2, #3
 8005926:	189b      	adds	r3, r3, r2
 8005928:	0030      	movs	r0, r6
 800592a:	681a      	ldr	r2, [r3, #0]
 800592c:	685b      	ldr	r3, [r3, #4]
 800592e:	0039      	movs	r1, r7
 8005930:	f7fb f9ee 	bl	8000d10 <__aeabi_ddiv>
 8005934:	e750      	b.n	80057d8 <_strtod_l+0x3b8>
 8005936:	2300      	movs	r3, #0
 8005938:	0030      	movs	r0, r6
 800593a:	0039      	movs	r1, r7
 800593c:	4d35      	ldr	r5, [pc, #212]	@ (8005a14 <_strtod_l+0x5f4>)
 800593e:	1124      	asrs	r4, r4, #4
 8005940:	9309      	str	r3, [sp, #36]	@ 0x24
 8005942:	2c01      	cmp	r4, #1
 8005944:	dc1e      	bgt.n	8005984 <_strtod_l+0x564>
 8005946:	2b00      	cmp	r3, #0
 8005948:	d001      	beq.n	800594e <_strtod_l+0x52e>
 800594a:	0006      	movs	r6, r0
 800594c:	000f      	movs	r7, r1
 800594e:	4b32      	ldr	r3, [pc, #200]	@ (8005a18 <_strtod_l+0x5f8>)
 8005950:	9a09      	ldr	r2, [sp, #36]	@ 0x24
 8005952:	18ff      	adds	r7, r7, r3
 8005954:	4b2f      	ldr	r3, [pc, #188]	@ (8005a14 <_strtod_l+0x5f4>)
 8005956:	00d5      	lsls	r5, r2, #3
 8005958:	195d      	adds	r5, r3, r5
 800595a:	0032      	movs	r2, r6
 800595c:	6828      	ldr	r0, [r5, #0]
 800595e:	6869      	ldr	r1, [r5, #4]
 8005960:	003b      	movs	r3, r7
 8005962:	f7fb fe0f 	bl	8001584 <__aeabi_dmul>
 8005966:	4b26      	ldr	r3, [pc, #152]	@ (8005a00 <_strtod_l+0x5e0>)
 8005968:	4a2c      	ldr	r2, [pc, #176]	@ (8005a1c <_strtod_l+0x5fc>)
 800596a:	0006      	movs	r6, r0
 800596c:	400b      	ands	r3, r1
 800596e:	4293      	cmp	r3, r2
 8005970:	d895      	bhi.n	800589e <_strtod_l+0x47e>
 8005972:	4a2b      	ldr	r2, [pc, #172]	@ (8005a20 <_strtod_l+0x600>)
 8005974:	4293      	cmp	r3, r2
 8005976:	d913      	bls.n	80059a0 <_strtod_l+0x580>
 8005978:	2601      	movs	r6, #1
 800597a:	4f2a      	ldr	r7, [pc, #168]	@ (8005a24 <_strtod_l+0x604>)
 800597c:	4276      	negs	r6, r6
 800597e:	2300      	movs	r3, #0
 8005980:	9309      	str	r3, [sp, #36]	@ 0x24
 8005982:	e086      	b.n	8005a92 <_strtod_l+0x672>
 8005984:	2201      	movs	r2, #1
 8005986:	4214      	tst	r4, r2
 8005988:	d004      	beq.n	8005994 <_strtod_l+0x574>
 800598a:	682a      	ldr	r2, [r5, #0]
 800598c:	686b      	ldr	r3, [r5, #4]
 800598e:	f7fb fdf9 	bl	8001584 <__aeabi_dmul>
 8005992:	2301      	movs	r3, #1
 8005994:	9a09      	ldr	r2, [sp, #36]	@ 0x24
 8005996:	1064      	asrs	r4, r4, #1
 8005998:	3201      	adds	r2, #1
 800599a:	9209      	str	r2, [sp, #36]	@ 0x24
 800599c:	3508      	adds	r5, #8
 800599e:	e7d0      	b.n	8005942 <_strtod_l+0x522>
 80059a0:	23d4      	movs	r3, #212	@ 0xd4
 80059a2:	049b      	lsls	r3, r3, #18
 80059a4:	18cf      	adds	r7, r1, r3
 80059a6:	e7ea      	b.n	800597e <_strtod_l+0x55e>
 80059a8:	2c00      	cmp	r4, #0
 80059aa:	d0e8      	beq.n	800597e <_strtod_l+0x55e>
 80059ac:	4264      	negs	r4, r4
 80059ae:	230f      	movs	r3, #15
 80059b0:	0022      	movs	r2, r4
 80059b2:	401a      	ands	r2, r3
 80059b4:	421c      	tst	r4, r3
 80059b6:	d00a      	beq.n	80059ce <_strtod_l+0x5ae>
 80059b8:	4b15      	ldr	r3, [pc, #84]	@ (8005a10 <_strtod_l+0x5f0>)
 80059ba:	00d2      	lsls	r2, r2, #3
 80059bc:	189b      	adds	r3, r3, r2
 80059be:	0030      	movs	r0, r6
 80059c0:	681a      	ldr	r2, [r3, #0]
 80059c2:	685b      	ldr	r3, [r3, #4]
 80059c4:	0039      	movs	r1, r7
 80059c6:	f7fb f9a3 	bl	8000d10 <__aeabi_ddiv>
 80059ca:	0006      	movs	r6, r0
 80059cc:	000f      	movs	r7, r1
 80059ce:	1124      	asrs	r4, r4, #4
 80059d0:	d0d5      	beq.n	800597e <_strtod_l+0x55e>
 80059d2:	2c1f      	cmp	r4, #31
 80059d4:	dd28      	ble.n	8005a28 <_strtod_l+0x608>
 80059d6:	2300      	movs	r3, #0
 80059d8:	9306      	str	r3, [sp, #24]
 80059da:	9307      	str	r3, [sp, #28]
 80059dc:	930d      	str	r3, [sp, #52]	@ 0x34
 80059de:	9308      	str	r3, [sp, #32]
 80059e0:	2322      	movs	r3, #34	@ 0x22
 80059e2:	9a05      	ldr	r2, [sp, #20]
 80059e4:	2600      	movs	r6, #0
 80059e6:	6013      	str	r3, [r2, #0]
 80059e8:	9b0d      	ldr	r3, [sp, #52]	@ 0x34
 80059ea:	2700      	movs	r7, #0
 80059ec:	2b00      	cmp	r3, #0
 80059ee:	d000      	beq.n	80059f2 <_strtod_l+0x5d2>
 80059f0:	e763      	b.n	80058ba <_strtod_l+0x49a>
 80059f2:	e550      	b.n	8005496 <_strtod_l+0x76>
 80059f4:	00004e1f 	.word	0x00004e1f
 80059f8:	08008653 	.word	0x08008653
 80059fc:	080087b0 	.word	0x080087b0
 8005a00:	7ff00000 	.word	0x7ff00000
 8005a04:	0800864a 	.word	0x0800864a
 8005a08:	0800864d 	.word	0x0800864d
 8005a0c:	080087ad 	.word	0x080087ad
 8005a10:	08008838 	.word	0x08008838
 8005a14:	08008810 	.word	0x08008810
 8005a18:	fcb00000 	.word	0xfcb00000
 8005a1c:	7ca00000 	.word	0x7ca00000
 8005a20:	7c900000 	.word	0x7c900000
 8005a24:	7fefffff 	.word	0x7fefffff
 8005a28:	2310      	movs	r3, #16
 8005a2a:	0022      	movs	r2, r4
 8005a2c:	401a      	ands	r2, r3
 8005a2e:	9209      	str	r2, [sp, #36]	@ 0x24
 8005a30:	421c      	tst	r4, r3
 8005a32:	d001      	beq.n	8005a38 <_strtod_l+0x618>
 8005a34:	335a      	adds	r3, #90	@ 0x5a
 8005a36:	9309      	str	r3, [sp, #36]	@ 0x24
 8005a38:	0030      	movs	r0, r6
 8005a3a:	0039      	movs	r1, r7
 8005a3c:	2300      	movs	r3, #0
 8005a3e:	4dc0      	ldr	r5, [pc, #768]	@ (8005d40 <_strtod_l+0x920>)
 8005a40:	2201      	movs	r2, #1
 8005a42:	4214      	tst	r4, r2
 8005a44:	d004      	beq.n	8005a50 <_strtod_l+0x630>
 8005a46:	682a      	ldr	r2, [r5, #0]
 8005a48:	686b      	ldr	r3, [r5, #4]
 8005a4a:	f7fb fd9b 	bl	8001584 <__aeabi_dmul>
 8005a4e:	2301      	movs	r3, #1
 8005a50:	1064      	asrs	r4, r4, #1
 8005a52:	3508      	adds	r5, #8
 8005a54:	2c00      	cmp	r4, #0
 8005a56:	d1f3      	bne.n	8005a40 <_strtod_l+0x620>
 8005a58:	2b00      	cmp	r3, #0
 8005a5a:	d001      	beq.n	8005a60 <_strtod_l+0x640>
 8005a5c:	0006      	movs	r6, r0
 8005a5e:	000f      	movs	r7, r1
 8005a60:	9b09      	ldr	r3, [sp, #36]	@ 0x24
 8005a62:	2b00      	cmp	r3, #0
 8005a64:	d00d      	beq.n	8005a82 <_strtod_l+0x662>
 8005a66:	236b      	movs	r3, #107	@ 0x6b
 8005a68:	007a      	lsls	r2, r7, #1
 8005a6a:	0d52      	lsrs	r2, r2, #21
 8005a6c:	0039      	movs	r1, r7
 8005a6e:	1a9b      	subs	r3, r3, r2
 8005a70:	2b00      	cmp	r3, #0
 8005a72:	dd06      	ble.n	8005a82 <_strtod_l+0x662>
 8005a74:	2b1f      	cmp	r3, #31
 8005a76:	dd5c      	ble.n	8005b32 <_strtod_l+0x712>
 8005a78:	2600      	movs	r6, #0
 8005a7a:	2b34      	cmp	r3, #52	@ 0x34
 8005a7c:	dd52      	ble.n	8005b24 <_strtod_l+0x704>
 8005a7e:	27dc      	movs	r7, #220	@ 0xdc
 8005a80:	04bf      	lsls	r7, r7, #18
 8005a82:	2200      	movs	r2, #0
 8005a84:	2300      	movs	r3, #0
 8005a86:	0030      	movs	r0, r6
 8005a88:	0039      	movs	r1, r7
 8005a8a:	f7fa fcdf 	bl	800044c <__aeabi_dcmpeq>
 8005a8e:	2800      	cmp	r0, #0
 8005a90:	d1a1      	bne.n	80059d6 <_strtod_l+0x5b6>
 8005a92:	9b0d      	ldr	r3, [sp, #52]	@ 0x34
 8005a94:	9a08      	ldr	r2, [sp, #32]
 8005a96:	9300      	str	r3, [sp, #0]
 8005a98:	9913      	ldr	r1, [sp, #76]	@ 0x4c
 8005a9a:	9b06      	ldr	r3, [sp, #24]
 8005a9c:	9805      	ldr	r0, [sp, #20]
 8005a9e:	f001 facf 	bl	8007040 <__s2b>
 8005aa2:	900d      	str	r0, [sp, #52]	@ 0x34
 8005aa4:	2800      	cmp	r0, #0
 8005aa6:	d100      	bne.n	8005aaa <_strtod_l+0x68a>
 8005aa8:	e6f9      	b.n	800589e <_strtod_l+0x47e>
 8005aaa:	9b0c      	ldr	r3, [sp, #48]	@ 0x30
 8005aac:	9907      	ldr	r1, [sp, #28]
 8005aae:	43db      	mvns	r3, r3
 8005ab0:	9a0e      	ldr	r2, [sp, #56]	@ 0x38
 8005ab2:	17db      	asrs	r3, r3, #31
 8005ab4:	1a52      	subs	r2, r2, r1
 8005ab6:	9214      	str	r2, [sp, #80]	@ 0x50
 8005ab8:	9a0c      	ldr	r2, [sp, #48]	@ 0x30
 8005aba:	9914      	ldr	r1, [sp, #80]	@ 0x50
 8005abc:	17d2      	asrs	r2, r2, #31
 8005abe:	4011      	ands	r1, r2
 8005ac0:	9a0c      	ldr	r2, [sp, #48]	@ 0x30
 8005ac2:	9114      	str	r1, [sp, #80]	@ 0x50
 8005ac4:	401a      	ands	r2, r3
 8005ac6:	2300      	movs	r3, #0
 8005ac8:	921a      	str	r2, [sp, #104]	@ 0x68
 8005aca:	9306      	str	r3, [sp, #24]
 8005acc:	9307      	str	r3, [sp, #28]
 8005ace:	9b0d      	ldr	r3, [sp, #52]	@ 0x34
 8005ad0:	9805      	ldr	r0, [sp, #20]
 8005ad2:	6859      	ldr	r1, [r3, #4]
 8005ad4:	f001 fa08 	bl	8006ee8 <_Balloc>
 8005ad8:	9008      	str	r0, [sp, #32]
 8005ada:	2800      	cmp	r0, #0
 8005adc:	d100      	bne.n	8005ae0 <_strtod_l+0x6c0>
 8005ade:	e6e3      	b.n	80058a8 <_strtod_l+0x488>
 8005ae0:	9b0d      	ldr	r3, [sp, #52]	@ 0x34
 8005ae2:	300c      	adds	r0, #12
 8005ae4:	0019      	movs	r1, r3
 8005ae6:	691a      	ldr	r2, [r3, #16]
 8005ae8:	310c      	adds	r1, #12
 8005aea:	3202      	adds	r2, #2
 8005aec:	0092      	lsls	r2, r2, #2
 8005aee:	f000 fd84 	bl	80065fa <memcpy>
 8005af2:	ab20      	add	r3, sp, #128	@ 0x80
 8005af4:	9301      	str	r3, [sp, #4]
 8005af6:	ab1f      	add	r3, sp, #124	@ 0x7c
 8005af8:	9300      	str	r3, [sp, #0]
 8005afa:	0032      	movs	r2, r6
 8005afc:	003b      	movs	r3, r7
 8005afe:	9805      	ldr	r0, [sp, #20]
 8005b00:	9610      	str	r6, [sp, #64]	@ 0x40
 8005b02:	9711      	str	r7, [sp, #68]	@ 0x44
 8005b04:	f001 fde4 	bl	80076d0 <__d2b>
 8005b08:	901e      	str	r0, [sp, #120]	@ 0x78
 8005b0a:	2800      	cmp	r0, #0
 8005b0c:	d100      	bne.n	8005b10 <_strtod_l+0x6f0>
 8005b0e:	e6cb      	b.n	80058a8 <_strtod_l+0x488>
 8005b10:	2101      	movs	r1, #1
 8005b12:	9805      	ldr	r0, [sp, #20]
 8005b14:	f001 fb30 	bl	8007178 <__i2b>
 8005b18:	9007      	str	r0, [sp, #28]
 8005b1a:	2800      	cmp	r0, #0
 8005b1c:	d10e      	bne.n	8005b3c <_strtod_l+0x71c>
 8005b1e:	2300      	movs	r3, #0
 8005b20:	9307      	str	r3, [sp, #28]
 8005b22:	e6c1      	b.n	80058a8 <_strtod_l+0x488>
 8005b24:	234b      	movs	r3, #75	@ 0x4b
 8005b26:	1a9a      	subs	r2, r3, r2
 8005b28:	3b4c      	subs	r3, #76	@ 0x4c
 8005b2a:	4093      	lsls	r3, r2
 8005b2c:	4019      	ands	r1, r3
 8005b2e:	000f      	movs	r7, r1
 8005b30:	e7a7      	b.n	8005a82 <_strtod_l+0x662>
 8005b32:	2201      	movs	r2, #1
 8005b34:	4252      	negs	r2, r2
 8005b36:	409a      	lsls	r2, r3
 8005b38:	4016      	ands	r6, r2
 8005b3a:	e7a2      	b.n	8005a82 <_strtod_l+0x662>
 8005b3c:	9b1f      	ldr	r3, [sp, #124]	@ 0x7c
 8005b3e:	9a1a      	ldr	r2, [sp, #104]	@ 0x68
 8005b40:	9d14      	ldr	r5, [sp, #80]	@ 0x50
 8005b42:	1ad4      	subs	r4, r2, r3
 8005b44:	2b00      	cmp	r3, #0
 8005b46:	db01      	blt.n	8005b4c <_strtod_l+0x72c>
 8005b48:	9c1a      	ldr	r4, [sp, #104]	@ 0x68
 8005b4a:	195d      	adds	r5, r3, r5
 8005b4c:	9909      	ldr	r1, [sp, #36]	@ 0x24
 8005b4e:	9a20      	ldr	r2, [sp, #128]	@ 0x80
 8005b50:	1a5b      	subs	r3, r3, r1
 8005b52:	2136      	movs	r1, #54	@ 0x36
 8005b54:	189b      	adds	r3, r3, r2
 8005b56:	1a8a      	subs	r2, r1, r2
 8005b58:	497a      	ldr	r1, [pc, #488]	@ (8005d44 <_strtod_l+0x924>)
 8005b5a:	2001      	movs	r0, #1
 8005b5c:	468c      	mov	ip, r1
 8005b5e:	2100      	movs	r1, #0
 8005b60:	3b01      	subs	r3, #1
 8005b62:	9115      	str	r1, [sp, #84]	@ 0x54
 8005b64:	9016      	str	r0, [sp, #88]	@ 0x58
 8005b66:	4563      	cmp	r3, ip
 8005b68:	da06      	bge.n	8005b78 <_strtod_l+0x758>
 8005b6a:	4661      	mov	r1, ip
 8005b6c:	1ac9      	subs	r1, r1, r3
 8005b6e:	1a52      	subs	r2, r2, r1
 8005b70:	291f      	cmp	r1, #31
 8005b72:	dc3f      	bgt.n	8005bf4 <_strtod_l+0x7d4>
 8005b74:	4088      	lsls	r0, r1
 8005b76:	9016      	str	r0, [sp, #88]	@ 0x58
 8005b78:	18ab      	adds	r3, r5, r2
 8005b7a:	930e      	str	r3, [sp, #56]	@ 0x38
 8005b7c:	18a4      	adds	r4, r4, r2
 8005b7e:	9b09      	ldr	r3, [sp, #36]	@ 0x24
 8005b80:	9a0e      	ldr	r2, [sp, #56]	@ 0x38
 8005b82:	191c      	adds	r4, r3, r4
 8005b84:	002b      	movs	r3, r5
 8005b86:	4295      	cmp	r5, r2
 8005b88:	dd00      	ble.n	8005b8c <_strtod_l+0x76c>
 8005b8a:	0013      	movs	r3, r2
 8005b8c:	42a3      	cmp	r3, r4
 8005b8e:	dd00      	ble.n	8005b92 <_strtod_l+0x772>
 8005b90:	0023      	movs	r3, r4
 8005b92:	2b00      	cmp	r3, #0
 8005b94:	dd04      	ble.n	8005ba0 <_strtod_l+0x780>
 8005b96:	9a0e      	ldr	r2, [sp, #56]	@ 0x38
 8005b98:	1ae4      	subs	r4, r4, r3
 8005b9a:	1ad2      	subs	r2, r2, r3
 8005b9c:	920e      	str	r2, [sp, #56]	@ 0x38
 8005b9e:	1aed      	subs	r5, r5, r3
 8005ba0:	9b14      	ldr	r3, [sp, #80]	@ 0x50
 8005ba2:	2b00      	cmp	r3, #0
 8005ba4:	dd16      	ble.n	8005bd4 <_strtod_l+0x7b4>
 8005ba6:	001a      	movs	r2, r3
 8005ba8:	9907      	ldr	r1, [sp, #28]
 8005baa:	9805      	ldr	r0, [sp, #20]
 8005bac:	f001 fba6 	bl	80072fc <__pow5mult>
 8005bb0:	9007      	str	r0, [sp, #28]
 8005bb2:	2800      	cmp	r0, #0
 8005bb4:	d0b3      	beq.n	8005b1e <_strtod_l+0x6fe>
 8005bb6:	0001      	movs	r1, r0
 8005bb8:	9a1e      	ldr	r2, [sp, #120]	@ 0x78
 8005bba:	9805      	ldr	r0, [sp, #20]
 8005bbc:	f001 faf4 	bl	80071a8 <__multiply>
 8005bc0:	9013      	str	r0, [sp, #76]	@ 0x4c
 8005bc2:	2800      	cmp	r0, #0
 8005bc4:	d100      	bne.n	8005bc8 <_strtod_l+0x7a8>
 8005bc6:	e66f      	b.n	80058a8 <_strtod_l+0x488>
 8005bc8:	991e      	ldr	r1, [sp, #120]	@ 0x78
 8005bca:	9805      	ldr	r0, [sp, #20]
 8005bcc:	f001 f9d0 	bl	8006f70 <_Bfree>
 8005bd0:	9b13      	ldr	r3, [sp, #76]	@ 0x4c
 8005bd2:	931e      	str	r3, [sp, #120]	@ 0x78
 8005bd4:	9b0e      	ldr	r3, [sp, #56]	@ 0x38
 8005bd6:	2b00      	cmp	r3, #0
 8005bd8:	dc12      	bgt.n	8005c00 <_strtod_l+0x7e0>
 8005bda:	9b0c      	ldr	r3, [sp, #48]	@ 0x30
 8005bdc:	2b00      	cmp	r3, #0
 8005bde:	dd18      	ble.n	8005c12 <_strtod_l+0x7f2>
 8005be0:	9a1a      	ldr	r2, [sp, #104]	@ 0x68
 8005be2:	9908      	ldr	r1, [sp, #32]
 8005be4:	9805      	ldr	r0, [sp, #20]
 8005be6:	f001 fb89 	bl	80072fc <__pow5mult>
 8005bea:	9008      	str	r0, [sp, #32]
 8005bec:	2800      	cmp	r0, #0
 8005bee:	d110      	bne.n	8005c12 <_strtod_l+0x7f2>
 8005bf0:	2300      	movs	r3, #0
 8005bf2:	e658      	b.n	80058a6 <_strtod_l+0x486>
 8005bf4:	4954      	ldr	r1, [pc, #336]	@ (8005d48 <_strtod_l+0x928>)
 8005bf6:	1acb      	subs	r3, r1, r3
 8005bf8:	0001      	movs	r1, r0
 8005bfa:	4099      	lsls	r1, r3
 8005bfc:	9115      	str	r1, [sp, #84]	@ 0x54
 8005bfe:	e7ba      	b.n	8005b76 <_strtod_l+0x756>
 8005c00:	9a0e      	ldr	r2, [sp, #56]	@ 0x38
 8005c02:	991e      	ldr	r1, [sp, #120]	@ 0x78
 8005c04:	9805      	ldr	r0, [sp, #20]
 8005c06:	f001 fbd5 	bl	80073b4 <__lshift>
 8005c0a:	901e      	str	r0, [sp, #120]	@ 0x78
 8005c0c:	2800      	cmp	r0, #0
 8005c0e:	d1e4      	bne.n	8005bda <_strtod_l+0x7ba>
 8005c10:	e64a      	b.n	80058a8 <_strtod_l+0x488>
 8005c12:	2c00      	cmp	r4, #0
 8005c14:	dd07      	ble.n	8005c26 <_strtod_l+0x806>
 8005c16:	0022      	movs	r2, r4
 8005c18:	9908      	ldr	r1, [sp, #32]
 8005c1a:	9805      	ldr	r0, [sp, #20]
 8005c1c:	f001 fbca 	bl	80073b4 <__lshift>
 8005c20:	9008      	str	r0, [sp, #32]
 8005c22:	2800      	cmp	r0, #0
 8005c24:	d0e4      	beq.n	8005bf0 <_strtod_l+0x7d0>
 8005c26:	2d00      	cmp	r5, #0
 8005c28:	dd08      	ble.n	8005c3c <_strtod_l+0x81c>
 8005c2a:	002a      	movs	r2, r5
 8005c2c:	9907      	ldr	r1, [sp, #28]
 8005c2e:	9805      	ldr	r0, [sp, #20]
 8005c30:	f001 fbc0 	bl	80073b4 <__lshift>
 8005c34:	9007      	str	r0, [sp, #28]
 8005c36:	2800      	cmp	r0, #0
 8005c38:	d100      	bne.n	8005c3c <_strtod_l+0x81c>
 8005c3a:	e635      	b.n	80058a8 <_strtod_l+0x488>
 8005c3c:	9a08      	ldr	r2, [sp, #32]
 8005c3e:	991e      	ldr	r1, [sp, #120]	@ 0x78
 8005c40:	9805      	ldr	r0, [sp, #20]
 8005c42:	f001 fc3f 	bl	80074c4 <__mdiff>
 8005c46:	9006      	str	r0, [sp, #24]
 8005c48:	2800      	cmp	r0, #0
 8005c4a:	d100      	bne.n	8005c4e <_strtod_l+0x82e>
 8005c4c:	e62c      	b.n	80058a8 <_strtod_l+0x488>
 8005c4e:	68c3      	ldr	r3, [r0, #12]
 8005c50:	9907      	ldr	r1, [sp, #28]
 8005c52:	9313      	str	r3, [sp, #76]	@ 0x4c
 8005c54:	2300      	movs	r3, #0
 8005c56:	60c3      	str	r3, [r0, #12]
 8005c58:	f001 fc18 	bl	800748c <__mcmp>
 8005c5c:	2800      	cmp	r0, #0
 8005c5e:	da3b      	bge.n	8005cd8 <_strtod_l+0x8b8>
 8005c60:	9b13      	ldr	r3, [sp, #76]	@ 0x4c
 8005c62:	4333      	orrs	r3, r6
 8005c64:	d167      	bne.n	8005d36 <_strtod_l+0x916>
 8005c66:	033b      	lsls	r3, r7, #12
 8005c68:	d165      	bne.n	8005d36 <_strtod_l+0x916>
 8005c6a:	22d6      	movs	r2, #214	@ 0xd6
 8005c6c:	4b37      	ldr	r3, [pc, #220]	@ (8005d4c <_strtod_l+0x92c>)
 8005c6e:	04d2      	lsls	r2, r2, #19
 8005c70:	403b      	ands	r3, r7
 8005c72:	4293      	cmp	r3, r2
 8005c74:	d95f      	bls.n	8005d36 <_strtod_l+0x916>
 8005c76:	9b06      	ldr	r3, [sp, #24]
 8005c78:	695b      	ldr	r3, [r3, #20]
 8005c7a:	2b00      	cmp	r3, #0
 8005c7c:	d103      	bne.n	8005c86 <_strtod_l+0x866>
 8005c7e:	9b06      	ldr	r3, [sp, #24]
 8005c80:	691b      	ldr	r3, [r3, #16]
 8005c82:	2b01      	cmp	r3, #1
 8005c84:	dd57      	ble.n	8005d36 <_strtod_l+0x916>
 8005c86:	9906      	ldr	r1, [sp, #24]
 8005c88:	2201      	movs	r2, #1
 8005c8a:	9805      	ldr	r0, [sp, #20]
 8005c8c:	f001 fb92 	bl	80073b4 <__lshift>
 8005c90:	9907      	ldr	r1, [sp, #28]
 8005c92:	9006      	str	r0, [sp, #24]
 8005c94:	f001 fbfa 	bl	800748c <__mcmp>
 8005c98:	2800      	cmp	r0, #0
 8005c9a:	dd4c      	ble.n	8005d36 <_strtod_l+0x916>
 8005c9c:	4b2b      	ldr	r3, [pc, #172]	@ (8005d4c <_strtod_l+0x92c>)
 8005c9e:	9a09      	ldr	r2, [sp, #36]	@ 0x24
 8005ca0:	403b      	ands	r3, r7
 8005ca2:	2a00      	cmp	r2, #0
 8005ca4:	d074      	beq.n	8005d90 <_strtod_l+0x970>
 8005ca6:	22d6      	movs	r2, #214	@ 0xd6
 8005ca8:	04d2      	lsls	r2, r2, #19
 8005caa:	4293      	cmp	r3, r2
 8005cac:	d870      	bhi.n	8005d90 <_strtod_l+0x970>
 8005cae:	22dc      	movs	r2, #220	@ 0xdc
 8005cb0:	0492      	lsls	r2, r2, #18
 8005cb2:	4293      	cmp	r3, r2
 8005cb4:	d800      	bhi.n	8005cb8 <_strtod_l+0x898>
 8005cb6:	e693      	b.n	80059e0 <_strtod_l+0x5c0>
 8005cb8:	0030      	movs	r0, r6
 8005cba:	0039      	movs	r1, r7
 8005cbc:	4b24      	ldr	r3, [pc, #144]	@ (8005d50 <_strtod_l+0x930>)
 8005cbe:	2200      	movs	r2, #0
 8005cc0:	f7fb fc60 	bl	8001584 <__aeabi_dmul>
 8005cc4:	4b21      	ldr	r3, [pc, #132]	@ (8005d4c <_strtod_l+0x92c>)
 8005cc6:	0006      	movs	r6, r0
 8005cc8:	000f      	movs	r7, r1
 8005cca:	420b      	tst	r3, r1
 8005ccc:	d000      	beq.n	8005cd0 <_strtod_l+0x8b0>
 8005cce:	e5f4      	b.n	80058ba <_strtod_l+0x49a>
 8005cd0:	2322      	movs	r3, #34	@ 0x22
 8005cd2:	9a05      	ldr	r2, [sp, #20]
 8005cd4:	6013      	str	r3, [r2, #0]
 8005cd6:	e5f0      	b.n	80058ba <_strtod_l+0x49a>
 8005cd8:	970e      	str	r7, [sp, #56]	@ 0x38
 8005cda:	2800      	cmp	r0, #0
 8005cdc:	d175      	bne.n	8005dca <_strtod_l+0x9aa>
 8005cde:	9a13      	ldr	r2, [sp, #76]	@ 0x4c
 8005ce0:	033b      	lsls	r3, r7, #12
 8005ce2:	0b1b      	lsrs	r3, r3, #12
 8005ce4:	2a00      	cmp	r2, #0
 8005ce6:	d039      	beq.n	8005d5c <_strtod_l+0x93c>
 8005ce8:	4a1a      	ldr	r2, [pc, #104]	@ (8005d54 <_strtod_l+0x934>)
 8005cea:	4293      	cmp	r3, r2
 8005cec:	d138      	bne.n	8005d60 <_strtod_l+0x940>
 8005cee:	2101      	movs	r1, #1
 8005cf0:	9b09      	ldr	r3, [sp, #36]	@ 0x24
 8005cf2:	4249      	negs	r1, r1
 8005cf4:	0032      	movs	r2, r6
 8005cf6:	0008      	movs	r0, r1
 8005cf8:	2b00      	cmp	r3, #0
 8005cfa:	d00b      	beq.n	8005d14 <_strtod_l+0x8f4>
 8005cfc:	24d4      	movs	r4, #212	@ 0xd4
 8005cfe:	4b13      	ldr	r3, [pc, #76]	@ (8005d4c <_strtod_l+0x92c>)
 8005d00:	0008      	movs	r0, r1
 8005d02:	403b      	ands	r3, r7
 8005d04:	04e4      	lsls	r4, r4, #19
 8005d06:	42a3      	cmp	r3, r4
 8005d08:	d804      	bhi.n	8005d14 <_strtod_l+0x8f4>
 8005d0a:	306c      	adds	r0, #108	@ 0x6c
 8005d0c:	0d1b      	lsrs	r3, r3, #20
 8005d0e:	1ac3      	subs	r3, r0, r3
 8005d10:	4099      	lsls	r1, r3
 8005d12:	0008      	movs	r0, r1
 8005d14:	4282      	cmp	r2, r0
 8005d16:	d123      	bne.n	8005d60 <_strtod_l+0x940>
 8005d18:	4b0f      	ldr	r3, [pc, #60]	@ (8005d58 <_strtod_l+0x938>)
 8005d1a:	990e      	ldr	r1, [sp, #56]	@ 0x38
 8005d1c:	4299      	cmp	r1, r3
 8005d1e:	d102      	bne.n	8005d26 <_strtod_l+0x906>
 8005d20:	3201      	adds	r2, #1
 8005d22:	d100      	bne.n	8005d26 <_strtod_l+0x906>
 8005d24:	e5c0      	b.n	80058a8 <_strtod_l+0x488>
 8005d26:	4b09      	ldr	r3, [pc, #36]	@ (8005d4c <_strtod_l+0x92c>)
 8005d28:	9a0e      	ldr	r2, [sp, #56]	@ 0x38
 8005d2a:	2600      	movs	r6, #0
 8005d2c:	401a      	ands	r2, r3
 8005d2e:	0013      	movs	r3, r2
 8005d30:	2280      	movs	r2, #128	@ 0x80
 8005d32:	0352      	lsls	r2, r2, #13
 8005d34:	189f      	adds	r7, r3, r2
 8005d36:	9b09      	ldr	r3, [sp, #36]	@ 0x24
 8005d38:	2b00      	cmp	r3, #0
 8005d3a:	d1bd      	bne.n	8005cb8 <_strtod_l+0x898>
 8005d3c:	e5bd      	b.n	80058ba <_strtod_l+0x49a>
 8005d3e:	46c0      	nop			@ (mov r8, r8)
 8005d40:	080087d8 	.word	0x080087d8
 8005d44:	fffffc02 	.word	0xfffffc02
 8005d48:	fffffbe2 	.word	0xfffffbe2
 8005d4c:	7ff00000 	.word	0x7ff00000
 8005d50:	39500000 	.word	0x39500000
 8005d54:	000fffff 	.word	0x000fffff
 8005d58:	7fefffff 	.word	0x7fefffff
 8005d5c:	4333      	orrs	r3, r6
 8005d5e:	d09d      	beq.n	8005c9c <_strtod_l+0x87c>
 8005d60:	9b15      	ldr	r3, [sp, #84]	@ 0x54
 8005d62:	2b00      	cmp	r3, #0
 8005d64:	d01c      	beq.n	8005da0 <_strtod_l+0x980>
 8005d66:	9b0e      	ldr	r3, [sp, #56]	@ 0x38
 8005d68:	9a15      	ldr	r2, [sp, #84]	@ 0x54
 8005d6a:	4213      	tst	r3, r2
 8005d6c:	d0e3      	beq.n	8005d36 <_strtod_l+0x916>
 8005d6e:	9b13      	ldr	r3, [sp, #76]	@ 0x4c
 8005d70:	0030      	movs	r0, r6
 8005d72:	0039      	movs	r1, r7
 8005d74:	9a09      	ldr	r2, [sp, #36]	@ 0x24
 8005d76:	2b00      	cmp	r3, #0
 8005d78:	d016      	beq.n	8005da8 <_strtod_l+0x988>
 8005d7a:	f7ff fb39 	bl	80053f0 <sulp>
 8005d7e:	0002      	movs	r2, r0
 8005d80:	000b      	movs	r3, r1
 8005d82:	9810      	ldr	r0, [sp, #64]	@ 0x40
 8005d84:	9911      	ldr	r1, [sp, #68]	@ 0x44
 8005d86:	f7fa fbfd 	bl	8000584 <__aeabi_dadd>
 8005d8a:	0006      	movs	r6, r0
 8005d8c:	000f      	movs	r7, r1
 8005d8e:	e7d2      	b.n	8005d36 <_strtod_l+0x916>
 8005d90:	2601      	movs	r6, #1
 8005d92:	4a92      	ldr	r2, [pc, #584]	@ (8005fdc <_strtod_l+0xbbc>)
 8005d94:	4276      	negs	r6, r6
 8005d96:	189b      	adds	r3, r3, r2
 8005d98:	4a91      	ldr	r2, [pc, #580]	@ (8005fe0 <_strtod_l+0xbc0>)
 8005d9a:	431a      	orrs	r2, r3
 8005d9c:	0017      	movs	r7, r2
 8005d9e:	e7ca      	b.n	8005d36 <_strtod_l+0x916>
 8005da0:	9b16      	ldr	r3, [sp, #88]	@ 0x58
 8005da2:	4233      	tst	r3, r6
 8005da4:	d0c7      	beq.n	8005d36 <_strtod_l+0x916>
 8005da6:	e7e2      	b.n	8005d6e <_strtod_l+0x94e>
 8005da8:	f7ff fb22 	bl	80053f0 <sulp>
 8005dac:	0002      	movs	r2, r0
 8005dae:	000b      	movs	r3, r1
 8005db0:	9810      	ldr	r0, [sp, #64]	@ 0x40
 8005db2:	9911      	ldr	r1, [sp, #68]	@ 0x44
 8005db4:	f7fb fecc 	bl	8001b50 <__aeabi_dsub>
 8005db8:	2200      	movs	r2, #0
 8005dba:	2300      	movs	r3, #0
 8005dbc:	0006      	movs	r6, r0
 8005dbe:	000f      	movs	r7, r1
 8005dc0:	f7fa fb44 	bl	800044c <__aeabi_dcmpeq>
 8005dc4:	2800      	cmp	r0, #0
 8005dc6:	d0b6      	beq.n	8005d36 <_strtod_l+0x916>
 8005dc8:	e60a      	b.n	80059e0 <_strtod_l+0x5c0>
 8005dca:	9907      	ldr	r1, [sp, #28]
 8005dcc:	9806      	ldr	r0, [sp, #24]
 8005dce:	f001 fcdf 	bl	8007790 <__ratio>
 8005dd2:	2380      	movs	r3, #128	@ 0x80
 8005dd4:	2200      	movs	r2, #0
 8005dd6:	05db      	lsls	r3, r3, #23
 8005dd8:	0004      	movs	r4, r0
 8005dda:	000d      	movs	r5, r1
 8005ddc:	f7fa fb46 	bl	800046c <__aeabi_dcmple>
 8005de0:	2800      	cmp	r0, #0
 8005de2:	d06c      	beq.n	8005ebe <_strtod_l+0xa9e>
 8005de4:	9b13      	ldr	r3, [sp, #76]	@ 0x4c
 8005de6:	2b00      	cmp	r3, #0
 8005de8:	d177      	bne.n	8005eda <_strtod_l+0xaba>
 8005dea:	2e00      	cmp	r6, #0
 8005dec:	d157      	bne.n	8005e9e <_strtod_l+0xa7e>
 8005dee:	9b0e      	ldr	r3, [sp, #56]	@ 0x38
 8005df0:	031b      	lsls	r3, r3, #12
 8005df2:	d15a      	bne.n	8005eaa <_strtod_l+0xa8a>
 8005df4:	2200      	movs	r2, #0
 8005df6:	0020      	movs	r0, r4
 8005df8:	0029      	movs	r1, r5
 8005dfa:	4b7a      	ldr	r3, [pc, #488]	@ (8005fe4 <_strtod_l+0xbc4>)
 8005dfc:	f7fa fb2c 	bl	8000458 <__aeabi_dcmplt>
 8005e00:	2800      	cmp	r0, #0
 8005e02:	d159      	bne.n	8005eb8 <_strtod_l+0xa98>
 8005e04:	0020      	movs	r0, r4
 8005e06:	0029      	movs	r1, r5
 8005e08:	2200      	movs	r2, #0
 8005e0a:	4b77      	ldr	r3, [pc, #476]	@ (8005fe8 <_strtod_l+0xbc8>)
 8005e0c:	f7fb fbba 	bl	8001584 <__aeabi_dmul>
 8005e10:	0004      	movs	r4, r0
 8005e12:	000d      	movs	r5, r1
 8005e14:	2380      	movs	r3, #128	@ 0x80
 8005e16:	061b      	lsls	r3, r3, #24
 8005e18:	18eb      	adds	r3, r5, r3
 8005e1a:	940a      	str	r4, [sp, #40]	@ 0x28
 8005e1c:	930b      	str	r3, [sp, #44]	@ 0x2c
 8005e1e:	9a0a      	ldr	r2, [sp, #40]	@ 0x28
 8005e20:	9b0b      	ldr	r3, [sp, #44]	@ 0x2c
 8005e22:	9216      	str	r2, [sp, #88]	@ 0x58
 8005e24:	9317      	str	r3, [sp, #92]	@ 0x5c
 8005e26:	4a71      	ldr	r2, [pc, #452]	@ (8005fec <_strtod_l+0xbcc>)
 8005e28:	9b0e      	ldr	r3, [sp, #56]	@ 0x38
 8005e2a:	4013      	ands	r3, r2
 8005e2c:	9315      	str	r3, [sp, #84]	@ 0x54
 8005e2e:	9a15      	ldr	r2, [sp, #84]	@ 0x54
 8005e30:	4b6f      	ldr	r3, [pc, #444]	@ (8005ff0 <_strtod_l+0xbd0>)
 8005e32:	429a      	cmp	r2, r3
 8005e34:	d000      	beq.n	8005e38 <_strtod_l+0xa18>
 8005e36:	e087      	b.n	8005f48 <_strtod_l+0xb28>
 8005e38:	4a6e      	ldr	r2, [pc, #440]	@ (8005ff4 <_strtod_l+0xbd4>)
 8005e3a:	9b0e      	ldr	r3, [sp, #56]	@ 0x38
 8005e3c:	4694      	mov	ip, r2
 8005e3e:	4463      	add	r3, ip
 8005e40:	001f      	movs	r7, r3
 8005e42:	0030      	movs	r0, r6
 8005e44:	0019      	movs	r1, r3
 8005e46:	f001 fbd7 	bl	80075f8 <__ulp>
 8005e4a:	9a0a      	ldr	r2, [sp, #40]	@ 0x28
 8005e4c:	9b0b      	ldr	r3, [sp, #44]	@ 0x2c
 8005e4e:	f7fb fb99 	bl	8001584 <__aeabi_dmul>
 8005e52:	0032      	movs	r2, r6
 8005e54:	003b      	movs	r3, r7
 8005e56:	f7fa fb95 	bl	8000584 <__aeabi_dadd>
 8005e5a:	4a64      	ldr	r2, [pc, #400]	@ (8005fec <_strtod_l+0xbcc>)
 8005e5c:	4b66      	ldr	r3, [pc, #408]	@ (8005ff8 <_strtod_l+0xbd8>)
 8005e5e:	0006      	movs	r6, r0
 8005e60:	400a      	ands	r2, r1
 8005e62:	429a      	cmp	r2, r3
 8005e64:	d940      	bls.n	8005ee8 <_strtod_l+0xac8>
 8005e66:	9b11      	ldr	r3, [sp, #68]	@ 0x44
 8005e68:	4a64      	ldr	r2, [pc, #400]	@ (8005ffc <_strtod_l+0xbdc>)
 8005e6a:	4293      	cmp	r3, r2
 8005e6c:	d103      	bne.n	8005e76 <_strtod_l+0xa56>
 8005e6e:	9b10      	ldr	r3, [sp, #64]	@ 0x40
 8005e70:	3301      	adds	r3, #1
 8005e72:	d100      	bne.n	8005e76 <_strtod_l+0xa56>
 8005e74:	e518      	b.n	80058a8 <_strtod_l+0x488>
 8005e76:	2601      	movs	r6, #1
 8005e78:	4f60      	ldr	r7, [pc, #384]	@ (8005ffc <_strtod_l+0xbdc>)
 8005e7a:	4276      	negs	r6, r6
 8005e7c:	991e      	ldr	r1, [sp, #120]	@ 0x78
 8005e7e:	9805      	ldr	r0, [sp, #20]
 8005e80:	f001 f876 	bl	8006f70 <_Bfree>
 8005e84:	9908      	ldr	r1, [sp, #32]
 8005e86:	9805      	ldr	r0, [sp, #20]
 8005e88:	f001 f872 	bl	8006f70 <_Bfree>
 8005e8c:	9907      	ldr	r1, [sp, #28]
 8005e8e:	9805      	ldr	r0, [sp, #20]
 8005e90:	f001 f86e 	bl	8006f70 <_Bfree>
 8005e94:	9906      	ldr	r1, [sp, #24]
 8005e96:	9805      	ldr	r0, [sp, #20]
 8005e98:	f001 f86a 	bl	8006f70 <_Bfree>
 8005e9c:	e617      	b.n	8005ace <_strtod_l+0x6ae>
 8005e9e:	2e01      	cmp	r6, #1
 8005ea0:	d103      	bne.n	8005eaa <_strtod_l+0xa8a>
 8005ea2:	9b0e      	ldr	r3, [sp, #56]	@ 0x38
 8005ea4:	2b00      	cmp	r3, #0
 8005ea6:	d100      	bne.n	8005eaa <_strtod_l+0xa8a>
 8005ea8:	e59a      	b.n	80059e0 <_strtod_l+0x5c0>
 8005eaa:	2300      	movs	r3, #0
 8005eac:	4c54      	ldr	r4, [pc, #336]	@ (8006000 <_strtod_l+0xbe0>)
 8005eae:	4d4d      	ldr	r5, [pc, #308]	@ (8005fe4 <_strtod_l+0xbc4>)
 8005eb0:	930a      	str	r3, [sp, #40]	@ 0x28
 8005eb2:	940b      	str	r4, [sp, #44]	@ 0x2c
 8005eb4:	2400      	movs	r4, #0
 8005eb6:	e7b2      	b.n	8005e1e <_strtod_l+0x9fe>
 8005eb8:	2400      	movs	r4, #0
 8005eba:	4d4b      	ldr	r5, [pc, #300]	@ (8005fe8 <_strtod_l+0xbc8>)
 8005ebc:	e7aa      	b.n	8005e14 <_strtod_l+0x9f4>
 8005ebe:	0020      	movs	r0, r4
 8005ec0:	0029      	movs	r1, r5
 8005ec2:	4b49      	ldr	r3, [pc, #292]	@ (8005fe8 <_strtod_l+0xbc8>)
 8005ec4:	2200      	movs	r2, #0
 8005ec6:	f7fb fb5d 	bl	8001584 <__aeabi_dmul>
 8005eca:	9b13      	ldr	r3, [sp, #76]	@ 0x4c
 8005ecc:	0004      	movs	r4, r0
 8005ece:	000d      	movs	r5, r1
 8005ed0:	2b00      	cmp	r3, #0
 8005ed2:	d09f      	beq.n	8005e14 <_strtod_l+0x9f4>
 8005ed4:	940a      	str	r4, [sp, #40]	@ 0x28
 8005ed6:	950b      	str	r5, [sp, #44]	@ 0x2c
 8005ed8:	e7a1      	b.n	8005e1e <_strtod_l+0x9fe>
 8005eda:	2300      	movs	r3, #0
 8005edc:	4c41      	ldr	r4, [pc, #260]	@ (8005fe4 <_strtod_l+0xbc4>)
 8005ede:	0025      	movs	r5, r4
 8005ee0:	930a      	str	r3, [sp, #40]	@ 0x28
 8005ee2:	940b      	str	r4, [sp, #44]	@ 0x2c
 8005ee4:	001c      	movs	r4, r3
 8005ee6:	e79a      	b.n	8005e1e <_strtod_l+0x9fe>
 8005ee8:	23d4      	movs	r3, #212	@ 0xd4
 8005eea:	049b      	lsls	r3, r3, #18
 8005eec:	18cf      	adds	r7, r1, r3
 8005eee:	9b09      	ldr	r3, [sp, #36]	@ 0x24
 8005ef0:	9710      	str	r7, [sp, #64]	@ 0x40
 8005ef2:	2b00      	cmp	r3, #0
 8005ef4:	d1c2      	bne.n	8005e7c <_strtod_l+0xa5c>
 8005ef6:	4b3d      	ldr	r3, [pc, #244]	@ (8005fec <_strtod_l+0xbcc>)
 8005ef8:	9a15      	ldr	r2, [sp, #84]	@ 0x54
 8005efa:	403b      	ands	r3, r7
 8005efc:	429a      	cmp	r2, r3
 8005efe:	d1bd      	bne.n	8005e7c <_strtod_l+0xa5c>
 8005f00:	0020      	movs	r0, r4
 8005f02:	0029      	movs	r1, r5
 8005f04:	f7fa faee 	bl	80004e4 <__aeabi_d2lz>
 8005f08:	f7fa fb26 	bl	8000558 <__aeabi_l2d>
 8005f0c:	0002      	movs	r2, r0
 8005f0e:	000b      	movs	r3, r1
 8005f10:	0020      	movs	r0, r4
 8005f12:	0029      	movs	r1, r5
 8005f14:	f7fb fe1c 	bl	8001b50 <__aeabi_dsub>
 8005f18:	033c      	lsls	r4, r7, #12
 8005f1a:	9b13      	ldr	r3, [sp, #76]	@ 0x4c
 8005f1c:	0b24      	lsrs	r4, r4, #12
 8005f1e:	4334      	orrs	r4, r6
 8005f20:	900e      	str	r0, [sp, #56]	@ 0x38
 8005f22:	910f      	str	r1, [sp, #60]	@ 0x3c
 8005f24:	4a37      	ldr	r2, [pc, #220]	@ (8006004 <_strtod_l+0xbe4>)
 8005f26:	431c      	orrs	r4, r3
 8005f28:	d052      	beq.n	8005fd0 <_strtod_l+0xbb0>
 8005f2a:	4b37      	ldr	r3, [pc, #220]	@ (8006008 <_strtod_l+0xbe8>)
 8005f2c:	f7fa fa94 	bl	8000458 <__aeabi_dcmplt>
 8005f30:	2800      	cmp	r0, #0
 8005f32:	d000      	beq.n	8005f36 <_strtod_l+0xb16>
 8005f34:	e4c1      	b.n	80058ba <_strtod_l+0x49a>
 8005f36:	980e      	ldr	r0, [sp, #56]	@ 0x38
 8005f38:	990f      	ldr	r1, [sp, #60]	@ 0x3c
 8005f3a:	4a34      	ldr	r2, [pc, #208]	@ (800600c <_strtod_l+0xbec>)
 8005f3c:	4b2a      	ldr	r3, [pc, #168]	@ (8005fe8 <_strtod_l+0xbc8>)
 8005f3e:	f7fa fa9f 	bl	8000480 <__aeabi_dcmpgt>
 8005f42:	2800      	cmp	r0, #0
 8005f44:	d09a      	beq.n	8005e7c <_strtod_l+0xa5c>
 8005f46:	e4b8      	b.n	80058ba <_strtod_l+0x49a>
 8005f48:	9b09      	ldr	r3, [sp, #36]	@ 0x24
 8005f4a:	2b00      	cmp	r3, #0
 8005f4c:	d02a      	beq.n	8005fa4 <_strtod_l+0xb84>
 8005f4e:	23d4      	movs	r3, #212	@ 0xd4
 8005f50:	9a15      	ldr	r2, [sp, #84]	@ 0x54
 8005f52:	04db      	lsls	r3, r3, #19
 8005f54:	429a      	cmp	r2, r3
 8005f56:	d825      	bhi.n	8005fa4 <_strtod_l+0xb84>
 8005f58:	0020      	movs	r0, r4
 8005f5a:	0029      	movs	r1, r5
 8005f5c:	4a2c      	ldr	r2, [pc, #176]	@ (8006010 <_strtod_l+0xbf0>)
 8005f5e:	4b2d      	ldr	r3, [pc, #180]	@ (8006014 <_strtod_l+0xbf4>)
 8005f60:	f7fa fa84 	bl	800046c <__aeabi_dcmple>
 8005f64:	2800      	cmp	r0, #0
 8005f66:	d016      	beq.n	8005f96 <_strtod_l+0xb76>
 8005f68:	0020      	movs	r0, r4
 8005f6a:	0029      	movs	r1, r5
 8005f6c:	f7fa fa9c 	bl	80004a8 <__aeabi_d2uiz>
 8005f70:	2800      	cmp	r0, #0
 8005f72:	d100      	bne.n	8005f76 <_strtod_l+0xb56>
 8005f74:	3001      	adds	r0, #1
 8005f76:	f7fc fa5f 	bl	8002438 <__aeabi_ui2d>
 8005f7a:	9b13      	ldr	r3, [sp, #76]	@ 0x4c
 8005f7c:	0004      	movs	r4, r0
 8005f7e:	000d      	movs	r5, r1
 8005f80:	2b00      	cmp	r3, #0
 8005f82:	d122      	bne.n	8005fca <_strtod_l+0xbaa>
 8005f84:	2380      	movs	r3, #128	@ 0x80
 8005f86:	061b      	lsls	r3, r3, #24
 8005f88:	18cb      	adds	r3, r1, r3
 8005f8a:	9018      	str	r0, [sp, #96]	@ 0x60
 8005f8c:	9319      	str	r3, [sp, #100]	@ 0x64
 8005f8e:	9a18      	ldr	r2, [sp, #96]	@ 0x60
 8005f90:	9b19      	ldr	r3, [sp, #100]	@ 0x64
 8005f92:	9216      	str	r2, [sp, #88]	@ 0x58
 8005f94:	9317      	str	r3, [sp, #92]	@ 0x5c
 8005f96:	22d6      	movs	r2, #214	@ 0xd6
 8005f98:	9b17      	ldr	r3, [sp, #92]	@ 0x5c
 8005f9a:	04d2      	lsls	r2, r2, #19
 8005f9c:	189b      	adds	r3, r3, r2
 8005f9e:	9a15      	ldr	r2, [sp, #84]	@ 0x54
 8005fa0:	1a9b      	subs	r3, r3, r2
 8005fa2:	9317      	str	r3, [sp, #92]	@ 0x5c
 8005fa4:	9810      	ldr	r0, [sp, #64]	@ 0x40
 8005fa6:	9911      	ldr	r1, [sp, #68]	@ 0x44
 8005fa8:	9e16      	ldr	r6, [sp, #88]	@ 0x58
 8005faa:	9f17      	ldr	r7, [sp, #92]	@ 0x5c
 8005fac:	f001 fb24 	bl	80075f8 <__ulp>
 8005fb0:	0002      	movs	r2, r0
 8005fb2:	000b      	movs	r3, r1
 8005fb4:	0030      	movs	r0, r6
 8005fb6:	0039      	movs	r1, r7
 8005fb8:	f7fb fae4 	bl	8001584 <__aeabi_dmul>
 8005fbc:	9a10      	ldr	r2, [sp, #64]	@ 0x40
 8005fbe:	9b11      	ldr	r3, [sp, #68]	@ 0x44
 8005fc0:	f7fa fae0 	bl	8000584 <__aeabi_dadd>
 8005fc4:	0006      	movs	r6, r0
 8005fc6:	000f      	movs	r7, r1
 8005fc8:	e791      	b.n	8005eee <_strtod_l+0xace>
 8005fca:	9418      	str	r4, [sp, #96]	@ 0x60
 8005fcc:	9519      	str	r5, [sp, #100]	@ 0x64
 8005fce:	e7de      	b.n	8005f8e <_strtod_l+0xb6e>
 8005fd0:	4b11      	ldr	r3, [pc, #68]	@ (8006018 <_strtod_l+0xbf8>)
 8005fd2:	980e      	ldr	r0, [sp, #56]	@ 0x38
 8005fd4:	990f      	ldr	r1, [sp, #60]	@ 0x3c
 8005fd6:	f7fa fa3f 	bl	8000458 <__aeabi_dcmplt>
 8005fda:	e7b2      	b.n	8005f42 <_strtod_l+0xb22>
 8005fdc:	fff00000 	.word	0xfff00000
 8005fe0:	000fffff 	.word	0x000fffff
 8005fe4:	3ff00000 	.word	0x3ff00000
 8005fe8:	3fe00000 	.word	0x3fe00000
 8005fec:	7ff00000 	.word	0x7ff00000
 8005ff0:	7fe00000 	.word	0x7fe00000
 8005ff4:	fcb00000 	.word	0xfcb00000
 8005ff8:	7c9fffff 	.word	0x7c9fffff
 8005ffc:	7fefffff 	.word	0x7fefffff
 8006000:	bff00000 	.word	0xbff00000
 8006004:	94a03595 	.word	0x94a03595
 8006008:	3fdfffff 	.word	0x3fdfffff
 800600c:	35afe535 	.word	0x35afe535
 8006010:	ffc00000 	.word	0xffc00000
 8006014:	41dfffff 	.word	0x41dfffff
 8006018:	3fcfffff 	.word	0x3fcfffff

0800601c <strtod>:
 800601c:	b510      	push	{r4, lr}
 800601e:	4c04      	ldr	r4, [pc, #16]	@ (8006030 <strtod+0x14>)
 8006020:	000a      	movs	r2, r1
 8006022:	0001      	movs	r1, r0
 8006024:	4b03      	ldr	r3, [pc, #12]	@ (8006034 <strtod+0x18>)
 8006026:	6820      	ldr	r0, [r4, #0]
 8006028:	f7ff f9fa 	bl	8005420 <_strtod_l>
 800602c:	bd10      	pop	{r4, pc}
 800602e:	46c0      	nop			@ (mov r8, r8)
 8006030:	20000194 	.word	0x20000194
 8006034:	20000028 	.word	0x20000028

08006038 <std>:
 8006038:	2300      	movs	r3, #0
 800603a:	b510      	push	{r4, lr}
 800603c:	0004      	movs	r4, r0
 800603e:	6003      	str	r3, [r0, #0]
 8006040:	6043      	str	r3, [r0, #4]
 8006042:	6083      	str	r3, [r0, #8]
 8006044:	8181      	strh	r1, [r0, #12]
 8006046:	6643      	str	r3, [r0, #100]	@ 0x64
 8006048:	81c2      	strh	r2, [r0, #14]
 800604a:	6103      	str	r3, [r0, #16]
 800604c:	6143      	str	r3, [r0, #20]
 800604e:	6183      	str	r3, [r0, #24]
 8006050:	0019      	movs	r1, r3
 8006052:	2208      	movs	r2, #8
 8006054:	305c      	adds	r0, #92	@ 0x5c
 8006056:	f000 fa0f 	bl	8006478 <memset>
 800605a:	4b0b      	ldr	r3, [pc, #44]	@ (8006088 <std+0x50>)
 800605c:	6224      	str	r4, [r4, #32]
 800605e:	6263      	str	r3, [r4, #36]	@ 0x24
 8006060:	4b0a      	ldr	r3, [pc, #40]	@ (800608c <std+0x54>)
 8006062:	62a3      	str	r3, [r4, #40]	@ 0x28
 8006064:	4b0a      	ldr	r3, [pc, #40]	@ (8006090 <std+0x58>)
 8006066:	62e3      	str	r3, [r4, #44]	@ 0x2c
 8006068:	4b0a      	ldr	r3, [pc, #40]	@ (8006094 <std+0x5c>)
 800606a:	6323      	str	r3, [r4, #48]	@ 0x30
 800606c:	4b0a      	ldr	r3, [pc, #40]	@ (8006098 <std+0x60>)
 800606e:	429c      	cmp	r4, r3
 8006070:	d005      	beq.n	800607e <std+0x46>
 8006072:	4b0a      	ldr	r3, [pc, #40]	@ (800609c <std+0x64>)
 8006074:	429c      	cmp	r4, r3
 8006076:	d002      	beq.n	800607e <std+0x46>
 8006078:	4b09      	ldr	r3, [pc, #36]	@ (80060a0 <std+0x68>)
 800607a:	429c      	cmp	r4, r3
 800607c:	d103      	bne.n	8006086 <std+0x4e>
 800607e:	0020      	movs	r0, r4
 8006080:	3058      	adds	r0, #88	@ 0x58
 8006082:	f000 faaf 	bl	80065e4 <__retarget_lock_init_recursive>
 8006086:	bd10      	pop	{r4, pc}
 8006088:	080062a1 	.word	0x080062a1
 800608c:	080062c9 	.word	0x080062c9
 8006090:	08006301 	.word	0x08006301
 8006094:	0800632d 	.word	0x0800632d
 8006098:	200004c0 	.word	0x200004c0
 800609c:	20000528 	.word	0x20000528
 80060a0:	20000590 	.word	0x20000590

080060a4 <stdio_exit_handler>:
 80060a4:	b510      	push	{r4, lr}
 80060a6:	4a03      	ldr	r2, [pc, #12]	@ (80060b4 <stdio_exit_handler+0x10>)
 80060a8:	4903      	ldr	r1, [pc, #12]	@ (80060b8 <stdio_exit_handler+0x14>)
 80060aa:	4804      	ldr	r0, [pc, #16]	@ (80060bc <stdio_exit_handler+0x18>)
 80060ac:	f000 f86c 	bl	8006188 <_fwalk_sglue>
 80060b0:	bd10      	pop	{r4, pc}
 80060b2:	46c0      	nop			@ (mov r8, r8)
 80060b4:	2000001c 	.word	0x2000001c
 80060b8:	08007f11 	.word	0x08007f11
 80060bc:	20000198 	.word	0x20000198

080060c0 <cleanup_stdio>:
 80060c0:	6841      	ldr	r1, [r0, #4]
 80060c2:	4b0b      	ldr	r3, [pc, #44]	@ (80060f0 <cleanup_stdio+0x30>)
 80060c4:	b510      	push	{r4, lr}
 80060c6:	0004      	movs	r4, r0
 80060c8:	4299      	cmp	r1, r3
 80060ca:	d001      	beq.n	80060d0 <cleanup_stdio+0x10>
 80060cc:	f001 ff20 	bl	8007f10 <_fflush_r>
 80060d0:	68a1      	ldr	r1, [r4, #8]
 80060d2:	4b08      	ldr	r3, [pc, #32]	@ (80060f4 <cleanup_stdio+0x34>)
 80060d4:	4299      	cmp	r1, r3
 80060d6:	d002      	beq.n	80060de <cleanup_stdio+0x1e>
 80060d8:	0020      	movs	r0, r4
 80060da:	f001 ff19 	bl	8007f10 <_fflush_r>
 80060de:	68e1      	ldr	r1, [r4, #12]
 80060e0:	4b05      	ldr	r3, [pc, #20]	@ (80060f8 <cleanup_stdio+0x38>)
 80060e2:	4299      	cmp	r1, r3
 80060e4:	d002      	beq.n	80060ec <cleanup_stdio+0x2c>
 80060e6:	0020      	movs	r0, r4
 80060e8:	f001 ff12 	bl	8007f10 <_fflush_r>
 80060ec:	bd10      	pop	{r4, pc}
 80060ee:	46c0      	nop			@ (mov r8, r8)
 80060f0:	200004c0 	.word	0x200004c0
 80060f4:	20000528 	.word	0x20000528
 80060f8:	20000590 	.word	0x20000590

080060fc <global_stdio_init.part.0>:
 80060fc:	b510      	push	{r4, lr}
 80060fe:	4b09      	ldr	r3, [pc, #36]	@ (8006124 <global_stdio_init.part.0+0x28>)
 8006100:	4a09      	ldr	r2, [pc, #36]	@ (8006128 <global_stdio_init.part.0+0x2c>)
 8006102:	2104      	movs	r1, #4
 8006104:	601a      	str	r2, [r3, #0]
 8006106:	4809      	ldr	r0, [pc, #36]	@ (800612c <global_stdio_init.part.0+0x30>)
 8006108:	2200      	movs	r2, #0
 800610a:	f7ff ff95 	bl	8006038 <std>
 800610e:	2201      	movs	r2, #1
 8006110:	2109      	movs	r1, #9
 8006112:	4807      	ldr	r0, [pc, #28]	@ (8006130 <global_stdio_init.part.0+0x34>)
 8006114:	f7ff ff90 	bl	8006038 <std>
 8006118:	2202      	movs	r2, #2
 800611a:	2112      	movs	r1, #18
 800611c:	4805      	ldr	r0, [pc, #20]	@ (8006134 <global_stdio_init.part.0+0x38>)
 800611e:	f7ff ff8b 	bl	8006038 <std>
 8006122:	bd10      	pop	{r4, pc}
 8006124:	200005f8 	.word	0x200005f8
 8006128:	080060a5 	.word	0x080060a5
 800612c:	200004c0 	.word	0x200004c0
 8006130:	20000528 	.word	0x20000528
 8006134:	20000590 	.word	0x20000590

08006138 <__sfp_lock_acquire>:
 8006138:	b510      	push	{r4, lr}
 800613a:	4802      	ldr	r0, [pc, #8]	@ (8006144 <__sfp_lock_acquire+0xc>)
 800613c:	f000 fa53 	bl	80065e6 <__retarget_lock_acquire_recursive>
 8006140:	bd10      	pop	{r4, pc}
 8006142:	46c0      	nop			@ (mov r8, r8)
 8006144:	20000601 	.word	0x20000601

08006148 <__sfp_lock_release>:
 8006148:	b510      	push	{r4, lr}
 800614a:	4802      	ldr	r0, [pc, #8]	@ (8006154 <__sfp_lock_release+0xc>)
 800614c:	f000 fa4c 	bl	80065e8 <__retarget_lock_release_recursive>
 8006150:	bd10      	pop	{r4, pc}
 8006152:	46c0      	nop			@ (mov r8, r8)
 8006154:	20000601 	.word	0x20000601

08006158 <__sinit>:
 8006158:	b510      	push	{r4, lr}
 800615a:	0004      	movs	r4, r0
 800615c:	f7ff ffec 	bl	8006138 <__sfp_lock_acquire>
 8006160:	6a23      	ldr	r3, [r4, #32]
 8006162:	2b00      	cmp	r3, #0
 8006164:	d002      	beq.n	800616c <__sinit+0x14>
 8006166:	f7ff ffef 	bl	8006148 <__sfp_lock_release>
 800616a:	bd10      	pop	{r4, pc}
 800616c:	4b04      	ldr	r3, [pc, #16]	@ (8006180 <__sinit+0x28>)
 800616e:	6223      	str	r3, [r4, #32]
 8006170:	4b04      	ldr	r3, [pc, #16]	@ (8006184 <__sinit+0x2c>)
 8006172:	681b      	ldr	r3, [r3, #0]
 8006174:	2b00      	cmp	r3, #0
 8006176:	d1f6      	bne.n	8006166 <__sinit+0xe>
 8006178:	f7ff ffc0 	bl	80060fc <global_stdio_init.part.0>
 800617c:	e7f3      	b.n	8006166 <__sinit+0xe>
 800617e:	46c0      	nop			@ (mov r8, r8)
 8006180:	080060c1 	.word	0x080060c1
 8006184:	200005f8 	.word	0x200005f8

08006188 <_fwalk_sglue>:
 8006188:	b5f7      	push	{r0, r1, r2, r4, r5, r6, r7, lr}
 800618a:	0014      	movs	r4, r2
 800618c:	2600      	movs	r6, #0
 800618e:	9000      	str	r0, [sp, #0]
 8006190:	9101      	str	r1, [sp, #4]
 8006192:	68a5      	ldr	r5, [r4, #8]
 8006194:	6867      	ldr	r7, [r4, #4]
 8006196:	3f01      	subs	r7, #1
 8006198:	d504      	bpl.n	80061a4 <_fwalk_sglue+0x1c>
 800619a:	6824      	ldr	r4, [r4, #0]
 800619c:	2c00      	cmp	r4, #0
 800619e:	d1f8      	bne.n	8006192 <_fwalk_sglue+0xa>
 80061a0:	0030      	movs	r0, r6
 80061a2:	bdfe      	pop	{r1, r2, r3, r4, r5, r6, r7, pc}
 80061a4:	89ab      	ldrh	r3, [r5, #12]
 80061a6:	2b01      	cmp	r3, #1
 80061a8:	d908      	bls.n	80061bc <_fwalk_sglue+0x34>
 80061aa:	220e      	movs	r2, #14
 80061ac:	5eab      	ldrsh	r3, [r5, r2]
 80061ae:	3301      	adds	r3, #1
 80061b0:	d004      	beq.n	80061bc <_fwalk_sglue+0x34>
 80061b2:	0029      	movs	r1, r5
 80061b4:	9800      	ldr	r0, [sp, #0]
 80061b6:	9b01      	ldr	r3, [sp, #4]
 80061b8:	4798      	blx	r3
 80061ba:	4306      	orrs	r6, r0
 80061bc:	3568      	adds	r5, #104	@ 0x68
 80061be:	e7ea      	b.n	8006196 <_fwalk_sglue+0xe>

080061c0 <iprintf>:
 80061c0:	b40f      	push	{r0, r1, r2, r3}
 80061c2:	b507      	push	{r0, r1, r2, lr}
 80061c4:	4905      	ldr	r1, [pc, #20]	@ (80061dc <iprintf+0x1c>)
 80061c6:	ab04      	add	r3, sp, #16
 80061c8:	6808      	ldr	r0, [r1, #0]
 80061ca:	cb04      	ldmia	r3!, {r2}
 80061cc:	6881      	ldr	r1, [r0, #8]
 80061ce:	9301      	str	r3, [sp, #4]
 80061d0:	f001 fb80 	bl	80078d4 <_vfiprintf_r>
 80061d4:	b003      	add	sp, #12
 80061d6:	bc08      	pop	{r3}
 80061d8:	b004      	add	sp, #16
 80061da:	4718      	bx	r3
 80061dc:	20000194 	.word	0x20000194

080061e0 <_puts_r>:
 80061e0:	6a03      	ldr	r3, [r0, #32]
 80061e2:	b570      	push	{r4, r5, r6, lr}
 80061e4:	0005      	movs	r5, r0
 80061e6:	000e      	movs	r6, r1
 80061e8:	6884      	ldr	r4, [r0, #8]
 80061ea:	2b00      	cmp	r3, #0
 80061ec:	d101      	bne.n	80061f2 <_puts_r+0x12>
 80061ee:	f7ff ffb3 	bl	8006158 <__sinit>
 80061f2:	6e63      	ldr	r3, [r4, #100]	@ 0x64
 80061f4:	07db      	lsls	r3, r3, #31
 80061f6:	d405      	bmi.n	8006204 <_puts_r+0x24>
 80061f8:	89a3      	ldrh	r3, [r4, #12]
 80061fa:	059b      	lsls	r3, r3, #22
 80061fc:	d402      	bmi.n	8006204 <_puts_r+0x24>
 80061fe:	6da0      	ldr	r0, [r4, #88]	@ 0x58
 8006200:	f000 f9f1 	bl	80065e6 <__retarget_lock_acquire_recursive>
 8006204:	89a3      	ldrh	r3, [r4, #12]
 8006206:	071b      	lsls	r3, r3, #28
 8006208:	d502      	bpl.n	8006210 <_puts_r+0x30>
 800620a:	6923      	ldr	r3, [r4, #16]
 800620c:	2b00      	cmp	r3, #0
 800620e:	d11f      	bne.n	8006250 <_puts_r+0x70>
 8006210:	0021      	movs	r1, r4
 8006212:	0028      	movs	r0, r5
 8006214:	f000 f8d2 	bl	80063bc <__swsetup_r>
 8006218:	2800      	cmp	r0, #0
 800621a:	d019      	beq.n	8006250 <_puts_r+0x70>
 800621c:	2501      	movs	r5, #1
 800621e:	426d      	negs	r5, r5
 8006220:	6e63      	ldr	r3, [r4, #100]	@ 0x64
 8006222:	07db      	lsls	r3, r3, #31
 8006224:	d405      	bmi.n	8006232 <_puts_r+0x52>
 8006226:	89a3      	ldrh	r3, [r4, #12]
 8006228:	059b      	lsls	r3, r3, #22
 800622a:	d402      	bmi.n	8006232 <_puts_r+0x52>
 800622c:	6da0      	ldr	r0, [r4, #88]	@ 0x58
 800622e:	f000 f9db 	bl	80065e8 <__retarget_lock_release_recursive>
 8006232:	0028      	movs	r0, r5
 8006234:	bd70      	pop	{r4, r5, r6, pc}
 8006236:	3601      	adds	r6, #1
 8006238:	60a3      	str	r3, [r4, #8]
 800623a:	2b00      	cmp	r3, #0
 800623c:	da04      	bge.n	8006248 <_puts_r+0x68>
 800623e:	69a2      	ldr	r2, [r4, #24]
 8006240:	429a      	cmp	r2, r3
 8006242:	dc16      	bgt.n	8006272 <_puts_r+0x92>
 8006244:	290a      	cmp	r1, #10
 8006246:	d014      	beq.n	8006272 <_puts_r+0x92>
 8006248:	6823      	ldr	r3, [r4, #0]
 800624a:	1c5a      	adds	r2, r3, #1
 800624c:	6022      	str	r2, [r4, #0]
 800624e:	7019      	strb	r1, [r3, #0]
 8006250:	68a3      	ldr	r3, [r4, #8]
 8006252:	7831      	ldrb	r1, [r6, #0]
 8006254:	3b01      	subs	r3, #1
 8006256:	2900      	cmp	r1, #0
 8006258:	d1ed      	bne.n	8006236 <_puts_r+0x56>
 800625a:	60a3      	str	r3, [r4, #8]
 800625c:	2b00      	cmp	r3, #0
 800625e:	da0f      	bge.n	8006280 <_puts_r+0xa0>
 8006260:	0022      	movs	r2, r4
 8006262:	0028      	movs	r0, r5
 8006264:	310a      	adds	r1, #10
 8006266:	f000 f867 	bl	8006338 <__swbuf_r>
 800626a:	3001      	adds	r0, #1
 800626c:	d0d6      	beq.n	800621c <_puts_r+0x3c>
 800626e:	250a      	movs	r5, #10
 8006270:	e7d6      	b.n	8006220 <_puts_r+0x40>
 8006272:	0022      	movs	r2, r4
 8006274:	0028      	movs	r0, r5
 8006276:	f000 f85f 	bl	8006338 <__swbuf_r>
 800627a:	3001      	adds	r0, #1
 800627c:	d1e8      	bne.n	8006250 <_puts_r+0x70>
 800627e:	e7cd      	b.n	800621c <_puts_r+0x3c>
 8006280:	6823      	ldr	r3, [r4, #0]
 8006282:	1c5a      	adds	r2, r3, #1
 8006284:	6022      	str	r2, [r4, #0]
 8006286:	220a      	movs	r2, #10
 8006288:	701a      	strb	r2, [r3, #0]
 800628a:	e7f0      	b.n	800626e <_puts_r+0x8e>

0800628c <puts>:
 800628c:	b510      	push	{r4, lr}
 800628e:	4b03      	ldr	r3, [pc, #12]	@ (800629c <puts+0x10>)
 8006290:	0001      	movs	r1, r0
 8006292:	6818      	ldr	r0, [r3, #0]
 8006294:	f7ff ffa4 	bl	80061e0 <_puts_r>
 8006298:	bd10      	pop	{r4, pc}
 800629a:	46c0      	nop			@ (mov r8, r8)
 800629c:	20000194 	.word	0x20000194

080062a0 <__sread>:
 80062a0:	b570      	push	{r4, r5, r6, lr}
 80062a2:	000c      	movs	r4, r1
 80062a4:	250e      	movs	r5, #14
 80062a6:	5f49      	ldrsh	r1, [r1, r5]
 80062a8:	f000 f94a 	bl	8006540 <_read_r>
 80062ac:	2800      	cmp	r0, #0
 80062ae:	db03      	blt.n	80062b8 <__sread+0x18>
 80062b0:	6d63      	ldr	r3, [r4, #84]	@ 0x54
 80062b2:	181b      	adds	r3, r3, r0
 80062b4:	6563      	str	r3, [r4, #84]	@ 0x54
 80062b6:	bd70      	pop	{r4, r5, r6, pc}
 80062b8:	89a3      	ldrh	r3, [r4, #12]
 80062ba:	4a02      	ldr	r2, [pc, #8]	@ (80062c4 <__sread+0x24>)
 80062bc:	4013      	ands	r3, r2
 80062be:	81a3      	strh	r3, [r4, #12]
 80062c0:	e7f9      	b.n	80062b6 <__sread+0x16>
 80062c2:	46c0      	nop			@ (mov r8, r8)
 80062c4:	ffffefff 	.word	0xffffefff

080062c8 <__swrite>:
 80062c8:	b5f8      	push	{r3, r4, r5, r6, r7, lr}
 80062ca:	001f      	movs	r7, r3
 80062cc:	898b      	ldrh	r3, [r1, #12]
 80062ce:	0005      	movs	r5, r0
 80062d0:	000c      	movs	r4, r1
 80062d2:	0016      	movs	r6, r2
 80062d4:	05db      	lsls	r3, r3, #23
 80062d6:	d505      	bpl.n	80062e4 <__swrite+0x1c>
 80062d8:	230e      	movs	r3, #14
 80062da:	5ec9      	ldrsh	r1, [r1, r3]
 80062dc:	2200      	movs	r2, #0
 80062de:	2302      	movs	r3, #2
 80062e0:	f000 f91a 	bl	8006518 <_lseek_r>
 80062e4:	89a3      	ldrh	r3, [r4, #12]
 80062e6:	4a05      	ldr	r2, [pc, #20]	@ (80062fc <__swrite+0x34>)
 80062e8:	0028      	movs	r0, r5
 80062ea:	4013      	ands	r3, r2
 80062ec:	81a3      	strh	r3, [r4, #12]
 80062ee:	0032      	movs	r2, r6
 80062f0:	230e      	movs	r3, #14
 80062f2:	5ee1      	ldrsh	r1, [r4, r3]
 80062f4:	003b      	movs	r3, r7
 80062f6:	f000 f937 	bl	8006568 <_write_r>
 80062fa:	bdf8      	pop	{r3, r4, r5, r6, r7, pc}
 80062fc:	ffffefff 	.word	0xffffefff

08006300 <__sseek>:
 8006300:	b570      	push	{r4, r5, r6, lr}
 8006302:	000c      	movs	r4, r1
 8006304:	250e      	movs	r5, #14
 8006306:	5f49      	ldrsh	r1, [r1, r5]
 8006308:	f000 f906 	bl	8006518 <_lseek_r>
 800630c:	89a3      	ldrh	r3, [r4, #12]
 800630e:	1c42      	adds	r2, r0, #1
 8006310:	d103      	bne.n	800631a <__sseek+0x1a>
 8006312:	4a05      	ldr	r2, [pc, #20]	@ (8006328 <__sseek+0x28>)
 8006314:	4013      	ands	r3, r2
 8006316:	81a3      	strh	r3, [r4, #12]
 8006318:	bd70      	pop	{r4, r5, r6, pc}
 800631a:	2280      	movs	r2, #128	@ 0x80
 800631c:	0152      	lsls	r2, r2, #5
 800631e:	4313      	orrs	r3, r2
 8006320:	81a3      	strh	r3, [r4, #12]
 8006322:	6560      	str	r0, [r4, #84]	@ 0x54
 8006324:	e7f8      	b.n	8006318 <__sseek+0x18>
 8006326:	46c0      	nop			@ (mov r8, r8)
 8006328:	ffffefff 	.word	0xffffefff

0800632c <__sclose>:
 800632c:	b510      	push	{r4, lr}
 800632e:	230e      	movs	r3, #14
 8006330:	5ec9      	ldrsh	r1, [r1, r3]
 8006332:	f000 f8df 	bl	80064f4 <_close_r>
 8006336:	bd10      	pop	{r4, pc}

08006338 <__swbuf_r>:
 8006338:	b5f8      	push	{r3, r4, r5, r6, r7, lr}
 800633a:	0006      	movs	r6, r0
 800633c:	000d      	movs	r5, r1
 800633e:	0014      	movs	r4, r2
 8006340:	2800      	cmp	r0, #0
 8006342:	d004      	beq.n	800634e <__swbuf_r+0x16>
 8006344:	6a03      	ldr	r3, [r0, #32]
 8006346:	2b00      	cmp	r3, #0
 8006348:	d101      	bne.n	800634e <__swbuf_r+0x16>
 800634a:	f7ff ff05 	bl	8006158 <__sinit>
 800634e:	69a3      	ldr	r3, [r4, #24]
 8006350:	60a3      	str	r3, [r4, #8]
 8006352:	89a3      	ldrh	r3, [r4, #12]
 8006354:	071b      	lsls	r3, r3, #28
 8006356:	d502      	bpl.n	800635e <__swbuf_r+0x26>
 8006358:	6923      	ldr	r3, [r4, #16]
 800635a:	2b00      	cmp	r3, #0
 800635c:	d109      	bne.n	8006372 <__swbuf_r+0x3a>
 800635e:	0021      	movs	r1, r4
 8006360:	0030      	movs	r0, r6
 8006362:	f000 f82b 	bl	80063bc <__swsetup_r>
 8006366:	2800      	cmp	r0, #0
 8006368:	d003      	beq.n	8006372 <__swbuf_r+0x3a>
 800636a:	2501      	movs	r5, #1
 800636c:	426d      	negs	r5, r5
 800636e:	0028      	movs	r0, r5
 8006370:	bdf8      	pop	{r3, r4, r5, r6, r7, pc}
 8006372:	6923      	ldr	r3, [r4, #16]
 8006374:	6820      	ldr	r0, [r4, #0]
 8006376:	b2ef      	uxtb	r7, r5
 8006378:	1ac0      	subs	r0, r0, r3
 800637a:	6963      	ldr	r3, [r4, #20]
 800637c:	b2ed      	uxtb	r5, r5
 800637e:	4283      	cmp	r3, r0
 8006380:	dc05      	bgt.n	800638e <__swbuf_r+0x56>
 8006382:	0021      	movs	r1, r4
 8006384:	0030      	movs	r0, r6
 8006386:	f001 fdc3 	bl	8007f10 <_fflush_r>
 800638a:	2800      	cmp	r0, #0
 800638c:	d1ed      	bne.n	800636a <__swbuf_r+0x32>
 800638e:	68a3      	ldr	r3, [r4, #8]
 8006390:	3001      	adds	r0, #1
 8006392:	3b01      	subs	r3, #1
 8006394:	60a3      	str	r3, [r4, #8]
 8006396:	6823      	ldr	r3, [r4, #0]
 8006398:	1c5a      	adds	r2, r3, #1
 800639a:	6022      	str	r2, [r4, #0]
 800639c:	701f      	strb	r7, [r3, #0]
 800639e:	6963      	ldr	r3, [r4, #20]
 80063a0:	4283      	cmp	r3, r0
 80063a2:	d004      	beq.n	80063ae <__swbuf_r+0x76>
 80063a4:	89a3      	ldrh	r3, [r4, #12]
 80063a6:	07db      	lsls	r3, r3, #31
 80063a8:	d5e1      	bpl.n	800636e <__swbuf_r+0x36>
 80063aa:	2d0a      	cmp	r5, #10
 80063ac:	d1df      	bne.n	800636e <__swbuf_r+0x36>
 80063ae:	0021      	movs	r1, r4
 80063b0:	0030      	movs	r0, r6
 80063b2:	f001 fdad 	bl	8007f10 <_fflush_r>
 80063b6:	2800      	cmp	r0, #0
 80063b8:	d0d9      	beq.n	800636e <__swbuf_r+0x36>
 80063ba:	e7d6      	b.n	800636a <__swbuf_r+0x32>

080063bc <__swsetup_r>:
 80063bc:	4b2d      	ldr	r3, [pc, #180]	@ (8006474 <__swsetup_r+0xb8>)
 80063be:	b570      	push	{r4, r5, r6, lr}
 80063c0:	0005      	movs	r5, r0
 80063c2:	6818      	ldr	r0, [r3, #0]
 80063c4:	000c      	movs	r4, r1
 80063c6:	2800      	cmp	r0, #0
 80063c8:	d004      	beq.n	80063d4 <__swsetup_r+0x18>
 80063ca:	6a03      	ldr	r3, [r0, #32]
 80063cc:	2b00      	cmp	r3, #0
 80063ce:	d101      	bne.n	80063d4 <__swsetup_r+0x18>
 80063d0:	f7ff fec2 	bl	8006158 <__sinit>
 80063d4:	220c      	movs	r2, #12
 80063d6:	5ea3      	ldrsh	r3, [r4, r2]
 80063d8:	071a      	lsls	r2, r3, #28
 80063da:	d423      	bmi.n	8006424 <__swsetup_r+0x68>
 80063dc:	06da      	lsls	r2, r3, #27
 80063de:	d407      	bmi.n	80063f0 <__swsetup_r+0x34>
 80063e0:	2209      	movs	r2, #9
 80063e2:	602a      	str	r2, [r5, #0]
 80063e4:	2240      	movs	r2, #64	@ 0x40
 80063e6:	2001      	movs	r0, #1
 80063e8:	4313      	orrs	r3, r2
 80063ea:	81a3      	strh	r3, [r4, #12]
 80063ec:	4240      	negs	r0, r0
 80063ee:	e03a      	b.n	8006466 <__swsetup_r+0xaa>
 80063f0:	075b      	lsls	r3, r3, #29
 80063f2:	d513      	bpl.n	800641c <__swsetup_r+0x60>
 80063f4:	6b61      	ldr	r1, [r4, #52]	@ 0x34
 80063f6:	2900      	cmp	r1, #0
 80063f8:	d008      	beq.n	800640c <__swsetup_r+0x50>
 80063fa:	0023      	movs	r3, r4
 80063fc:	3344      	adds	r3, #68	@ 0x44
 80063fe:	4299      	cmp	r1, r3
 8006400:	d002      	beq.n	8006408 <__swsetup_r+0x4c>
 8006402:	0028      	movs	r0, r5
 8006404:	f000 f908 	bl	8006618 <_free_r>
 8006408:	2300      	movs	r3, #0
 800640a:	6363      	str	r3, [r4, #52]	@ 0x34
 800640c:	2224      	movs	r2, #36	@ 0x24
 800640e:	89a3      	ldrh	r3, [r4, #12]
 8006410:	4393      	bics	r3, r2
 8006412:	81a3      	strh	r3, [r4, #12]
 8006414:	2300      	movs	r3, #0
 8006416:	6063      	str	r3, [r4, #4]
 8006418:	6923      	ldr	r3, [r4, #16]
 800641a:	6023      	str	r3, [r4, #0]
 800641c:	2308      	movs	r3, #8
 800641e:	89a2      	ldrh	r2, [r4, #12]
 8006420:	4313      	orrs	r3, r2
 8006422:	81a3      	strh	r3, [r4, #12]
 8006424:	6923      	ldr	r3, [r4, #16]
 8006426:	2b00      	cmp	r3, #0
 8006428:	d10b      	bne.n	8006442 <__swsetup_r+0x86>
 800642a:	21a0      	movs	r1, #160	@ 0xa0
 800642c:	2280      	movs	r2, #128	@ 0x80
 800642e:	89a3      	ldrh	r3, [r4, #12]
 8006430:	0089      	lsls	r1, r1, #2
 8006432:	0092      	lsls	r2, r2, #2
 8006434:	400b      	ands	r3, r1
 8006436:	4293      	cmp	r3, r2
 8006438:	d003      	beq.n	8006442 <__swsetup_r+0x86>
 800643a:	0021      	movs	r1, r4
 800643c:	0028      	movs	r0, r5
 800643e:	f001 fdbd 	bl	8007fbc <__smakebuf_r>
 8006442:	220c      	movs	r2, #12
 8006444:	5ea3      	ldrsh	r3, [r4, r2]
 8006446:	2101      	movs	r1, #1
 8006448:	001a      	movs	r2, r3
 800644a:	400a      	ands	r2, r1
 800644c:	420b      	tst	r3, r1
 800644e:	d00b      	beq.n	8006468 <__swsetup_r+0xac>
 8006450:	2200      	movs	r2, #0
 8006452:	60a2      	str	r2, [r4, #8]
 8006454:	6962      	ldr	r2, [r4, #20]
 8006456:	4252      	negs	r2, r2
 8006458:	61a2      	str	r2, [r4, #24]
 800645a:	2000      	movs	r0, #0
 800645c:	6922      	ldr	r2, [r4, #16]
 800645e:	4282      	cmp	r2, r0
 8006460:	d101      	bne.n	8006466 <__swsetup_r+0xaa>
 8006462:	061a      	lsls	r2, r3, #24
 8006464:	d4be      	bmi.n	80063e4 <__swsetup_r+0x28>
 8006466:	bd70      	pop	{r4, r5, r6, pc}
 8006468:	0799      	lsls	r1, r3, #30
 800646a:	d400      	bmi.n	800646e <__swsetup_r+0xb2>
 800646c:	6962      	ldr	r2, [r4, #20]
 800646e:	60a2      	str	r2, [r4, #8]
 8006470:	e7f3      	b.n	800645a <__swsetup_r+0x9e>
 8006472:	46c0      	nop			@ (mov r8, r8)
 8006474:	20000194 	.word	0x20000194

08006478 <memset>:
 8006478:	0003      	movs	r3, r0
 800647a:	1882      	adds	r2, r0, r2
 800647c:	4293      	cmp	r3, r2
 800647e:	d100      	bne.n	8006482 <memset+0xa>
 8006480:	4770      	bx	lr
 8006482:	7019      	strb	r1, [r3, #0]
 8006484:	3301      	adds	r3, #1
 8006486:	e7f9      	b.n	800647c <memset+0x4>

08006488 <strchr>:
 8006488:	b2c9      	uxtb	r1, r1
 800648a:	7803      	ldrb	r3, [r0, #0]
 800648c:	2b00      	cmp	r3, #0
 800648e:	d004      	beq.n	800649a <strchr+0x12>
 8006490:	428b      	cmp	r3, r1
 8006492:	d100      	bne.n	8006496 <strchr+0xe>
 8006494:	4770      	bx	lr
 8006496:	3001      	adds	r0, #1
 8006498:	e7f7      	b.n	800648a <strchr+0x2>
 800649a:	424b      	negs	r3, r1
 800649c:	4159      	adcs	r1, r3
 800649e:	4249      	negs	r1, r1
 80064a0:	4008      	ands	r0, r1
 80064a2:	e7f7      	b.n	8006494 <strchr+0xc>

080064a4 <strncmp>:
 80064a4:	b530      	push	{r4, r5, lr}
 80064a6:	0005      	movs	r5, r0
 80064a8:	1e10      	subs	r0, r2, #0
 80064aa:	d00b      	beq.n	80064c4 <strncmp+0x20>
 80064ac:	2400      	movs	r4, #0
 80064ae:	3a01      	subs	r2, #1
 80064b0:	5d2b      	ldrb	r3, [r5, r4]
 80064b2:	5d08      	ldrb	r0, [r1, r4]
 80064b4:	4283      	cmp	r3, r0
 80064b6:	d104      	bne.n	80064c2 <strncmp+0x1e>
 80064b8:	4294      	cmp	r4, r2
 80064ba:	d002      	beq.n	80064c2 <strncmp+0x1e>
 80064bc:	3401      	adds	r4, #1
 80064be:	2b00      	cmp	r3, #0
 80064c0:	d1f6      	bne.n	80064b0 <strncmp+0xc>
 80064c2:	1a18      	subs	r0, r3, r0
 80064c4:	bd30      	pop	{r4, r5, pc}

080064c6 <strstr>:
 80064c6:	780a      	ldrb	r2, [r1, #0]
 80064c8:	b530      	push	{r4, r5, lr}
 80064ca:	2a00      	cmp	r2, #0
 80064cc:	d10c      	bne.n	80064e8 <strstr+0x22>
 80064ce:	bd30      	pop	{r4, r5, pc}
 80064d0:	429a      	cmp	r2, r3
 80064d2:	d108      	bne.n	80064e6 <strstr+0x20>
 80064d4:	2301      	movs	r3, #1
 80064d6:	5ccc      	ldrb	r4, [r1, r3]
 80064d8:	2c00      	cmp	r4, #0
 80064da:	d0f8      	beq.n	80064ce <strstr+0x8>
 80064dc:	5cc5      	ldrb	r5, [r0, r3]
 80064de:	42a5      	cmp	r5, r4
 80064e0:	d101      	bne.n	80064e6 <strstr+0x20>
 80064e2:	3301      	adds	r3, #1
 80064e4:	e7f7      	b.n	80064d6 <strstr+0x10>
 80064e6:	3001      	adds	r0, #1
 80064e8:	7803      	ldrb	r3, [r0, #0]
 80064ea:	2b00      	cmp	r3, #0
 80064ec:	d1f0      	bne.n	80064d0 <strstr+0xa>
 80064ee:	0018      	movs	r0, r3
 80064f0:	e7ed      	b.n	80064ce <strstr+0x8>
	...

080064f4 <_close_r>:
 80064f4:	2300      	movs	r3, #0
 80064f6:	b570      	push	{r4, r5, r6, lr}
 80064f8:	4d06      	ldr	r5, [pc, #24]	@ (8006514 <_close_r+0x20>)
 80064fa:	0004      	movs	r4, r0
 80064fc:	0008      	movs	r0, r1
 80064fe:	602b      	str	r3, [r5, #0]
 8006500:	f001 fe96 	bl	8008230 <_close>
 8006504:	1c43      	adds	r3, r0, #1
 8006506:	d103      	bne.n	8006510 <_close_r+0x1c>
 8006508:	682b      	ldr	r3, [r5, #0]
 800650a:	2b00      	cmp	r3, #0
 800650c:	d000      	beq.n	8006510 <_close_r+0x1c>
 800650e:	6023      	str	r3, [r4, #0]
 8006510:	bd70      	pop	{r4, r5, r6, pc}
 8006512:	46c0      	nop			@ (mov r8, r8)
 8006514:	200005fc 	.word	0x200005fc

08006518 <_lseek_r>:
 8006518:	b570      	push	{r4, r5, r6, lr}
 800651a:	0004      	movs	r4, r0
 800651c:	0008      	movs	r0, r1
 800651e:	0011      	movs	r1, r2
 8006520:	001a      	movs	r2, r3
 8006522:	2300      	movs	r3, #0
 8006524:	4d05      	ldr	r5, [pc, #20]	@ (800653c <_lseek_r+0x24>)
 8006526:	602b      	str	r3, [r5, #0]
 8006528:	f001 feaa 	bl	8008280 <_lseek>
 800652c:	1c43      	adds	r3, r0, #1
 800652e:	d103      	bne.n	8006538 <_lseek_r+0x20>
 8006530:	682b      	ldr	r3, [r5, #0]
 8006532:	2b00      	cmp	r3, #0
 8006534:	d000      	beq.n	8006538 <_lseek_r+0x20>
 8006536:	6023      	str	r3, [r4, #0]
 8006538:	bd70      	pop	{r4, r5, r6, pc}
 800653a:	46c0      	nop			@ (mov r8, r8)
 800653c:	200005fc 	.word	0x200005fc

08006540 <_read_r>:
 8006540:	b570      	push	{r4, r5, r6, lr}
 8006542:	0004      	movs	r4, r0
 8006544:	0008      	movs	r0, r1
 8006546:	0011      	movs	r1, r2
 8006548:	001a      	movs	r2, r3
 800654a:	2300      	movs	r3, #0
 800654c:	4d05      	ldr	r5, [pc, #20]	@ (8006564 <_read_r+0x24>)
 800654e:	602b      	str	r3, [r5, #0]
 8006550:	f001 fe9e 	bl	8008290 <_read>
 8006554:	1c43      	adds	r3, r0, #1
 8006556:	d103      	bne.n	8006560 <_read_r+0x20>
 8006558:	682b      	ldr	r3, [r5, #0]
 800655a:	2b00      	cmp	r3, #0
 800655c:	d000      	beq.n	8006560 <_read_r+0x20>
 800655e:	6023      	str	r3, [r4, #0]
 8006560:	bd70      	pop	{r4, r5, r6, pc}
 8006562:	46c0      	nop			@ (mov r8, r8)
 8006564:	200005fc 	.word	0x200005fc

08006568 <_write_r>:
 8006568:	b570      	push	{r4, r5, r6, lr}
 800656a:	0004      	movs	r4, r0
 800656c:	0008      	movs	r0, r1
 800656e:	0011      	movs	r1, r2
 8006570:	001a      	movs	r2, r3
 8006572:	2300      	movs	r3, #0
 8006574:	4d05      	ldr	r5, [pc, #20]	@ (800658c <_write_r+0x24>)
 8006576:	602b      	str	r3, [r5, #0]
 8006578:	f7fc fc14 	bl	8002da4 <_write>
 800657c:	1c43      	adds	r3, r0, #1
 800657e:	d103      	bne.n	8006588 <_write_r+0x20>
 8006580:	682b      	ldr	r3, [r5, #0]
 8006582:	2b00      	cmp	r3, #0
 8006584:	d000      	beq.n	8006588 <_write_r+0x20>
 8006586:	6023      	str	r3, [r4, #0]
 8006588:	bd70      	pop	{r4, r5, r6, pc}
 800658a:	46c0      	nop			@ (mov r8, r8)
 800658c:	200005fc 	.word	0x200005fc

08006590 <__errno>:
 8006590:	4b01      	ldr	r3, [pc, #4]	@ (8006598 <__errno+0x8>)
 8006592:	6818      	ldr	r0, [r3, #0]
 8006594:	4770      	bx	lr
 8006596:	46c0      	nop			@ (mov r8, r8)
 8006598:	20000194 	.word	0x20000194

0800659c <__libc_init_array>:
 800659c:	b570      	push	{r4, r5, r6, lr}
 800659e:	2600      	movs	r6, #0
 80065a0:	4c0c      	ldr	r4, [pc, #48]	@ (80065d4 <__libc_init_array+0x38>)
 80065a2:	4d0d      	ldr	r5, [pc, #52]	@ (80065d8 <__libc_init_array+0x3c>)
 80065a4:	1b64      	subs	r4, r4, r5
 80065a6:	10a4      	asrs	r4, r4, #2
 80065a8:	42a6      	cmp	r6, r4
 80065aa:	d109      	bne.n	80065c0 <__libc_init_array+0x24>
 80065ac:	2600      	movs	r6, #0
 80065ae:	f001 fe89 	bl	80082c4 <_init>
 80065b2:	4c0a      	ldr	r4, [pc, #40]	@ (80065dc <__libc_init_array+0x40>)
 80065b4:	4d0a      	ldr	r5, [pc, #40]	@ (80065e0 <__libc_init_array+0x44>)
 80065b6:	1b64      	subs	r4, r4, r5
 80065b8:	10a4      	asrs	r4, r4, #2
 80065ba:	42a6      	cmp	r6, r4
 80065bc:	d105      	bne.n	80065ca <__libc_init_array+0x2e>
 80065be:	bd70      	pop	{r4, r5, r6, pc}
 80065c0:	00b3      	lsls	r3, r6, #2
 80065c2:	58eb      	ldr	r3, [r5, r3]
 80065c4:	4798      	blx	r3
 80065c6:	3601      	adds	r6, #1
 80065c8:	e7ee      	b.n	80065a8 <__libc_init_array+0xc>
 80065ca:	00b3      	lsls	r3, r6, #2
 80065cc:	58eb      	ldr	r3, [r5, r3]
 80065ce:	4798      	blx	r3
 80065d0:	3601      	adds	r6, #1
 80065d2:	e7f2      	b.n	80065ba <__libc_init_array+0x1e>
 80065d4:	08008a04 	.word	0x08008a04
 80065d8:	08008a04 	.word	0x08008a04
 80065dc:	08008a08 	.word	0x08008a08
 80065e0:	08008a04 	.word	0x08008a04

080065e4 <__retarget_lock_init_recursive>:
 80065e4:	4770      	bx	lr

080065e6 <__retarget_lock_acquire_recursive>:
 80065e6:	4770      	bx	lr

080065e8 <__retarget_lock_release_recursive>:
 80065e8:	4770      	bx	lr

080065ea <strcpy>:
 80065ea:	0003      	movs	r3, r0
 80065ec:	780a      	ldrb	r2, [r1, #0]
 80065ee:	3101      	adds	r1, #1
 80065f0:	701a      	strb	r2, [r3, #0]
 80065f2:	3301      	adds	r3, #1
 80065f4:	2a00      	cmp	r2, #0
 80065f6:	d1f9      	bne.n	80065ec <strcpy+0x2>
 80065f8:	4770      	bx	lr

080065fa <memcpy>:
 80065fa:	2300      	movs	r3, #0
 80065fc:	b510      	push	{r4, lr}
 80065fe:	429a      	cmp	r2, r3
 8006600:	d100      	bne.n	8006604 <memcpy+0xa>
 8006602:	bd10      	pop	{r4, pc}
 8006604:	5ccc      	ldrb	r4, [r1, r3]
 8006606:	54c4      	strb	r4, [r0, r3]
 8006608:	3301      	adds	r3, #1
 800660a:	e7f8      	b.n	80065fe <memcpy+0x4>

0800660c <nan>:
 800660c:	2000      	movs	r0, #0
 800660e:	4901      	ldr	r1, [pc, #4]	@ (8006614 <nan+0x8>)
 8006610:	4770      	bx	lr
 8006612:	46c0      	nop			@ (mov r8, r8)
 8006614:	7ff80000 	.word	0x7ff80000

08006618 <_free_r>:
 8006618:	b570      	push	{r4, r5, r6, lr}
 800661a:	0005      	movs	r5, r0
 800661c:	1e0c      	subs	r4, r1, #0
 800661e:	d010      	beq.n	8006642 <_free_r+0x2a>
 8006620:	3c04      	subs	r4, #4
 8006622:	6823      	ldr	r3, [r4, #0]
 8006624:	2b00      	cmp	r3, #0
 8006626:	da00      	bge.n	800662a <_free_r+0x12>
 8006628:	18e4      	adds	r4, r4, r3
 800662a:	0028      	movs	r0, r5
 800662c:	f000 fc4c 	bl	8006ec8 <__malloc_lock>
 8006630:	4a1d      	ldr	r2, [pc, #116]	@ (80066a8 <_free_r+0x90>)
 8006632:	6813      	ldr	r3, [r2, #0]
 8006634:	2b00      	cmp	r3, #0
 8006636:	d105      	bne.n	8006644 <_free_r+0x2c>
 8006638:	6063      	str	r3, [r4, #4]
 800663a:	6014      	str	r4, [r2, #0]
 800663c:	0028      	movs	r0, r5
 800663e:	f000 fc4b 	bl	8006ed8 <__malloc_unlock>
 8006642:	bd70      	pop	{r4, r5, r6, pc}
 8006644:	42a3      	cmp	r3, r4
 8006646:	d908      	bls.n	800665a <_free_r+0x42>
 8006648:	6820      	ldr	r0, [r4, #0]
 800664a:	1821      	adds	r1, r4, r0
 800664c:	428b      	cmp	r3, r1
 800664e:	d1f3      	bne.n	8006638 <_free_r+0x20>
 8006650:	6819      	ldr	r1, [r3, #0]
 8006652:	685b      	ldr	r3, [r3, #4]
 8006654:	1809      	adds	r1, r1, r0
 8006656:	6021      	str	r1, [r4, #0]
 8006658:	e7ee      	b.n	8006638 <_free_r+0x20>
 800665a:	001a      	movs	r2, r3
 800665c:	685b      	ldr	r3, [r3, #4]
 800665e:	2b00      	cmp	r3, #0
 8006660:	d001      	beq.n	8006666 <_free_r+0x4e>
 8006662:	42a3      	cmp	r3, r4
 8006664:	d9f9      	bls.n	800665a <_free_r+0x42>
 8006666:	6811      	ldr	r1, [r2, #0]
 8006668:	1850      	adds	r0, r2, r1
 800666a:	42a0      	cmp	r0, r4
 800666c:	d10b      	bne.n	8006686 <_free_r+0x6e>
 800666e:	6820      	ldr	r0, [r4, #0]
 8006670:	1809      	adds	r1, r1, r0
 8006672:	1850      	adds	r0, r2, r1
 8006674:	6011      	str	r1, [r2, #0]
 8006676:	4283      	cmp	r3, r0
 8006678:	d1e0      	bne.n	800663c <_free_r+0x24>
 800667a:	6818      	ldr	r0, [r3, #0]
 800667c:	685b      	ldr	r3, [r3, #4]
 800667e:	1841      	adds	r1, r0, r1
 8006680:	6011      	str	r1, [r2, #0]
 8006682:	6053      	str	r3, [r2, #4]
 8006684:	e7da      	b.n	800663c <_free_r+0x24>
 8006686:	42a0      	cmp	r0, r4
 8006688:	d902      	bls.n	8006690 <_free_r+0x78>
 800668a:	230c      	movs	r3, #12
 800668c:	602b      	str	r3, [r5, #0]
 800668e:	e7d5      	b.n	800663c <_free_r+0x24>
 8006690:	6820      	ldr	r0, [r4, #0]
 8006692:	1821      	adds	r1, r4, r0
 8006694:	428b      	cmp	r3, r1
 8006696:	d103      	bne.n	80066a0 <_free_r+0x88>
 8006698:	6819      	ldr	r1, [r3, #0]
 800669a:	685b      	ldr	r3, [r3, #4]
 800669c:	1809      	adds	r1, r1, r0
 800669e:	6021      	str	r1, [r4, #0]
 80066a0:	6063      	str	r3, [r4, #4]
 80066a2:	6054      	str	r4, [r2, #4]
 80066a4:	e7ca      	b.n	800663c <_free_r+0x24>
 80066a6:	46c0      	nop			@ (mov r8, r8)
 80066a8:	20000608 	.word	0x20000608

080066ac <rshift>:
 80066ac:	0002      	movs	r2, r0
 80066ae:	b5f0      	push	{r4, r5, r6, r7, lr}
 80066b0:	6904      	ldr	r4, [r0, #16]
 80066b2:	b085      	sub	sp, #20
 80066b4:	3214      	adds	r2, #20
 80066b6:	114b      	asrs	r3, r1, #5
 80066b8:	0016      	movs	r6, r2
 80066ba:	9302      	str	r3, [sp, #8]
 80066bc:	429c      	cmp	r4, r3
 80066be:	dd31      	ble.n	8006724 <rshift+0x78>
 80066c0:	261f      	movs	r6, #31
 80066c2:	000f      	movs	r7, r1
 80066c4:	009b      	lsls	r3, r3, #2
 80066c6:	00a5      	lsls	r5, r4, #2
 80066c8:	18d3      	adds	r3, r2, r3
 80066ca:	4037      	ands	r7, r6
 80066cc:	1955      	adds	r5, r2, r5
 80066ce:	9300      	str	r3, [sp, #0]
 80066d0:	9701      	str	r7, [sp, #4]
 80066d2:	4231      	tst	r1, r6
 80066d4:	d10d      	bne.n	80066f2 <rshift+0x46>
 80066d6:	0016      	movs	r6, r2
 80066d8:	0019      	movs	r1, r3
 80066da:	428d      	cmp	r5, r1
 80066dc:	d836      	bhi.n	800674c <rshift+0xa0>
 80066de:	9b00      	ldr	r3, [sp, #0]
 80066e0:	2600      	movs	r6, #0
 80066e2:	3b03      	subs	r3, #3
 80066e4:	429d      	cmp	r5, r3
 80066e6:	d302      	bcc.n	80066ee <rshift+0x42>
 80066e8:	9b02      	ldr	r3, [sp, #8]
 80066ea:	1ae4      	subs	r4, r4, r3
 80066ec:	00a6      	lsls	r6, r4, #2
 80066ee:	1996      	adds	r6, r2, r6
 80066f0:	e018      	b.n	8006724 <rshift+0x78>
 80066f2:	2120      	movs	r1, #32
 80066f4:	9e01      	ldr	r6, [sp, #4]
 80066f6:	9f01      	ldr	r7, [sp, #4]
 80066f8:	1b89      	subs	r1, r1, r6
 80066fa:	9e00      	ldr	r6, [sp, #0]
 80066fc:	9103      	str	r1, [sp, #12]
 80066fe:	ce02      	ldmia	r6!, {r1}
 8006700:	4694      	mov	ip, r2
 8006702:	40f9      	lsrs	r1, r7
 8006704:	42b5      	cmp	r5, r6
 8006706:	d816      	bhi.n	8006736 <rshift+0x8a>
 8006708:	9b00      	ldr	r3, [sp, #0]
 800670a:	2600      	movs	r6, #0
 800670c:	3301      	adds	r3, #1
 800670e:	429d      	cmp	r5, r3
 8006710:	d303      	bcc.n	800671a <rshift+0x6e>
 8006712:	9b02      	ldr	r3, [sp, #8]
 8006714:	1ae4      	subs	r4, r4, r3
 8006716:	00a6      	lsls	r6, r4, #2
 8006718:	3e04      	subs	r6, #4
 800671a:	1996      	adds	r6, r2, r6
 800671c:	6031      	str	r1, [r6, #0]
 800671e:	2900      	cmp	r1, #0
 8006720:	d000      	beq.n	8006724 <rshift+0x78>
 8006722:	3604      	adds	r6, #4
 8006724:	1ab1      	subs	r1, r6, r2
 8006726:	1089      	asrs	r1, r1, #2
 8006728:	6101      	str	r1, [r0, #16]
 800672a:	4296      	cmp	r6, r2
 800672c:	d101      	bne.n	8006732 <rshift+0x86>
 800672e:	2300      	movs	r3, #0
 8006730:	6143      	str	r3, [r0, #20]
 8006732:	b005      	add	sp, #20
 8006734:	bdf0      	pop	{r4, r5, r6, r7, pc}
 8006736:	6837      	ldr	r7, [r6, #0]
 8006738:	9b03      	ldr	r3, [sp, #12]
 800673a:	409f      	lsls	r7, r3
 800673c:	430f      	orrs	r7, r1
 800673e:	4661      	mov	r1, ip
 8006740:	c180      	stmia	r1!, {r7}
 8006742:	468c      	mov	ip, r1
 8006744:	9b01      	ldr	r3, [sp, #4]
 8006746:	ce02      	ldmia	r6!, {r1}
 8006748:	40d9      	lsrs	r1, r3
 800674a:	e7db      	b.n	8006704 <rshift+0x58>
 800674c:	c980      	ldmia	r1!, {r7}
 800674e:	c680      	stmia	r6!, {r7}
 8006750:	e7c3      	b.n	80066da <rshift+0x2e>

08006752 <__hexdig_fun>:
 8006752:	0002      	movs	r2, r0
 8006754:	3a30      	subs	r2, #48	@ 0x30
 8006756:	0003      	movs	r3, r0
 8006758:	2a09      	cmp	r2, #9
 800675a:	d802      	bhi.n	8006762 <__hexdig_fun+0x10>
 800675c:	3b20      	subs	r3, #32
 800675e:	b2d8      	uxtb	r0, r3
 8006760:	4770      	bx	lr
 8006762:	0002      	movs	r2, r0
 8006764:	3a61      	subs	r2, #97	@ 0x61
 8006766:	2a05      	cmp	r2, #5
 8006768:	d801      	bhi.n	800676e <__hexdig_fun+0x1c>
 800676a:	3b47      	subs	r3, #71	@ 0x47
 800676c:	e7f7      	b.n	800675e <__hexdig_fun+0xc>
 800676e:	001a      	movs	r2, r3
 8006770:	3a41      	subs	r2, #65	@ 0x41
 8006772:	2000      	movs	r0, #0
 8006774:	2a05      	cmp	r2, #5
 8006776:	d8f3      	bhi.n	8006760 <__hexdig_fun+0xe>
 8006778:	3b27      	subs	r3, #39	@ 0x27
 800677a:	e7f0      	b.n	800675e <__hexdig_fun+0xc>

0800677c <__gethex>:
 800677c:	b5f0      	push	{r4, r5, r6, r7, lr}
 800677e:	b089      	sub	sp, #36	@ 0x24
 8006780:	9307      	str	r3, [sp, #28]
 8006782:	680b      	ldr	r3, [r1, #0]
 8006784:	9201      	str	r2, [sp, #4]
 8006786:	9003      	str	r0, [sp, #12]
 8006788:	9106      	str	r1, [sp, #24]
 800678a:	1c9a      	adds	r2, r3, #2
 800678c:	0011      	movs	r1, r2
 800678e:	3201      	adds	r2, #1
 8006790:	1e50      	subs	r0, r2, #1
 8006792:	7800      	ldrb	r0, [r0, #0]
 8006794:	2830      	cmp	r0, #48	@ 0x30
 8006796:	d0f9      	beq.n	800678c <__gethex+0x10>
 8006798:	1acb      	subs	r3, r1, r3
 800679a:	3b02      	subs	r3, #2
 800679c:	9305      	str	r3, [sp, #20]
 800679e:	9100      	str	r1, [sp, #0]
 80067a0:	f7ff ffd7 	bl	8006752 <__hexdig_fun>
 80067a4:	2300      	movs	r3, #0
 80067a6:	001d      	movs	r5, r3
 80067a8:	9302      	str	r3, [sp, #8]
 80067aa:	4298      	cmp	r0, r3
 80067ac:	d11e      	bne.n	80067ec <__gethex+0x70>
 80067ae:	2201      	movs	r2, #1
 80067b0:	49a6      	ldr	r1, [pc, #664]	@ (8006a4c <__gethex+0x2d0>)
 80067b2:	9800      	ldr	r0, [sp, #0]
 80067b4:	f7ff fe76 	bl	80064a4 <strncmp>
 80067b8:	0007      	movs	r7, r0
 80067ba:	42a8      	cmp	r0, r5
 80067bc:	d000      	beq.n	80067c0 <__gethex+0x44>
 80067be:	e06a      	b.n	8006896 <__gethex+0x11a>
 80067c0:	9b00      	ldr	r3, [sp, #0]
 80067c2:	7858      	ldrb	r0, [r3, #1]
 80067c4:	1c5c      	adds	r4, r3, #1
 80067c6:	f7ff ffc4 	bl	8006752 <__hexdig_fun>
 80067ca:	2301      	movs	r3, #1
 80067cc:	9302      	str	r3, [sp, #8]
 80067ce:	42a8      	cmp	r0, r5
 80067d0:	d02f      	beq.n	8006832 <__gethex+0xb6>
 80067d2:	9400      	str	r4, [sp, #0]
 80067d4:	9b00      	ldr	r3, [sp, #0]
 80067d6:	7818      	ldrb	r0, [r3, #0]
 80067d8:	2830      	cmp	r0, #48	@ 0x30
 80067da:	d009      	beq.n	80067f0 <__gethex+0x74>
 80067dc:	f7ff ffb9 	bl	8006752 <__hexdig_fun>
 80067e0:	4242      	negs	r2, r0
 80067e2:	4142      	adcs	r2, r0
 80067e4:	2301      	movs	r3, #1
 80067e6:	0025      	movs	r5, r4
 80067e8:	9202      	str	r2, [sp, #8]
 80067ea:	9305      	str	r3, [sp, #20]
 80067ec:	9c00      	ldr	r4, [sp, #0]
 80067ee:	e004      	b.n	80067fa <__gethex+0x7e>
 80067f0:	9b00      	ldr	r3, [sp, #0]
 80067f2:	3301      	adds	r3, #1
 80067f4:	9300      	str	r3, [sp, #0]
 80067f6:	e7ed      	b.n	80067d4 <__gethex+0x58>
 80067f8:	3401      	adds	r4, #1
 80067fa:	7820      	ldrb	r0, [r4, #0]
 80067fc:	f7ff ffa9 	bl	8006752 <__hexdig_fun>
 8006800:	1e07      	subs	r7, r0, #0
 8006802:	d1f9      	bne.n	80067f8 <__gethex+0x7c>
 8006804:	2201      	movs	r2, #1
 8006806:	0020      	movs	r0, r4
 8006808:	4990      	ldr	r1, [pc, #576]	@ (8006a4c <__gethex+0x2d0>)
 800680a:	f7ff fe4b 	bl	80064a4 <strncmp>
 800680e:	2800      	cmp	r0, #0
 8006810:	d10d      	bne.n	800682e <__gethex+0xb2>
 8006812:	2d00      	cmp	r5, #0
 8006814:	d106      	bne.n	8006824 <__gethex+0xa8>
 8006816:	3401      	adds	r4, #1
 8006818:	0025      	movs	r5, r4
 800681a:	7820      	ldrb	r0, [r4, #0]
 800681c:	f7ff ff99 	bl	8006752 <__hexdig_fun>
 8006820:	2800      	cmp	r0, #0
 8006822:	d102      	bne.n	800682a <__gethex+0xae>
 8006824:	1b2d      	subs	r5, r5, r4
 8006826:	00af      	lsls	r7, r5, #2
 8006828:	e003      	b.n	8006832 <__gethex+0xb6>
 800682a:	3401      	adds	r4, #1
 800682c:	e7f5      	b.n	800681a <__gethex+0x9e>
 800682e:	2d00      	cmp	r5, #0
 8006830:	d1f8      	bne.n	8006824 <__gethex+0xa8>
 8006832:	2220      	movs	r2, #32
 8006834:	7823      	ldrb	r3, [r4, #0]
 8006836:	0026      	movs	r6, r4
 8006838:	4393      	bics	r3, r2
 800683a:	2b50      	cmp	r3, #80	@ 0x50
 800683c:	d11d      	bne.n	800687a <__gethex+0xfe>
 800683e:	7863      	ldrb	r3, [r4, #1]
 8006840:	2b2b      	cmp	r3, #43	@ 0x2b
 8006842:	d02d      	beq.n	80068a0 <__gethex+0x124>
 8006844:	2b2d      	cmp	r3, #45	@ 0x2d
 8006846:	d02f      	beq.n	80068a8 <__gethex+0x12c>
 8006848:	2300      	movs	r3, #0
 800684a:	1c66      	adds	r6, r4, #1
 800684c:	9304      	str	r3, [sp, #16]
 800684e:	7830      	ldrb	r0, [r6, #0]
 8006850:	f7ff ff7f 	bl	8006752 <__hexdig_fun>
 8006854:	1e43      	subs	r3, r0, #1
 8006856:	b2db      	uxtb	r3, r3
 8006858:	0005      	movs	r5, r0
 800685a:	2b18      	cmp	r3, #24
 800685c:	d82a      	bhi.n	80068b4 <__gethex+0x138>
 800685e:	7870      	ldrb	r0, [r6, #1]
 8006860:	f7ff ff77 	bl	8006752 <__hexdig_fun>
 8006864:	1e43      	subs	r3, r0, #1
 8006866:	b2db      	uxtb	r3, r3
 8006868:	3601      	adds	r6, #1
 800686a:	3d10      	subs	r5, #16
 800686c:	2b18      	cmp	r3, #24
 800686e:	d91d      	bls.n	80068ac <__gethex+0x130>
 8006870:	9b04      	ldr	r3, [sp, #16]
 8006872:	2b00      	cmp	r3, #0
 8006874:	d000      	beq.n	8006878 <__gethex+0xfc>
 8006876:	426d      	negs	r5, r5
 8006878:	197f      	adds	r7, r7, r5
 800687a:	9b06      	ldr	r3, [sp, #24]
 800687c:	601e      	str	r6, [r3, #0]
 800687e:	9b02      	ldr	r3, [sp, #8]
 8006880:	2b00      	cmp	r3, #0
 8006882:	d019      	beq.n	80068b8 <__gethex+0x13c>
 8006884:	9b05      	ldr	r3, [sp, #20]
 8006886:	2606      	movs	r6, #6
 8006888:	425a      	negs	r2, r3
 800688a:	4153      	adcs	r3, r2
 800688c:	425b      	negs	r3, r3
 800688e:	401e      	ands	r6, r3
 8006890:	0030      	movs	r0, r6
 8006892:	b009      	add	sp, #36	@ 0x24
 8006894:	bdf0      	pop	{r4, r5, r6, r7, pc}
 8006896:	2301      	movs	r3, #1
 8006898:	2700      	movs	r7, #0
 800689a:	9c00      	ldr	r4, [sp, #0]
 800689c:	9302      	str	r3, [sp, #8]
 800689e:	e7c8      	b.n	8006832 <__gethex+0xb6>
 80068a0:	2300      	movs	r3, #0
 80068a2:	9304      	str	r3, [sp, #16]
 80068a4:	1ca6      	adds	r6, r4, #2
 80068a6:	e7d2      	b.n	800684e <__gethex+0xd2>
 80068a8:	2301      	movs	r3, #1
 80068aa:	e7fa      	b.n	80068a2 <__gethex+0x126>
 80068ac:	230a      	movs	r3, #10
 80068ae:	435d      	muls	r5, r3
 80068b0:	182d      	adds	r5, r5, r0
 80068b2:	e7d4      	b.n	800685e <__gethex+0xe2>
 80068b4:	0026      	movs	r6, r4
 80068b6:	e7e0      	b.n	800687a <__gethex+0xfe>
 80068b8:	9b00      	ldr	r3, [sp, #0]
 80068ba:	9902      	ldr	r1, [sp, #8]
 80068bc:	1ae3      	subs	r3, r4, r3
 80068be:	3b01      	subs	r3, #1
 80068c0:	2b07      	cmp	r3, #7
 80068c2:	dc0a      	bgt.n	80068da <__gethex+0x15e>
 80068c4:	9803      	ldr	r0, [sp, #12]
 80068c6:	f000 fb0f 	bl	8006ee8 <_Balloc>
 80068ca:	1e05      	subs	r5, r0, #0
 80068cc:	d108      	bne.n	80068e0 <__gethex+0x164>
 80068ce:	002a      	movs	r2, r5
 80068d0:	21e4      	movs	r1, #228	@ 0xe4
 80068d2:	4b5f      	ldr	r3, [pc, #380]	@ (8006a50 <__gethex+0x2d4>)
 80068d4:	485f      	ldr	r0, [pc, #380]	@ (8006a54 <__gethex+0x2d8>)
 80068d6:	f001 fbf5 	bl	80080c4 <__assert_func>
 80068da:	3101      	adds	r1, #1
 80068dc:	105b      	asrs	r3, r3, #1
 80068de:	e7ef      	b.n	80068c0 <__gethex+0x144>
 80068e0:	0003      	movs	r3, r0
 80068e2:	3314      	adds	r3, #20
 80068e4:	9302      	str	r3, [sp, #8]
 80068e6:	9305      	str	r3, [sp, #20]
 80068e8:	2300      	movs	r3, #0
 80068ea:	001e      	movs	r6, r3
 80068ec:	9304      	str	r3, [sp, #16]
 80068ee:	9b00      	ldr	r3, [sp, #0]
 80068f0:	42a3      	cmp	r3, r4
 80068f2:	d338      	bcc.n	8006966 <__gethex+0x1ea>
 80068f4:	9c05      	ldr	r4, [sp, #20]
 80068f6:	9b02      	ldr	r3, [sp, #8]
 80068f8:	c440      	stmia	r4!, {r6}
 80068fa:	1ae4      	subs	r4, r4, r3
 80068fc:	10a4      	asrs	r4, r4, #2
 80068fe:	0030      	movs	r0, r6
 8006900:	612c      	str	r4, [r5, #16]
 8006902:	f000 fbe9 	bl	80070d8 <__hi0bits>
 8006906:	9b01      	ldr	r3, [sp, #4]
 8006908:	0164      	lsls	r4, r4, #5
 800690a:	681b      	ldr	r3, [r3, #0]
 800690c:	1a26      	subs	r6, r4, r0
 800690e:	9300      	str	r3, [sp, #0]
 8006910:	429e      	cmp	r6, r3
 8006912:	dd52      	ble.n	80069ba <__gethex+0x23e>
 8006914:	1af6      	subs	r6, r6, r3
 8006916:	0031      	movs	r1, r6
 8006918:	0028      	movs	r0, r5
 800691a:	f000 ff84 	bl	8007826 <__any_on>
 800691e:	1e04      	subs	r4, r0, #0
 8006920:	d00f      	beq.n	8006942 <__gethex+0x1c6>
 8006922:	2401      	movs	r4, #1
 8006924:	211f      	movs	r1, #31
 8006926:	0020      	movs	r0, r4
 8006928:	1e73      	subs	r3, r6, #1
 800692a:	4019      	ands	r1, r3
 800692c:	4088      	lsls	r0, r1
 800692e:	0001      	movs	r1, r0
 8006930:	115a      	asrs	r2, r3, #5
 8006932:	9802      	ldr	r0, [sp, #8]
 8006934:	0092      	lsls	r2, r2, #2
 8006936:	5812      	ldr	r2, [r2, r0]
 8006938:	420a      	tst	r2, r1
 800693a:	d002      	beq.n	8006942 <__gethex+0x1c6>
 800693c:	42a3      	cmp	r3, r4
 800693e:	dc34      	bgt.n	80069aa <__gethex+0x22e>
 8006940:	2402      	movs	r4, #2
 8006942:	0031      	movs	r1, r6
 8006944:	0028      	movs	r0, r5
 8006946:	f7ff feb1 	bl	80066ac <rshift>
 800694a:	19bf      	adds	r7, r7, r6
 800694c:	9b01      	ldr	r3, [sp, #4]
 800694e:	689b      	ldr	r3, [r3, #8]
 8006950:	42bb      	cmp	r3, r7
 8006952:	da42      	bge.n	80069da <__gethex+0x25e>
 8006954:	0029      	movs	r1, r5
 8006956:	9803      	ldr	r0, [sp, #12]
 8006958:	f000 fb0a 	bl	8006f70 <_Bfree>
 800695c:	2300      	movs	r3, #0
 800695e:	9a0e      	ldr	r2, [sp, #56]	@ 0x38
 8006960:	26a3      	movs	r6, #163	@ 0xa3
 8006962:	6013      	str	r3, [r2, #0]
 8006964:	e794      	b.n	8006890 <__gethex+0x114>
 8006966:	3c01      	subs	r4, #1
 8006968:	7823      	ldrb	r3, [r4, #0]
 800696a:	2b2e      	cmp	r3, #46	@ 0x2e
 800696c:	d012      	beq.n	8006994 <__gethex+0x218>
 800696e:	9b04      	ldr	r3, [sp, #16]
 8006970:	2b20      	cmp	r3, #32
 8006972:	d104      	bne.n	800697e <__gethex+0x202>
 8006974:	9b05      	ldr	r3, [sp, #20]
 8006976:	c340      	stmia	r3!, {r6}
 8006978:	2600      	movs	r6, #0
 800697a:	9305      	str	r3, [sp, #20]
 800697c:	9604      	str	r6, [sp, #16]
 800697e:	7820      	ldrb	r0, [r4, #0]
 8006980:	f7ff fee7 	bl	8006752 <__hexdig_fun>
 8006984:	230f      	movs	r3, #15
 8006986:	4018      	ands	r0, r3
 8006988:	9b04      	ldr	r3, [sp, #16]
 800698a:	4098      	lsls	r0, r3
 800698c:	3304      	adds	r3, #4
 800698e:	4306      	orrs	r6, r0
 8006990:	9304      	str	r3, [sp, #16]
 8006992:	e7ac      	b.n	80068ee <__gethex+0x172>
 8006994:	9b00      	ldr	r3, [sp, #0]
 8006996:	42a3      	cmp	r3, r4
 8006998:	d8e9      	bhi.n	800696e <__gethex+0x1f2>
 800699a:	2201      	movs	r2, #1
 800699c:	0020      	movs	r0, r4
 800699e:	492b      	ldr	r1, [pc, #172]	@ (8006a4c <__gethex+0x2d0>)
 80069a0:	f7ff fd80 	bl	80064a4 <strncmp>
 80069a4:	2800      	cmp	r0, #0
 80069a6:	d1e2      	bne.n	800696e <__gethex+0x1f2>
 80069a8:	e7a1      	b.n	80068ee <__gethex+0x172>
 80069aa:	0028      	movs	r0, r5
 80069ac:	1eb1      	subs	r1, r6, #2
 80069ae:	f000 ff3a 	bl	8007826 <__any_on>
 80069b2:	2800      	cmp	r0, #0
 80069b4:	d0c4      	beq.n	8006940 <__gethex+0x1c4>
 80069b6:	2403      	movs	r4, #3
 80069b8:	e7c3      	b.n	8006942 <__gethex+0x1c6>
 80069ba:	9b00      	ldr	r3, [sp, #0]
 80069bc:	2400      	movs	r4, #0
 80069be:	429e      	cmp	r6, r3
 80069c0:	dac4      	bge.n	800694c <__gethex+0x1d0>
 80069c2:	1b9e      	subs	r6, r3, r6
 80069c4:	0029      	movs	r1, r5
 80069c6:	0032      	movs	r2, r6
 80069c8:	9803      	ldr	r0, [sp, #12]
 80069ca:	f000 fcf3 	bl	80073b4 <__lshift>
 80069ce:	0003      	movs	r3, r0
 80069d0:	3314      	adds	r3, #20
 80069d2:	0005      	movs	r5, r0
 80069d4:	1bbf      	subs	r7, r7, r6
 80069d6:	9302      	str	r3, [sp, #8]
 80069d8:	e7b8      	b.n	800694c <__gethex+0x1d0>
 80069da:	9b01      	ldr	r3, [sp, #4]
 80069dc:	685e      	ldr	r6, [r3, #4]
 80069de:	42be      	cmp	r6, r7
 80069e0:	dd6f      	ble.n	8006ac2 <__gethex+0x346>
 80069e2:	9b00      	ldr	r3, [sp, #0]
 80069e4:	1bf6      	subs	r6, r6, r7
 80069e6:	42b3      	cmp	r3, r6
 80069e8:	dc36      	bgt.n	8006a58 <__gethex+0x2dc>
 80069ea:	9b01      	ldr	r3, [sp, #4]
 80069ec:	68db      	ldr	r3, [r3, #12]
 80069ee:	2b02      	cmp	r3, #2
 80069f0:	d024      	beq.n	8006a3c <__gethex+0x2c0>
 80069f2:	2b03      	cmp	r3, #3
 80069f4:	d026      	beq.n	8006a44 <__gethex+0x2c8>
 80069f6:	2b01      	cmp	r3, #1
 80069f8:	d117      	bne.n	8006a2a <__gethex+0x2ae>
 80069fa:	9b00      	ldr	r3, [sp, #0]
 80069fc:	42b3      	cmp	r3, r6
 80069fe:	d114      	bne.n	8006a2a <__gethex+0x2ae>
 8006a00:	2b01      	cmp	r3, #1
 8006a02:	d10b      	bne.n	8006a1c <__gethex+0x2a0>
 8006a04:	9b01      	ldr	r3, [sp, #4]
 8006a06:	9a07      	ldr	r2, [sp, #28]
 8006a08:	685b      	ldr	r3, [r3, #4]
 8006a0a:	2662      	movs	r6, #98	@ 0x62
 8006a0c:	6013      	str	r3, [r2, #0]
 8006a0e:	2301      	movs	r3, #1
 8006a10:	9a02      	ldr	r2, [sp, #8]
 8006a12:	612b      	str	r3, [r5, #16]
 8006a14:	6013      	str	r3, [r2, #0]
 8006a16:	9b0e      	ldr	r3, [sp, #56]	@ 0x38
 8006a18:	601d      	str	r5, [r3, #0]
 8006a1a:	e739      	b.n	8006890 <__gethex+0x114>
 8006a1c:	9900      	ldr	r1, [sp, #0]
 8006a1e:	0028      	movs	r0, r5
 8006a20:	3901      	subs	r1, #1
 8006a22:	f000 ff00 	bl	8007826 <__any_on>
 8006a26:	2800      	cmp	r0, #0
 8006a28:	d1ec      	bne.n	8006a04 <__gethex+0x288>
 8006a2a:	0029      	movs	r1, r5
 8006a2c:	9803      	ldr	r0, [sp, #12]
 8006a2e:	f000 fa9f 	bl	8006f70 <_Bfree>
 8006a32:	2300      	movs	r3, #0
 8006a34:	9a0e      	ldr	r2, [sp, #56]	@ 0x38
 8006a36:	2650      	movs	r6, #80	@ 0x50
 8006a38:	6013      	str	r3, [r2, #0]
 8006a3a:	e729      	b.n	8006890 <__gethex+0x114>
 8006a3c:	9b0f      	ldr	r3, [sp, #60]	@ 0x3c
 8006a3e:	2b00      	cmp	r3, #0
 8006a40:	d1f3      	bne.n	8006a2a <__gethex+0x2ae>
 8006a42:	e7df      	b.n	8006a04 <__gethex+0x288>
 8006a44:	9b0f      	ldr	r3, [sp, #60]	@ 0x3c
 8006a46:	2b00      	cmp	r3, #0
 8006a48:	d1dc      	bne.n	8006a04 <__gethex+0x288>
 8006a4a:	e7ee      	b.n	8006a2a <__gethex+0x2ae>
 8006a4c:	08008648 	.word	0x08008648
 8006a50:	0800865e 	.word	0x0800865e
 8006a54:	0800866f 	.word	0x0800866f
 8006a58:	1e77      	subs	r7, r6, #1
 8006a5a:	2c00      	cmp	r4, #0
 8006a5c:	d12f      	bne.n	8006abe <__gethex+0x342>
 8006a5e:	2f00      	cmp	r7, #0
 8006a60:	d004      	beq.n	8006a6c <__gethex+0x2f0>
 8006a62:	0039      	movs	r1, r7
 8006a64:	0028      	movs	r0, r5
 8006a66:	f000 fede 	bl	8007826 <__any_on>
 8006a6a:	0004      	movs	r4, r0
 8006a6c:	231f      	movs	r3, #31
 8006a6e:	117a      	asrs	r2, r7, #5
 8006a70:	401f      	ands	r7, r3
 8006a72:	3b1e      	subs	r3, #30
 8006a74:	40bb      	lsls	r3, r7
 8006a76:	9902      	ldr	r1, [sp, #8]
 8006a78:	0092      	lsls	r2, r2, #2
 8006a7a:	5852      	ldr	r2, [r2, r1]
 8006a7c:	421a      	tst	r2, r3
 8006a7e:	d001      	beq.n	8006a84 <__gethex+0x308>
 8006a80:	2302      	movs	r3, #2
 8006a82:	431c      	orrs	r4, r3
 8006a84:	9b00      	ldr	r3, [sp, #0]
 8006a86:	0031      	movs	r1, r6
 8006a88:	1b9b      	subs	r3, r3, r6
 8006a8a:	2602      	movs	r6, #2
 8006a8c:	0028      	movs	r0, r5
 8006a8e:	9300      	str	r3, [sp, #0]
 8006a90:	f7ff fe0c 	bl	80066ac <rshift>
 8006a94:	9b01      	ldr	r3, [sp, #4]
 8006a96:	685f      	ldr	r7, [r3, #4]
 8006a98:	2c00      	cmp	r4, #0
 8006a9a:	d03f      	beq.n	8006b1c <__gethex+0x3a0>
 8006a9c:	9b01      	ldr	r3, [sp, #4]
 8006a9e:	68db      	ldr	r3, [r3, #12]
 8006aa0:	2b02      	cmp	r3, #2
 8006aa2:	d010      	beq.n	8006ac6 <__gethex+0x34a>
 8006aa4:	2b03      	cmp	r3, #3
 8006aa6:	d012      	beq.n	8006ace <__gethex+0x352>
 8006aa8:	2b01      	cmp	r3, #1
 8006aaa:	d106      	bne.n	8006aba <__gethex+0x33e>
 8006aac:	07a2      	lsls	r2, r4, #30
 8006aae:	d504      	bpl.n	8006aba <__gethex+0x33e>
 8006ab0:	9a02      	ldr	r2, [sp, #8]
 8006ab2:	6812      	ldr	r2, [r2, #0]
 8006ab4:	4314      	orrs	r4, r2
 8006ab6:	421c      	tst	r4, r3
 8006ab8:	d10c      	bne.n	8006ad4 <__gethex+0x358>
 8006aba:	2310      	movs	r3, #16
 8006abc:	e02d      	b.n	8006b1a <__gethex+0x39e>
 8006abe:	2401      	movs	r4, #1
 8006ac0:	e7d4      	b.n	8006a6c <__gethex+0x2f0>
 8006ac2:	2601      	movs	r6, #1
 8006ac4:	e7e8      	b.n	8006a98 <__gethex+0x31c>
 8006ac6:	2301      	movs	r3, #1
 8006ac8:	9a0f      	ldr	r2, [sp, #60]	@ 0x3c
 8006aca:	1a9b      	subs	r3, r3, r2
 8006acc:	930f      	str	r3, [sp, #60]	@ 0x3c
 8006ace:	9b0f      	ldr	r3, [sp, #60]	@ 0x3c
 8006ad0:	2b00      	cmp	r3, #0
 8006ad2:	d0f2      	beq.n	8006aba <__gethex+0x33e>
 8006ad4:	692b      	ldr	r3, [r5, #16]
 8006ad6:	2000      	movs	r0, #0
 8006ad8:	9302      	str	r3, [sp, #8]
 8006ada:	009b      	lsls	r3, r3, #2
 8006adc:	9304      	str	r3, [sp, #16]
 8006ade:	002b      	movs	r3, r5
 8006ae0:	9a04      	ldr	r2, [sp, #16]
 8006ae2:	3314      	adds	r3, #20
 8006ae4:	1899      	adds	r1, r3, r2
 8006ae6:	681a      	ldr	r2, [r3, #0]
 8006ae8:	1c54      	adds	r4, r2, #1
 8006aea:	d01c      	beq.n	8006b26 <__gethex+0x3aa>
 8006aec:	3201      	adds	r2, #1
 8006aee:	601a      	str	r2, [r3, #0]
 8006af0:	002b      	movs	r3, r5
 8006af2:	3314      	adds	r3, #20
 8006af4:	2e02      	cmp	r6, #2
 8006af6:	d13f      	bne.n	8006b78 <__gethex+0x3fc>
 8006af8:	9a01      	ldr	r2, [sp, #4]
 8006afa:	9900      	ldr	r1, [sp, #0]
 8006afc:	6812      	ldr	r2, [r2, #0]
 8006afe:	3a01      	subs	r2, #1
 8006b00:	428a      	cmp	r2, r1
 8006b02:	d109      	bne.n	8006b18 <__gethex+0x39c>
 8006b04:	000a      	movs	r2, r1
 8006b06:	201f      	movs	r0, #31
 8006b08:	4010      	ands	r0, r2
 8006b0a:	2201      	movs	r2, #1
 8006b0c:	4082      	lsls	r2, r0
 8006b0e:	1149      	asrs	r1, r1, #5
 8006b10:	0089      	lsls	r1, r1, #2
 8006b12:	58cb      	ldr	r3, [r1, r3]
 8006b14:	4213      	tst	r3, r2
 8006b16:	d13d      	bne.n	8006b94 <__gethex+0x418>
 8006b18:	2320      	movs	r3, #32
 8006b1a:	431e      	orrs	r6, r3
 8006b1c:	9b0e      	ldr	r3, [sp, #56]	@ 0x38
 8006b1e:	601d      	str	r5, [r3, #0]
 8006b20:	9b07      	ldr	r3, [sp, #28]
 8006b22:	601f      	str	r7, [r3, #0]
 8006b24:	e6b4      	b.n	8006890 <__gethex+0x114>
 8006b26:	c301      	stmia	r3!, {r0}
 8006b28:	4299      	cmp	r1, r3
 8006b2a:	d8dc      	bhi.n	8006ae6 <__gethex+0x36a>
 8006b2c:	68ab      	ldr	r3, [r5, #8]
 8006b2e:	9a02      	ldr	r2, [sp, #8]
 8006b30:	429a      	cmp	r2, r3
 8006b32:	db18      	blt.n	8006b66 <__gethex+0x3ea>
 8006b34:	6869      	ldr	r1, [r5, #4]
 8006b36:	9803      	ldr	r0, [sp, #12]
 8006b38:	3101      	adds	r1, #1
 8006b3a:	f000 f9d5 	bl	8006ee8 <_Balloc>
 8006b3e:	1e04      	subs	r4, r0, #0
 8006b40:	d104      	bne.n	8006b4c <__gethex+0x3d0>
 8006b42:	0022      	movs	r2, r4
 8006b44:	2184      	movs	r1, #132	@ 0x84
 8006b46:	4b1d      	ldr	r3, [pc, #116]	@ (8006bbc <__gethex+0x440>)
 8006b48:	481d      	ldr	r0, [pc, #116]	@ (8006bc0 <__gethex+0x444>)
 8006b4a:	e6c4      	b.n	80068d6 <__gethex+0x15a>
 8006b4c:	0029      	movs	r1, r5
 8006b4e:	692a      	ldr	r2, [r5, #16]
 8006b50:	310c      	adds	r1, #12
 8006b52:	3202      	adds	r2, #2
 8006b54:	0092      	lsls	r2, r2, #2
 8006b56:	300c      	adds	r0, #12
 8006b58:	f7ff fd4f 	bl	80065fa <memcpy>
 8006b5c:	0029      	movs	r1, r5
 8006b5e:	9803      	ldr	r0, [sp, #12]
 8006b60:	f000 fa06 	bl	8006f70 <_Bfree>
 8006b64:	0025      	movs	r5, r4
 8006b66:	692b      	ldr	r3, [r5, #16]
 8006b68:	1c5a      	adds	r2, r3, #1
 8006b6a:	612a      	str	r2, [r5, #16]
 8006b6c:	2201      	movs	r2, #1
 8006b6e:	3304      	adds	r3, #4
 8006b70:	009b      	lsls	r3, r3, #2
 8006b72:	18eb      	adds	r3, r5, r3
 8006b74:	605a      	str	r2, [r3, #4]
 8006b76:	e7bb      	b.n	8006af0 <__gethex+0x374>
 8006b78:	692a      	ldr	r2, [r5, #16]
 8006b7a:	9902      	ldr	r1, [sp, #8]
 8006b7c:	428a      	cmp	r2, r1
 8006b7e:	dd0b      	ble.n	8006b98 <__gethex+0x41c>
 8006b80:	2101      	movs	r1, #1
 8006b82:	0028      	movs	r0, r5
 8006b84:	f7ff fd92 	bl	80066ac <rshift>
 8006b88:	9b01      	ldr	r3, [sp, #4]
 8006b8a:	3701      	adds	r7, #1
 8006b8c:	689b      	ldr	r3, [r3, #8]
 8006b8e:	42bb      	cmp	r3, r7
 8006b90:	da00      	bge.n	8006b94 <__gethex+0x418>
 8006b92:	e6df      	b.n	8006954 <__gethex+0x1d8>
 8006b94:	2601      	movs	r6, #1
 8006b96:	e7bf      	b.n	8006b18 <__gethex+0x39c>
 8006b98:	221f      	movs	r2, #31
 8006b9a:	9c00      	ldr	r4, [sp, #0]
 8006b9c:	9900      	ldr	r1, [sp, #0]
 8006b9e:	4014      	ands	r4, r2
 8006ba0:	4211      	tst	r1, r2
 8006ba2:	d0f7      	beq.n	8006b94 <__gethex+0x418>
 8006ba4:	9a04      	ldr	r2, [sp, #16]
 8006ba6:	189b      	adds	r3, r3, r2
 8006ba8:	3b04      	subs	r3, #4
 8006baa:	6818      	ldr	r0, [r3, #0]
 8006bac:	f000 fa94 	bl	80070d8 <__hi0bits>
 8006bb0:	2320      	movs	r3, #32
 8006bb2:	1b1b      	subs	r3, r3, r4
 8006bb4:	4298      	cmp	r0, r3
 8006bb6:	dbe3      	blt.n	8006b80 <__gethex+0x404>
 8006bb8:	e7ec      	b.n	8006b94 <__gethex+0x418>
 8006bba:	46c0      	nop			@ (mov r8, r8)
 8006bbc:	0800865e 	.word	0x0800865e
 8006bc0:	0800866f 	.word	0x0800866f

08006bc4 <L_shift>:
 8006bc4:	2308      	movs	r3, #8
 8006bc6:	b570      	push	{r4, r5, r6, lr}
 8006bc8:	2520      	movs	r5, #32
 8006bca:	1a9a      	subs	r2, r3, r2
 8006bcc:	0092      	lsls	r2, r2, #2
 8006bce:	1aad      	subs	r5, r5, r2
 8006bd0:	6843      	ldr	r3, [r0, #4]
 8006bd2:	6804      	ldr	r4, [r0, #0]
 8006bd4:	001e      	movs	r6, r3
 8006bd6:	40ae      	lsls	r6, r5
 8006bd8:	40d3      	lsrs	r3, r2
 8006bda:	4334      	orrs	r4, r6
 8006bdc:	6004      	str	r4, [r0, #0]
 8006bde:	6043      	str	r3, [r0, #4]
 8006be0:	3004      	adds	r0, #4
 8006be2:	4288      	cmp	r0, r1
 8006be4:	d3f4      	bcc.n	8006bd0 <L_shift+0xc>
 8006be6:	bd70      	pop	{r4, r5, r6, pc}

08006be8 <__match>:
 8006be8:	b530      	push	{r4, r5, lr}
 8006bea:	6803      	ldr	r3, [r0, #0]
 8006bec:	780c      	ldrb	r4, [r1, #0]
 8006bee:	3301      	adds	r3, #1
 8006bf0:	2c00      	cmp	r4, #0
 8006bf2:	d102      	bne.n	8006bfa <__match+0x12>
 8006bf4:	6003      	str	r3, [r0, #0]
 8006bf6:	2001      	movs	r0, #1
 8006bf8:	bd30      	pop	{r4, r5, pc}
 8006bfa:	781a      	ldrb	r2, [r3, #0]
 8006bfc:	0015      	movs	r5, r2
 8006bfe:	3d41      	subs	r5, #65	@ 0x41
 8006c00:	2d19      	cmp	r5, #25
 8006c02:	d800      	bhi.n	8006c06 <__match+0x1e>
 8006c04:	3220      	adds	r2, #32
 8006c06:	3101      	adds	r1, #1
 8006c08:	42a2      	cmp	r2, r4
 8006c0a:	d0ef      	beq.n	8006bec <__match+0x4>
 8006c0c:	2000      	movs	r0, #0
 8006c0e:	e7f3      	b.n	8006bf8 <__match+0x10>

08006c10 <__hexnan>:
 8006c10:	b5f0      	push	{r4, r5, r6, r7, lr}
 8006c12:	680b      	ldr	r3, [r1, #0]
 8006c14:	b08b      	sub	sp, #44	@ 0x2c
 8006c16:	9201      	str	r2, [sp, #4]
 8006c18:	9901      	ldr	r1, [sp, #4]
 8006c1a:	115a      	asrs	r2, r3, #5
 8006c1c:	0092      	lsls	r2, r2, #2
 8006c1e:	188a      	adds	r2, r1, r2
 8006c20:	9202      	str	r2, [sp, #8]
 8006c22:	0019      	movs	r1, r3
 8006c24:	221f      	movs	r2, #31
 8006c26:	4011      	ands	r1, r2
 8006c28:	9008      	str	r0, [sp, #32]
 8006c2a:	9106      	str	r1, [sp, #24]
 8006c2c:	4213      	tst	r3, r2
 8006c2e:	d002      	beq.n	8006c36 <__hexnan+0x26>
 8006c30:	9b02      	ldr	r3, [sp, #8]
 8006c32:	3304      	adds	r3, #4
 8006c34:	9302      	str	r3, [sp, #8]
 8006c36:	9b02      	ldr	r3, [sp, #8]
 8006c38:	2500      	movs	r5, #0
 8006c3a:	1f1f      	subs	r7, r3, #4
 8006c3c:	003e      	movs	r6, r7
 8006c3e:	003c      	movs	r4, r7
 8006c40:	9b08      	ldr	r3, [sp, #32]
 8006c42:	603d      	str	r5, [r7, #0]
 8006c44:	681b      	ldr	r3, [r3, #0]
 8006c46:	9507      	str	r5, [sp, #28]
 8006c48:	9305      	str	r3, [sp, #20]
 8006c4a:	9503      	str	r5, [sp, #12]
 8006c4c:	9b05      	ldr	r3, [sp, #20]
 8006c4e:	3301      	adds	r3, #1
 8006c50:	9309      	str	r3, [sp, #36]	@ 0x24
 8006c52:	9b05      	ldr	r3, [sp, #20]
 8006c54:	785b      	ldrb	r3, [r3, #1]
 8006c56:	9304      	str	r3, [sp, #16]
 8006c58:	2b00      	cmp	r3, #0
 8006c5a:	d028      	beq.n	8006cae <__hexnan+0x9e>
 8006c5c:	9804      	ldr	r0, [sp, #16]
 8006c5e:	f7ff fd78 	bl	8006752 <__hexdig_fun>
 8006c62:	2800      	cmp	r0, #0
 8006c64:	d155      	bne.n	8006d12 <__hexnan+0x102>
 8006c66:	9b04      	ldr	r3, [sp, #16]
 8006c68:	2b20      	cmp	r3, #32
 8006c6a:	d819      	bhi.n	8006ca0 <__hexnan+0x90>
 8006c6c:	9b03      	ldr	r3, [sp, #12]
 8006c6e:	9a07      	ldr	r2, [sp, #28]
 8006c70:	4293      	cmp	r3, r2
 8006c72:	dd12      	ble.n	8006c9a <__hexnan+0x8a>
 8006c74:	42b4      	cmp	r4, r6
 8006c76:	d206      	bcs.n	8006c86 <__hexnan+0x76>
 8006c78:	2d07      	cmp	r5, #7
 8006c7a:	dc04      	bgt.n	8006c86 <__hexnan+0x76>
 8006c7c:	002a      	movs	r2, r5
 8006c7e:	0031      	movs	r1, r6
 8006c80:	0020      	movs	r0, r4
 8006c82:	f7ff ff9f 	bl	8006bc4 <L_shift>
 8006c86:	9b01      	ldr	r3, [sp, #4]
 8006c88:	2508      	movs	r5, #8
 8006c8a:	429c      	cmp	r4, r3
 8006c8c:	d905      	bls.n	8006c9a <__hexnan+0x8a>
 8006c8e:	1f26      	subs	r6, r4, #4
 8006c90:	2500      	movs	r5, #0
 8006c92:	0034      	movs	r4, r6
 8006c94:	9b03      	ldr	r3, [sp, #12]
 8006c96:	6035      	str	r5, [r6, #0]
 8006c98:	9307      	str	r3, [sp, #28]
 8006c9a:	9b09      	ldr	r3, [sp, #36]	@ 0x24
 8006c9c:	9305      	str	r3, [sp, #20]
 8006c9e:	e7d5      	b.n	8006c4c <__hexnan+0x3c>
 8006ca0:	9b04      	ldr	r3, [sp, #16]
 8006ca2:	2b29      	cmp	r3, #41	@ 0x29
 8006ca4:	d15a      	bne.n	8006d5c <__hexnan+0x14c>
 8006ca6:	9b05      	ldr	r3, [sp, #20]
 8006ca8:	9a08      	ldr	r2, [sp, #32]
 8006caa:	3302      	adds	r3, #2
 8006cac:	6013      	str	r3, [r2, #0]
 8006cae:	9b03      	ldr	r3, [sp, #12]
 8006cb0:	2b00      	cmp	r3, #0
 8006cb2:	d053      	beq.n	8006d5c <__hexnan+0x14c>
 8006cb4:	42b4      	cmp	r4, r6
 8006cb6:	d206      	bcs.n	8006cc6 <__hexnan+0xb6>
 8006cb8:	2d07      	cmp	r5, #7
 8006cba:	dc04      	bgt.n	8006cc6 <__hexnan+0xb6>
 8006cbc:	002a      	movs	r2, r5
 8006cbe:	0031      	movs	r1, r6
 8006cc0:	0020      	movs	r0, r4
 8006cc2:	f7ff ff7f 	bl	8006bc4 <L_shift>
 8006cc6:	9b01      	ldr	r3, [sp, #4]
 8006cc8:	429c      	cmp	r4, r3
 8006cca:	d936      	bls.n	8006d3a <__hexnan+0x12a>
 8006ccc:	001a      	movs	r2, r3
 8006cce:	0023      	movs	r3, r4
 8006cd0:	cb02      	ldmia	r3!, {r1}
 8006cd2:	c202      	stmia	r2!, {r1}
 8006cd4:	429f      	cmp	r7, r3
 8006cd6:	d2fb      	bcs.n	8006cd0 <__hexnan+0xc0>
 8006cd8:	9b02      	ldr	r3, [sp, #8]
 8006cda:	1c62      	adds	r2, r4, #1
 8006cdc:	1ed9      	subs	r1, r3, #3
 8006cde:	2304      	movs	r3, #4
 8006ce0:	4291      	cmp	r1, r2
 8006ce2:	d305      	bcc.n	8006cf0 <__hexnan+0xe0>
 8006ce4:	9b02      	ldr	r3, [sp, #8]
 8006ce6:	3b04      	subs	r3, #4
 8006ce8:	1b1b      	subs	r3, r3, r4
 8006cea:	089b      	lsrs	r3, r3, #2
 8006cec:	3301      	adds	r3, #1
 8006cee:	009b      	lsls	r3, r3, #2
 8006cf0:	9a01      	ldr	r2, [sp, #4]
 8006cf2:	18d3      	adds	r3, r2, r3
 8006cf4:	2200      	movs	r2, #0
 8006cf6:	c304      	stmia	r3!, {r2}
 8006cf8:	429f      	cmp	r7, r3
 8006cfa:	d2fc      	bcs.n	8006cf6 <__hexnan+0xe6>
 8006cfc:	683b      	ldr	r3, [r7, #0]
 8006cfe:	2b00      	cmp	r3, #0
 8006d00:	d104      	bne.n	8006d0c <__hexnan+0xfc>
 8006d02:	9b01      	ldr	r3, [sp, #4]
 8006d04:	429f      	cmp	r7, r3
 8006d06:	d127      	bne.n	8006d58 <__hexnan+0x148>
 8006d08:	2301      	movs	r3, #1
 8006d0a:	603b      	str	r3, [r7, #0]
 8006d0c:	2005      	movs	r0, #5
 8006d0e:	b00b      	add	sp, #44	@ 0x2c
 8006d10:	bdf0      	pop	{r4, r5, r6, r7, pc}
 8006d12:	9b03      	ldr	r3, [sp, #12]
 8006d14:	3501      	adds	r5, #1
 8006d16:	3301      	adds	r3, #1
 8006d18:	9303      	str	r3, [sp, #12]
 8006d1a:	2d08      	cmp	r5, #8
 8006d1c:	dd06      	ble.n	8006d2c <__hexnan+0x11c>
 8006d1e:	9b01      	ldr	r3, [sp, #4]
 8006d20:	429c      	cmp	r4, r3
 8006d22:	d9ba      	bls.n	8006c9a <__hexnan+0x8a>
 8006d24:	2300      	movs	r3, #0
 8006d26:	2501      	movs	r5, #1
 8006d28:	3c04      	subs	r4, #4
 8006d2a:	6023      	str	r3, [r4, #0]
 8006d2c:	220f      	movs	r2, #15
 8006d2e:	6823      	ldr	r3, [r4, #0]
 8006d30:	4010      	ands	r0, r2
 8006d32:	011b      	lsls	r3, r3, #4
 8006d34:	4303      	orrs	r3, r0
 8006d36:	6023      	str	r3, [r4, #0]
 8006d38:	e7af      	b.n	8006c9a <__hexnan+0x8a>
 8006d3a:	9b06      	ldr	r3, [sp, #24]
 8006d3c:	2b00      	cmp	r3, #0
 8006d3e:	d0dd      	beq.n	8006cfc <__hexnan+0xec>
 8006d40:	2320      	movs	r3, #32
 8006d42:	9a06      	ldr	r2, [sp, #24]
 8006d44:	9902      	ldr	r1, [sp, #8]
 8006d46:	1a9b      	subs	r3, r3, r2
 8006d48:	2201      	movs	r2, #1
 8006d4a:	4252      	negs	r2, r2
 8006d4c:	40da      	lsrs	r2, r3
 8006d4e:	3904      	subs	r1, #4
 8006d50:	680b      	ldr	r3, [r1, #0]
 8006d52:	4013      	ands	r3, r2
 8006d54:	600b      	str	r3, [r1, #0]
 8006d56:	e7d1      	b.n	8006cfc <__hexnan+0xec>
 8006d58:	3f04      	subs	r7, #4
 8006d5a:	e7cf      	b.n	8006cfc <__hexnan+0xec>
 8006d5c:	2004      	movs	r0, #4
 8006d5e:	e7d6      	b.n	8006d0e <__hexnan+0xfe>

08006d60 <sbrk_aligned>:
 8006d60:	b570      	push	{r4, r5, r6, lr}
 8006d62:	4e0f      	ldr	r6, [pc, #60]	@ (8006da0 <sbrk_aligned+0x40>)
 8006d64:	000d      	movs	r5, r1
 8006d66:	6831      	ldr	r1, [r6, #0]
 8006d68:	0004      	movs	r4, r0
 8006d6a:	2900      	cmp	r1, #0
 8006d6c:	d102      	bne.n	8006d74 <sbrk_aligned+0x14>
 8006d6e:	f001 f98b 	bl	8008088 <_sbrk_r>
 8006d72:	6030      	str	r0, [r6, #0]
 8006d74:	0029      	movs	r1, r5
 8006d76:	0020      	movs	r0, r4
 8006d78:	f001 f986 	bl	8008088 <_sbrk_r>
 8006d7c:	1c43      	adds	r3, r0, #1
 8006d7e:	d103      	bne.n	8006d88 <sbrk_aligned+0x28>
 8006d80:	2501      	movs	r5, #1
 8006d82:	426d      	negs	r5, r5
 8006d84:	0028      	movs	r0, r5
 8006d86:	bd70      	pop	{r4, r5, r6, pc}
 8006d88:	2303      	movs	r3, #3
 8006d8a:	1cc5      	adds	r5, r0, #3
 8006d8c:	439d      	bics	r5, r3
 8006d8e:	42a8      	cmp	r0, r5
 8006d90:	d0f8      	beq.n	8006d84 <sbrk_aligned+0x24>
 8006d92:	1a29      	subs	r1, r5, r0
 8006d94:	0020      	movs	r0, r4
 8006d96:	f001 f977 	bl	8008088 <_sbrk_r>
 8006d9a:	3001      	adds	r0, #1
 8006d9c:	d1f2      	bne.n	8006d84 <sbrk_aligned+0x24>
 8006d9e:	e7ef      	b.n	8006d80 <sbrk_aligned+0x20>
 8006da0:	20000604 	.word	0x20000604

08006da4 <_malloc_r>:
 8006da4:	b5f7      	push	{r0, r1, r2, r4, r5, r6, r7, lr}
 8006da6:	2203      	movs	r2, #3
 8006da8:	1ccb      	adds	r3, r1, #3
 8006daa:	4393      	bics	r3, r2
 8006dac:	3308      	adds	r3, #8
 8006dae:	0005      	movs	r5, r0
 8006db0:	001f      	movs	r7, r3
 8006db2:	2b0c      	cmp	r3, #12
 8006db4:	d234      	bcs.n	8006e20 <_malloc_r+0x7c>
 8006db6:	270c      	movs	r7, #12
 8006db8:	42b9      	cmp	r1, r7
 8006dba:	d833      	bhi.n	8006e24 <_malloc_r+0x80>
 8006dbc:	0028      	movs	r0, r5
 8006dbe:	f000 f883 	bl	8006ec8 <__malloc_lock>
 8006dc2:	4e37      	ldr	r6, [pc, #220]	@ (8006ea0 <_malloc_r+0xfc>)
 8006dc4:	6833      	ldr	r3, [r6, #0]
 8006dc6:	001c      	movs	r4, r3
 8006dc8:	2c00      	cmp	r4, #0
 8006dca:	d12f      	bne.n	8006e2c <_malloc_r+0x88>
 8006dcc:	0039      	movs	r1, r7
 8006dce:	0028      	movs	r0, r5
 8006dd0:	f7ff ffc6 	bl	8006d60 <sbrk_aligned>
 8006dd4:	0004      	movs	r4, r0
 8006dd6:	1c43      	adds	r3, r0, #1
 8006dd8:	d15f      	bne.n	8006e9a <_malloc_r+0xf6>
 8006dda:	6834      	ldr	r4, [r6, #0]
 8006ddc:	9400      	str	r4, [sp, #0]
 8006dde:	9b00      	ldr	r3, [sp, #0]
 8006de0:	2b00      	cmp	r3, #0
 8006de2:	d14a      	bne.n	8006e7a <_malloc_r+0xd6>
 8006de4:	2c00      	cmp	r4, #0
 8006de6:	d052      	beq.n	8006e8e <_malloc_r+0xea>
 8006de8:	6823      	ldr	r3, [r4, #0]
 8006dea:	0028      	movs	r0, r5
 8006dec:	18e3      	adds	r3, r4, r3
 8006dee:	9900      	ldr	r1, [sp, #0]
 8006df0:	9301      	str	r3, [sp, #4]
 8006df2:	f001 f949 	bl	8008088 <_sbrk_r>
 8006df6:	9b01      	ldr	r3, [sp, #4]
 8006df8:	4283      	cmp	r3, r0
 8006dfa:	d148      	bne.n	8006e8e <_malloc_r+0xea>
 8006dfc:	6823      	ldr	r3, [r4, #0]
 8006dfe:	0028      	movs	r0, r5
 8006e00:	1aff      	subs	r7, r7, r3
 8006e02:	0039      	movs	r1, r7
 8006e04:	f7ff ffac 	bl	8006d60 <sbrk_aligned>
 8006e08:	3001      	adds	r0, #1
 8006e0a:	d040      	beq.n	8006e8e <_malloc_r+0xea>
 8006e0c:	6823      	ldr	r3, [r4, #0]
 8006e0e:	19db      	adds	r3, r3, r7
 8006e10:	6023      	str	r3, [r4, #0]
 8006e12:	6833      	ldr	r3, [r6, #0]
 8006e14:	685a      	ldr	r2, [r3, #4]
 8006e16:	2a00      	cmp	r2, #0
 8006e18:	d133      	bne.n	8006e82 <_malloc_r+0xde>
 8006e1a:	9b00      	ldr	r3, [sp, #0]
 8006e1c:	6033      	str	r3, [r6, #0]
 8006e1e:	e019      	b.n	8006e54 <_malloc_r+0xb0>
 8006e20:	2b00      	cmp	r3, #0
 8006e22:	dac9      	bge.n	8006db8 <_malloc_r+0x14>
 8006e24:	230c      	movs	r3, #12
 8006e26:	602b      	str	r3, [r5, #0]
 8006e28:	2000      	movs	r0, #0
 8006e2a:	bdfe      	pop	{r1, r2, r3, r4, r5, r6, r7, pc}
 8006e2c:	6821      	ldr	r1, [r4, #0]
 8006e2e:	1bc9      	subs	r1, r1, r7
 8006e30:	d420      	bmi.n	8006e74 <_malloc_r+0xd0>
 8006e32:	290b      	cmp	r1, #11
 8006e34:	d90a      	bls.n	8006e4c <_malloc_r+0xa8>
 8006e36:	19e2      	adds	r2, r4, r7
 8006e38:	6027      	str	r7, [r4, #0]
 8006e3a:	42a3      	cmp	r3, r4
 8006e3c:	d104      	bne.n	8006e48 <_malloc_r+0xa4>
 8006e3e:	6032      	str	r2, [r6, #0]
 8006e40:	6863      	ldr	r3, [r4, #4]
 8006e42:	6011      	str	r1, [r2, #0]
 8006e44:	6053      	str	r3, [r2, #4]
 8006e46:	e005      	b.n	8006e54 <_malloc_r+0xb0>
 8006e48:	605a      	str	r2, [r3, #4]
 8006e4a:	e7f9      	b.n	8006e40 <_malloc_r+0x9c>
 8006e4c:	6862      	ldr	r2, [r4, #4]
 8006e4e:	42a3      	cmp	r3, r4
 8006e50:	d10e      	bne.n	8006e70 <_malloc_r+0xcc>
 8006e52:	6032      	str	r2, [r6, #0]
 8006e54:	0028      	movs	r0, r5
 8006e56:	f000 f83f 	bl	8006ed8 <__malloc_unlock>
 8006e5a:	0020      	movs	r0, r4
 8006e5c:	2207      	movs	r2, #7
 8006e5e:	300b      	adds	r0, #11
 8006e60:	1d23      	adds	r3, r4, #4
 8006e62:	4390      	bics	r0, r2
 8006e64:	1ac2      	subs	r2, r0, r3
 8006e66:	4298      	cmp	r0, r3
 8006e68:	d0df      	beq.n	8006e2a <_malloc_r+0x86>
 8006e6a:	1a1b      	subs	r3, r3, r0
 8006e6c:	50a3      	str	r3, [r4, r2]
 8006e6e:	e7dc      	b.n	8006e2a <_malloc_r+0x86>
 8006e70:	605a      	str	r2, [r3, #4]
 8006e72:	e7ef      	b.n	8006e54 <_malloc_r+0xb0>
 8006e74:	0023      	movs	r3, r4
 8006e76:	6864      	ldr	r4, [r4, #4]
 8006e78:	e7a6      	b.n	8006dc8 <_malloc_r+0x24>
 8006e7a:	9c00      	ldr	r4, [sp, #0]
 8006e7c:	6863      	ldr	r3, [r4, #4]
 8006e7e:	9300      	str	r3, [sp, #0]
 8006e80:	e7ad      	b.n	8006dde <_malloc_r+0x3a>
 8006e82:	001a      	movs	r2, r3
 8006e84:	685b      	ldr	r3, [r3, #4]
 8006e86:	42a3      	cmp	r3, r4
 8006e88:	d1fb      	bne.n	8006e82 <_malloc_r+0xde>
 8006e8a:	2300      	movs	r3, #0
 8006e8c:	e7da      	b.n	8006e44 <_malloc_r+0xa0>
 8006e8e:	230c      	movs	r3, #12
 8006e90:	0028      	movs	r0, r5
 8006e92:	602b      	str	r3, [r5, #0]
 8006e94:	f000 f820 	bl	8006ed8 <__malloc_unlock>
 8006e98:	e7c6      	b.n	8006e28 <_malloc_r+0x84>
 8006e9a:	6007      	str	r7, [r0, #0]
 8006e9c:	e7da      	b.n	8006e54 <_malloc_r+0xb0>
 8006e9e:	46c0      	nop			@ (mov r8, r8)
 8006ea0:	20000608 	.word	0x20000608

08006ea4 <__ascii_mbtowc>:
 8006ea4:	b082      	sub	sp, #8
 8006ea6:	2900      	cmp	r1, #0
 8006ea8:	d100      	bne.n	8006eac <__ascii_mbtowc+0x8>
 8006eaa:	a901      	add	r1, sp, #4
 8006eac:	1e10      	subs	r0, r2, #0
 8006eae:	d006      	beq.n	8006ebe <__ascii_mbtowc+0x1a>
 8006eb0:	2b00      	cmp	r3, #0
 8006eb2:	d006      	beq.n	8006ec2 <__ascii_mbtowc+0x1e>
 8006eb4:	7813      	ldrb	r3, [r2, #0]
 8006eb6:	600b      	str	r3, [r1, #0]
 8006eb8:	7810      	ldrb	r0, [r2, #0]
 8006eba:	1e43      	subs	r3, r0, #1
 8006ebc:	4198      	sbcs	r0, r3
 8006ebe:	b002      	add	sp, #8
 8006ec0:	4770      	bx	lr
 8006ec2:	2002      	movs	r0, #2
 8006ec4:	4240      	negs	r0, r0
 8006ec6:	e7fa      	b.n	8006ebe <__ascii_mbtowc+0x1a>

08006ec8 <__malloc_lock>:
 8006ec8:	b510      	push	{r4, lr}
 8006eca:	4802      	ldr	r0, [pc, #8]	@ (8006ed4 <__malloc_lock+0xc>)
 8006ecc:	f7ff fb8b 	bl	80065e6 <__retarget_lock_acquire_recursive>
 8006ed0:	bd10      	pop	{r4, pc}
 8006ed2:	46c0      	nop			@ (mov r8, r8)
 8006ed4:	20000600 	.word	0x20000600

08006ed8 <__malloc_unlock>:
 8006ed8:	b510      	push	{r4, lr}
 8006eda:	4802      	ldr	r0, [pc, #8]	@ (8006ee4 <__malloc_unlock+0xc>)
 8006edc:	f7ff fb84 	bl	80065e8 <__retarget_lock_release_recursive>
 8006ee0:	bd10      	pop	{r4, pc}
 8006ee2:	46c0      	nop			@ (mov r8, r8)
 8006ee4:	20000600 	.word	0x20000600

08006ee8 <_Balloc>:
 8006ee8:	b570      	push	{r4, r5, r6, lr}
 8006eea:	69c5      	ldr	r5, [r0, #28]
 8006eec:	0006      	movs	r6, r0
 8006eee:	000c      	movs	r4, r1
 8006ef0:	2d00      	cmp	r5, #0
 8006ef2:	d10e      	bne.n	8006f12 <_Balloc+0x2a>
 8006ef4:	2010      	movs	r0, #16
 8006ef6:	f001 f931 	bl	800815c <malloc>
 8006efa:	1e02      	subs	r2, r0, #0
 8006efc:	61f0      	str	r0, [r6, #28]
 8006efe:	d104      	bne.n	8006f0a <_Balloc+0x22>
 8006f00:	216b      	movs	r1, #107	@ 0x6b
 8006f02:	4b19      	ldr	r3, [pc, #100]	@ (8006f68 <_Balloc+0x80>)
 8006f04:	4819      	ldr	r0, [pc, #100]	@ (8006f6c <_Balloc+0x84>)
 8006f06:	f001 f8dd 	bl	80080c4 <__assert_func>
 8006f0a:	6045      	str	r5, [r0, #4]
 8006f0c:	6085      	str	r5, [r0, #8]
 8006f0e:	6005      	str	r5, [r0, #0]
 8006f10:	60c5      	str	r5, [r0, #12]
 8006f12:	69f5      	ldr	r5, [r6, #28]
 8006f14:	68eb      	ldr	r3, [r5, #12]
 8006f16:	2b00      	cmp	r3, #0
 8006f18:	d013      	beq.n	8006f42 <_Balloc+0x5a>
 8006f1a:	69f3      	ldr	r3, [r6, #28]
 8006f1c:	00a2      	lsls	r2, r4, #2
 8006f1e:	68db      	ldr	r3, [r3, #12]
 8006f20:	189b      	adds	r3, r3, r2
 8006f22:	6818      	ldr	r0, [r3, #0]
 8006f24:	2800      	cmp	r0, #0
 8006f26:	d118      	bne.n	8006f5a <_Balloc+0x72>
 8006f28:	2101      	movs	r1, #1
 8006f2a:	000d      	movs	r5, r1
 8006f2c:	40a5      	lsls	r5, r4
 8006f2e:	1d6a      	adds	r2, r5, #5
 8006f30:	0030      	movs	r0, r6
 8006f32:	0092      	lsls	r2, r2, #2
 8006f34:	f001 f8e4 	bl	8008100 <_calloc_r>
 8006f38:	2800      	cmp	r0, #0
 8006f3a:	d00c      	beq.n	8006f56 <_Balloc+0x6e>
 8006f3c:	6044      	str	r4, [r0, #4]
 8006f3e:	6085      	str	r5, [r0, #8]
 8006f40:	e00d      	b.n	8006f5e <_Balloc+0x76>
 8006f42:	2221      	movs	r2, #33	@ 0x21
 8006f44:	2104      	movs	r1, #4
 8006f46:	0030      	movs	r0, r6
 8006f48:	f001 f8da 	bl	8008100 <_calloc_r>
 8006f4c:	69f3      	ldr	r3, [r6, #28]
 8006f4e:	60e8      	str	r0, [r5, #12]
 8006f50:	68db      	ldr	r3, [r3, #12]
 8006f52:	2b00      	cmp	r3, #0
 8006f54:	d1e1      	bne.n	8006f1a <_Balloc+0x32>
 8006f56:	2000      	movs	r0, #0
 8006f58:	bd70      	pop	{r4, r5, r6, pc}
 8006f5a:	6802      	ldr	r2, [r0, #0]
 8006f5c:	601a      	str	r2, [r3, #0]
 8006f5e:	2300      	movs	r3, #0
 8006f60:	6103      	str	r3, [r0, #16]
 8006f62:	60c3      	str	r3, [r0, #12]
 8006f64:	e7f8      	b.n	8006f58 <_Balloc+0x70>
 8006f66:	46c0      	nop			@ (mov r8, r8)
 8006f68:	080086cf 	.word	0x080086cf
 8006f6c:	080086e6 	.word	0x080086e6

08006f70 <_Bfree>:
 8006f70:	b570      	push	{r4, r5, r6, lr}
 8006f72:	69c6      	ldr	r6, [r0, #28]
 8006f74:	0005      	movs	r5, r0
 8006f76:	000c      	movs	r4, r1
 8006f78:	2e00      	cmp	r6, #0
 8006f7a:	d10e      	bne.n	8006f9a <_Bfree+0x2a>
 8006f7c:	2010      	movs	r0, #16
 8006f7e:	f001 f8ed 	bl	800815c <malloc>
 8006f82:	1e02      	subs	r2, r0, #0
 8006f84:	61e8      	str	r0, [r5, #28]
 8006f86:	d104      	bne.n	8006f92 <_Bfree+0x22>
 8006f88:	218f      	movs	r1, #143	@ 0x8f
 8006f8a:	4b09      	ldr	r3, [pc, #36]	@ (8006fb0 <_Bfree+0x40>)
 8006f8c:	4809      	ldr	r0, [pc, #36]	@ (8006fb4 <_Bfree+0x44>)
 8006f8e:	f001 f899 	bl	80080c4 <__assert_func>
 8006f92:	6046      	str	r6, [r0, #4]
 8006f94:	6086      	str	r6, [r0, #8]
 8006f96:	6006      	str	r6, [r0, #0]
 8006f98:	60c6      	str	r6, [r0, #12]
 8006f9a:	2c00      	cmp	r4, #0
 8006f9c:	d007      	beq.n	8006fae <_Bfree+0x3e>
 8006f9e:	69eb      	ldr	r3, [r5, #28]
 8006fa0:	6862      	ldr	r2, [r4, #4]
 8006fa2:	68db      	ldr	r3, [r3, #12]
 8006fa4:	0092      	lsls	r2, r2, #2
 8006fa6:	189b      	adds	r3, r3, r2
 8006fa8:	681a      	ldr	r2, [r3, #0]
 8006faa:	6022      	str	r2, [r4, #0]
 8006fac:	601c      	str	r4, [r3, #0]
 8006fae:	bd70      	pop	{r4, r5, r6, pc}
 8006fb0:	080086cf 	.word	0x080086cf
 8006fb4:	080086e6 	.word	0x080086e6

08006fb8 <__multadd>:
 8006fb8:	b5f7      	push	{r0, r1, r2, r4, r5, r6, r7, lr}
 8006fba:	000f      	movs	r7, r1
 8006fbc:	9001      	str	r0, [sp, #4]
 8006fbe:	000c      	movs	r4, r1
 8006fc0:	001e      	movs	r6, r3
 8006fc2:	2000      	movs	r0, #0
 8006fc4:	690d      	ldr	r5, [r1, #16]
 8006fc6:	3714      	adds	r7, #20
 8006fc8:	683b      	ldr	r3, [r7, #0]
 8006fca:	3001      	adds	r0, #1
 8006fcc:	b299      	uxth	r1, r3
 8006fce:	4351      	muls	r1, r2
 8006fd0:	0c1b      	lsrs	r3, r3, #16
 8006fd2:	4353      	muls	r3, r2
 8006fd4:	1989      	adds	r1, r1, r6
 8006fd6:	0c0e      	lsrs	r6, r1, #16
 8006fd8:	199b      	adds	r3, r3, r6
 8006fda:	0c1e      	lsrs	r6, r3, #16
 8006fdc:	b289      	uxth	r1, r1
 8006fde:	041b      	lsls	r3, r3, #16
 8006fe0:	185b      	adds	r3, r3, r1
 8006fe2:	c708      	stmia	r7!, {r3}
 8006fe4:	4285      	cmp	r5, r0
 8006fe6:	dcef      	bgt.n	8006fc8 <__multadd+0x10>
 8006fe8:	2e00      	cmp	r6, #0
 8006fea:	d022      	beq.n	8007032 <__multadd+0x7a>
 8006fec:	68a3      	ldr	r3, [r4, #8]
 8006fee:	42ab      	cmp	r3, r5
 8006ff0:	dc19      	bgt.n	8007026 <__multadd+0x6e>
 8006ff2:	6861      	ldr	r1, [r4, #4]
 8006ff4:	9801      	ldr	r0, [sp, #4]
 8006ff6:	3101      	adds	r1, #1
 8006ff8:	f7ff ff76 	bl	8006ee8 <_Balloc>
 8006ffc:	1e07      	subs	r7, r0, #0
 8006ffe:	d105      	bne.n	800700c <__multadd+0x54>
 8007000:	003a      	movs	r2, r7
 8007002:	21ba      	movs	r1, #186	@ 0xba
 8007004:	4b0c      	ldr	r3, [pc, #48]	@ (8007038 <__multadd+0x80>)
 8007006:	480d      	ldr	r0, [pc, #52]	@ (800703c <__multadd+0x84>)
 8007008:	f001 f85c 	bl	80080c4 <__assert_func>
 800700c:	0021      	movs	r1, r4
 800700e:	6922      	ldr	r2, [r4, #16]
 8007010:	310c      	adds	r1, #12
 8007012:	3202      	adds	r2, #2
 8007014:	0092      	lsls	r2, r2, #2
 8007016:	300c      	adds	r0, #12
 8007018:	f7ff faef 	bl	80065fa <memcpy>
 800701c:	0021      	movs	r1, r4
 800701e:	9801      	ldr	r0, [sp, #4]
 8007020:	f7ff ffa6 	bl	8006f70 <_Bfree>
 8007024:	003c      	movs	r4, r7
 8007026:	1d2b      	adds	r3, r5, #4
 8007028:	009b      	lsls	r3, r3, #2
 800702a:	18e3      	adds	r3, r4, r3
 800702c:	3501      	adds	r5, #1
 800702e:	605e      	str	r6, [r3, #4]
 8007030:	6125      	str	r5, [r4, #16]
 8007032:	0020      	movs	r0, r4
 8007034:	bdfe      	pop	{r1, r2, r3, r4, r5, r6, r7, pc}
 8007036:	46c0      	nop			@ (mov r8, r8)
 8007038:	0800865e 	.word	0x0800865e
 800703c:	080086e6 	.word	0x080086e6

08007040 <__s2b>:
 8007040:	b5f7      	push	{r0, r1, r2, r4, r5, r6, r7, lr}
 8007042:	0007      	movs	r7, r0
 8007044:	0018      	movs	r0, r3
 8007046:	000c      	movs	r4, r1
 8007048:	3008      	adds	r0, #8
 800704a:	2109      	movs	r1, #9
 800704c:	9301      	str	r3, [sp, #4]
 800704e:	0015      	movs	r5, r2
 8007050:	f7f9 f900 	bl	8000254 <__divsi3>
 8007054:	2301      	movs	r3, #1
 8007056:	2100      	movs	r1, #0
 8007058:	4283      	cmp	r3, r0
 800705a:	db0a      	blt.n	8007072 <__s2b+0x32>
 800705c:	0038      	movs	r0, r7
 800705e:	f7ff ff43 	bl	8006ee8 <_Balloc>
 8007062:	1e01      	subs	r1, r0, #0
 8007064:	d108      	bne.n	8007078 <__s2b+0x38>
 8007066:	000a      	movs	r2, r1
 8007068:	4b19      	ldr	r3, [pc, #100]	@ (80070d0 <__s2b+0x90>)
 800706a:	481a      	ldr	r0, [pc, #104]	@ (80070d4 <__s2b+0x94>)
 800706c:	31d3      	adds	r1, #211	@ 0xd3
 800706e:	f001 f829 	bl	80080c4 <__assert_func>
 8007072:	005b      	lsls	r3, r3, #1
 8007074:	3101      	adds	r1, #1
 8007076:	e7ef      	b.n	8007058 <__s2b+0x18>
 8007078:	9b08      	ldr	r3, [sp, #32]
 800707a:	6143      	str	r3, [r0, #20]
 800707c:	2301      	movs	r3, #1
 800707e:	6103      	str	r3, [r0, #16]
 8007080:	2d09      	cmp	r5, #9
 8007082:	dd18      	ble.n	80070b6 <__s2b+0x76>
 8007084:	0023      	movs	r3, r4
 8007086:	3309      	adds	r3, #9
 8007088:	001e      	movs	r6, r3
 800708a:	9300      	str	r3, [sp, #0]
 800708c:	1964      	adds	r4, r4, r5
 800708e:	7833      	ldrb	r3, [r6, #0]
 8007090:	220a      	movs	r2, #10
 8007092:	0038      	movs	r0, r7
 8007094:	3b30      	subs	r3, #48	@ 0x30
 8007096:	f7ff ff8f 	bl	8006fb8 <__multadd>
 800709a:	3601      	adds	r6, #1
 800709c:	0001      	movs	r1, r0
 800709e:	42a6      	cmp	r6, r4
 80070a0:	d1f5      	bne.n	800708e <__s2b+0x4e>
 80070a2:	002c      	movs	r4, r5
 80070a4:	9b00      	ldr	r3, [sp, #0]
 80070a6:	3c08      	subs	r4, #8
 80070a8:	191c      	adds	r4, r3, r4
 80070aa:	002e      	movs	r6, r5
 80070ac:	9b01      	ldr	r3, [sp, #4]
 80070ae:	429e      	cmp	r6, r3
 80070b0:	db04      	blt.n	80070bc <__s2b+0x7c>
 80070b2:	0008      	movs	r0, r1
 80070b4:	bdfe      	pop	{r1, r2, r3, r4, r5, r6, r7, pc}
 80070b6:	2509      	movs	r5, #9
 80070b8:	340a      	adds	r4, #10
 80070ba:	e7f6      	b.n	80070aa <__s2b+0x6a>
 80070bc:	1b63      	subs	r3, r4, r5
 80070be:	5d9b      	ldrb	r3, [r3, r6]
 80070c0:	220a      	movs	r2, #10
 80070c2:	0038      	movs	r0, r7
 80070c4:	3b30      	subs	r3, #48	@ 0x30
 80070c6:	f7ff ff77 	bl	8006fb8 <__multadd>
 80070ca:	3601      	adds	r6, #1
 80070cc:	0001      	movs	r1, r0
 80070ce:	e7ed      	b.n	80070ac <__s2b+0x6c>
 80070d0:	0800865e 	.word	0x0800865e
 80070d4:	080086e6 	.word	0x080086e6

080070d8 <__hi0bits>:
 80070d8:	2280      	movs	r2, #128	@ 0x80
 80070da:	0003      	movs	r3, r0
 80070dc:	0252      	lsls	r2, r2, #9
 80070de:	2000      	movs	r0, #0
 80070e0:	4293      	cmp	r3, r2
 80070e2:	d201      	bcs.n	80070e8 <__hi0bits+0x10>
 80070e4:	041b      	lsls	r3, r3, #16
 80070e6:	3010      	adds	r0, #16
 80070e8:	2280      	movs	r2, #128	@ 0x80
 80070ea:	0452      	lsls	r2, r2, #17
 80070ec:	4293      	cmp	r3, r2
 80070ee:	d201      	bcs.n	80070f4 <__hi0bits+0x1c>
 80070f0:	3008      	adds	r0, #8
 80070f2:	021b      	lsls	r3, r3, #8
 80070f4:	2280      	movs	r2, #128	@ 0x80
 80070f6:	0552      	lsls	r2, r2, #21
 80070f8:	4293      	cmp	r3, r2
 80070fa:	d201      	bcs.n	8007100 <__hi0bits+0x28>
 80070fc:	3004      	adds	r0, #4
 80070fe:	011b      	lsls	r3, r3, #4
 8007100:	2280      	movs	r2, #128	@ 0x80
 8007102:	05d2      	lsls	r2, r2, #23
 8007104:	4293      	cmp	r3, r2
 8007106:	d201      	bcs.n	800710c <__hi0bits+0x34>
 8007108:	3002      	adds	r0, #2
 800710a:	009b      	lsls	r3, r3, #2
 800710c:	2b00      	cmp	r3, #0
 800710e:	db03      	blt.n	8007118 <__hi0bits+0x40>
 8007110:	3001      	adds	r0, #1
 8007112:	4213      	tst	r3, r2
 8007114:	d100      	bne.n	8007118 <__hi0bits+0x40>
 8007116:	2020      	movs	r0, #32
 8007118:	4770      	bx	lr

0800711a <__lo0bits>:
 800711a:	6803      	ldr	r3, [r0, #0]
 800711c:	0001      	movs	r1, r0
 800711e:	2207      	movs	r2, #7
 8007120:	0018      	movs	r0, r3
 8007122:	4010      	ands	r0, r2
 8007124:	4213      	tst	r3, r2
 8007126:	d00d      	beq.n	8007144 <__lo0bits+0x2a>
 8007128:	3a06      	subs	r2, #6
 800712a:	2000      	movs	r0, #0
 800712c:	4213      	tst	r3, r2
 800712e:	d105      	bne.n	800713c <__lo0bits+0x22>
 8007130:	3002      	adds	r0, #2
 8007132:	4203      	tst	r3, r0
 8007134:	d003      	beq.n	800713e <__lo0bits+0x24>
 8007136:	40d3      	lsrs	r3, r2
 8007138:	0010      	movs	r0, r2
 800713a:	600b      	str	r3, [r1, #0]
 800713c:	4770      	bx	lr
 800713e:	089b      	lsrs	r3, r3, #2
 8007140:	600b      	str	r3, [r1, #0]
 8007142:	e7fb      	b.n	800713c <__lo0bits+0x22>
 8007144:	b29a      	uxth	r2, r3
 8007146:	2a00      	cmp	r2, #0
 8007148:	d101      	bne.n	800714e <__lo0bits+0x34>
 800714a:	2010      	movs	r0, #16
 800714c:	0c1b      	lsrs	r3, r3, #16
 800714e:	b2da      	uxtb	r2, r3
 8007150:	2a00      	cmp	r2, #0
 8007152:	d101      	bne.n	8007158 <__lo0bits+0x3e>
 8007154:	3008      	adds	r0, #8
 8007156:	0a1b      	lsrs	r3, r3, #8
 8007158:	071a      	lsls	r2, r3, #28
 800715a:	d101      	bne.n	8007160 <__lo0bits+0x46>
 800715c:	3004      	adds	r0, #4
 800715e:	091b      	lsrs	r3, r3, #4
 8007160:	079a      	lsls	r2, r3, #30
 8007162:	d101      	bne.n	8007168 <__lo0bits+0x4e>
 8007164:	3002      	adds	r0, #2
 8007166:	089b      	lsrs	r3, r3, #2
 8007168:	07da      	lsls	r2, r3, #31
 800716a:	d4e9      	bmi.n	8007140 <__lo0bits+0x26>
 800716c:	3001      	adds	r0, #1
 800716e:	085b      	lsrs	r3, r3, #1
 8007170:	d1e6      	bne.n	8007140 <__lo0bits+0x26>
 8007172:	2020      	movs	r0, #32
 8007174:	e7e2      	b.n	800713c <__lo0bits+0x22>
	...

08007178 <__i2b>:
 8007178:	b510      	push	{r4, lr}
 800717a:	000c      	movs	r4, r1
 800717c:	2101      	movs	r1, #1
 800717e:	f7ff feb3 	bl	8006ee8 <_Balloc>
 8007182:	2800      	cmp	r0, #0
 8007184:	d107      	bne.n	8007196 <__i2b+0x1e>
 8007186:	2146      	movs	r1, #70	@ 0x46
 8007188:	4c05      	ldr	r4, [pc, #20]	@ (80071a0 <__i2b+0x28>)
 800718a:	0002      	movs	r2, r0
 800718c:	4b05      	ldr	r3, [pc, #20]	@ (80071a4 <__i2b+0x2c>)
 800718e:	0020      	movs	r0, r4
 8007190:	31ff      	adds	r1, #255	@ 0xff
 8007192:	f000 ff97 	bl	80080c4 <__assert_func>
 8007196:	2301      	movs	r3, #1
 8007198:	6144      	str	r4, [r0, #20]
 800719a:	6103      	str	r3, [r0, #16]
 800719c:	bd10      	pop	{r4, pc}
 800719e:	46c0      	nop			@ (mov r8, r8)
 80071a0:	080086e6 	.word	0x080086e6
 80071a4:	0800865e 	.word	0x0800865e

080071a8 <__multiply>:
 80071a8:	b5f0      	push	{r4, r5, r6, r7, lr}
 80071aa:	0014      	movs	r4, r2
 80071ac:	690a      	ldr	r2, [r1, #16]
 80071ae:	6923      	ldr	r3, [r4, #16]
 80071b0:	000d      	movs	r5, r1
 80071b2:	b089      	sub	sp, #36	@ 0x24
 80071b4:	429a      	cmp	r2, r3
 80071b6:	db02      	blt.n	80071be <__multiply+0x16>
 80071b8:	0023      	movs	r3, r4
 80071ba:	000c      	movs	r4, r1
 80071bc:	001d      	movs	r5, r3
 80071be:	6927      	ldr	r7, [r4, #16]
 80071c0:	692e      	ldr	r6, [r5, #16]
 80071c2:	6861      	ldr	r1, [r4, #4]
 80071c4:	19bb      	adds	r3, r7, r6
 80071c6:	9300      	str	r3, [sp, #0]
 80071c8:	68a3      	ldr	r3, [r4, #8]
 80071ca:	19ba      	adds	r2, r7, r6
 80071cc:	4293      	cmp	r3, r2
 80071ce:	da00      	bge.n	80071d2 <__multiply+0x2a>
 80071d0:	3101      	adds	r1, #1
 80071d2:	f7ff fe89 	bl	8006ee8 <_Balloc>
 80071d6:	4684      	mov	ip, r0
 80071d8:	2800      	cmp	r0, #0
 80071da:	d106      	bne.n	80071ea <__multiply+0x42>
 80071dc:	21b1      	movs	r1, #177	@ 0xb1
 80071de:	4662      	mov	r2, ip
 80071e0:	4b44      	ldr	r3, [pc, #272]	@ (80072f4 <__multiply+0x14c>)
 80071e2:	4845      	ldr	r0, [pc, #276]	@ (80072f8 <__multiply+0x150>)
 80071e4:	0049      	lsls	r1, r1, #1
 80071e6:	f000 ff6d 	bl	80080c4 <__assert_func>
 80071ea:	0002      	movs	r2, r0
 80071ec:	19bb      	adds	r3, r7, r6
 80071ee:	3214      	adds	r2, #20
 80071f0:	009b      	lsls	r3, r3, #2
 80071f2:	18d3      	adds	r3, r2, r3
 80071f4:	9301      	str	r3, [sp, #4]
 80071f6:	2100      	movs	r1, #0
 80071f8:	0013      	movs	r3, r2
 80071fa:	9801      	ldr	r0, [sp, #4]
 80071fc:	4283      	cmp	r3, r0
 80071fe:	d328      	bcc.n	8007252 <__multiply+0xaa>
 8007200:	0023      	movs	r3, r4
 8007202:	00bf      	lsls	r7, r7, #2
 8007204:	3314      	adds	r3, #20
 8007206:	9304      	str	r3, [sp, #16]
 8007208:	3514      	adds	r5, #20
 800720a:	19db      	adds	r3, r3, r7
 800720c:	00b6      	lsls	r6, r6, #2
 800720e:	9302      	str	r3, [sp, #8]
 8007210:	19ab      	adds	r3, r5, r6
 8007212:	9307      	str	r3, [sp, #28]
 8007214:	2304      	movs	r3, #4
 8007216:	9305      	str	r3, [sp, #20]
 8007218:	0023      	movs	r3, r4
 800721a:	9902      	ldr	r1, [sp, #8]
 800721c:	3315      	adds	r3, #21
 800721e:	4299      	cmp	r1, r3
 8007220:	d305      	bcc.n	800722e <__multiply+0x86>
 8007222:	1b0c      	subs	r4, r1, r4
 8007224:	3c15      	subs	r4, #21
 8007226:	08a4      	lsrs	r4, r4, #2
 8007228:	3401      	adds	r4, #1
 800722a:	00a3      	lsls	r3, r4, #2
 800722c:	9305      	str	r3, [sp, #20]
 800722e:	9b07      	ldr	r3, [sp, #28]
 8007230:	429d      	cmp	r5, r3
 8007232:	d310      	bcc.n	8007256 <__multiply+0xae>
 8007234:	9b00      	ldr	r3, [sp, #0]
 8007236:	2b00      	cmp	r3, #0
 8007238:	dd05      	ble.n	8007246 <__multiply+0x9e>
 800723a:	9b01      	ldr	r3, [sp, #4]
 800723c:	3b04      	subs	r3, #4
 800723e:	9301      	str	r3, [sp, #4]
 8007240:	681b      	ldr	r3, [r3, #0]
 8007242:	2b00      	cmp	r3, #0
 8007244:	d052      	beq.n	80072ec <__multiply+0x144>
 8007246:	4663      	mov	r3, ip
 8007248:	4660      	mov	r0, ip
 800724a:	9a00      	ldr	r2, [sp, #0]
 800724c:	611a      	str	r2, [r3, #16]
 800724e:	b009      	add	sp, #36	@ 0x24
 8007250:	bdf0      	pop	{r4, r5, r6, r7, pc}
 8007252:	c302      	stmia	r3!, {r1}
 8007254:	e7d1      	b.n	80071fa <__multiply+0x52>
 8007256:	682c      	ldr	r4, [r5, #0]
 8007258:	b2a4      	uxth	r4, r4
 800725a:	2c00      	cmp	r4, #0
 800725c:	d01f      	beq.n	800729e <__multiply+0xf6>
 800725e:	2300      	movs	r3, #0
 8007260:	0017      	movs	r7, r2
 8007262:	9e04      	ldr	r6, [sp, #16]
 8007264:	9303      	str	r3, [sp, #12]
 8007266:	ce08      	ldmia	r6!, {r3}
 8007268:	6839      	ldr	r1, [r7, #0]
 800726a:	9306      	str	r3, [sp, #24]
 800726c:	466b      	mov	r3, sp
 800726e:	8b1b      	ldrh	r3, [r3, #24]
 8007270:	b288      	uxth	r0, r1
 8007272:	4363      	muls	r3, r4
 8007274:	181b      	adds	r3, r3, r0
 8007276:	9803      	ldr	r0, [sp, #12]
 8007278:	0c09      	lsrs	r1, r1, #16
 800727a:	181b      	adds	r3, r3, r0
 800727c:	9806      	ldr	r0, [sp, #24]
 800727e:	0c00      	lsrs	r0, r0, #16
 8007280:	4360      	muls	r0, r4
 8007282:	1840      	adds	r0, r0, r1
 8007284:	0c19      	lsrs	r1, r3, #16
 8007286:	1841      	adds	r1, r0, r1
 8007288:	0c08      	lsrs	r0, r1, #16
 800728a:	b29b      	uxth	r3, r3
 800728c:	0409      	lsls	r1, r1, #16
 800728e:	4319      	orrs	r1, r3
 8007290:	9b02      	ldr	r3, [sp, #8]
 8007292:	9003      	str	r0, [sp, #12]
 8007294:	c702      	stmia	r7!, {r1}
 8007296:	42b3      	cmp	r3, r6
 8007298:	d8e5      	bhi.n	8007266 <__multiply+0xbe>
 800729a:	9b05      	ldr	r3, [sp, #20]
 800729c:	50d0      	str	r0, [r2, r3]
 800729e:	682c      	ldr	r4, [r5, #0]
 80072a0:	0c24      	lsrs	r4, r4, #16
 80072a2:	d020      	beq.n	80072e6 <__multiply+0x13e>
 80072a4:	2100      	movs	r1, #0
 80072a6:	0010      	movs	r0, r2
 80072a8:	6813      	ldr	r3, [r2, #0]
 80072aa:	9e04      	ldr	r6, [sp, #16]
 80072ac:	9103      	str	r1, [sp, #12]
 80072ae:	6831      	ldr	r1, [r6, #0]
 80072b0:	6807      	ldr	r7, [r0, #0]
 80072b2:	b289      	uxth	r1, r1
 80072b4:	4361      	muls	r1, r4
 80072b6:	0c3f      	lsrs	r7, r7, #16
 80072b8:	19c9      	adds	r1, r1, r7
 80072ba:	9f03      	ldr	r7, [sp, #12]
 80072bc:	b29b      	uxth	r3, r3
 80072be:	19c9      	adds	r1, r1, r7
 80072c0:	040f      	lsls	r7, r1, #16
 80072c2:	431f      	orrs	r7, r3
 80072c4:	6007      	str	r7, [r0, #0]
 80072c6:	ce80      	ldmia	r6!, {r7}
 80072c8:	6843      	ldr	r3, [r0, #4]
 80072ca:	0c3f      	lsrs	r7, r7, #16
 80072cc:	4367      	muls	r7, r4
 80072ce:	b29b      	uxth	r3, r3
 80072d0:	0c09      	lsrs	r1, r1, #16
 80072d2:	18fb      	adds	r3, r7, r3
 80072d4:	185b      	adds	r3, r3, r1
 80072d6:	0c19      	lsrs	r1, r3, #16
 80072d8:	9103      	str	r1, [sp, #12]
 80072da:	9902      	ldr	r1, [sp, #8]
 80072dc:	3004      	adds	r0, #4
 80072de:	42b1      	cmp	r1, r6
 80072e0:	d8e5      	bhi.n	80072ae <__multiply+0x106>
 80072e2:	9905      	ldr	r1, [sp, #20]
 80072e4:	5053      	str	r3, [r2, r1]
 80072e6:	3504      	adds	r5, #4
 80072e8:	3204      	adds	r2, #4
 80072ea:	e7a0      	b.n	800722e <__multiply+0x86>
 80072ec:	9b00      	ldr	r3, [sp, #0]
 80072ee:	3b01      	subs	r3, #1
 80072f0:	9300      	str	r3, [sp, #0]
 80072f2:	e79f      	b.n	8007234 <__multiply+0x8c>
 80072f4:	0800865e 	.word	0x0800865e
 80072f8:	080086e6 	.word	0x080086e6

080072fc <__pow5mult>:
 80072fc:	b5f7      	push	{r0, r1, r2, r4, r5, r6, r7, lr}
 80072fe:	2303      	movs	r3, #3
 8007300:	0015      	movs	r5, r2
 8007302:	0007      	movs	r7, r0
 8007304:	000e      	movs	r6, r1
 8007306:	401a      	ands	r2, r3
 8007308:	421d      	tst	r5, r3
 800730a:	d008      	beq.n	800731e <__pow5mult+0x22>
 800730c:	4925      	ldr	r1, [pc, #148]	@ (80073a4 <__pow5mult+0xa8>)
 800730e:	3a01      	subs	r2, #1
 8007310:	0092      	lsls	r2, r2, #2
 8007312:	5852      	ldr	r2, [r2, r1]
 8007314:	2300      	movs	r3, #0
 8007316:	0031      	movs	r1, r6
 8007318:	f7ff fe4e 	bl	8006fb8 <__multadd>
 800731c:	0006      	movs	r6, r0
 800731e:	10ad      	asrs	r5, r5, #2
 8007320:	d03d      	beq.n	800739e <__pow5mult+0xa2>
 8007322:	69fc      	ldr	r4, [r7, #28]
 8007324:	2c00      	cmp	r4, #0
 8007326:	d10f      	bne.n	8007348 <__pow5mult+0x4c>
 8007328:	2010      	movs	r0, #16
 800732a:	f000 ff17 	bl	800815c <malloc>
 800732e:	1e02      	subs	r2, r0, #0
 8007330:	61f8      	str	r0, [r7, #28]
 8007332:	d105      	bne.n	8007340 <__pow5mult+0x44>
 8007334:	21b4      	movs	r1, #180	@ 0xb4
 8007336:	4b1c      	ldr	r3, [pc, #112]	@ (80073a8 <__pow5mult+0xac>)
 8007338:	481c      	ldr	r0, [pc, #112]	@ (80073ac <__pow5mult+0xb0>)
 800733a:	31ff      	adds	r1, #255	@ 0xff
 800733c:	f000 fec2 	bl	80080c4 <__assert_func>
 8007340:	6044      	str	r4, [r0, #4]
 8007342:	6084      	str	r4, [r0, #8]
 8007344:	6004      	str	r4, [r0, #0]
 8007346:	60c4      	str	r4, [r0, #12]
 8007348:	69fb      	ldr	r3, [r7, #28]
 800734a:	689c      	ldr	r4, [r3, #8]
 800734c:	9301      	str	r3, [sp, #4]
 800734e:	2c00      	cmp	r4, #0
 8007350:	d108      	bne.n	8007364 <__pow5mult+0x68>
 8007352:	0038      	movs	r0, r7
 8007354:	4916      	ldr	r1, [pc, #88]	@ (80073b0 <__pow5mult+0xb4>)
 8007356:	f7ff ff0f 	bl	8007178 <__i2b>
 800735a:	9b01      	ldr	r3, [sp, #4]
 800735c:	0004      	movs	r4, r0
 800735e:	6098      	str	r0, [r3, #8]
 8007360:	2300      	movs	r3, #0
 8007362:	6003      	str	r3, [r0, #0]
 8007364:	2301      	movs	r3, #1
 8007366:	421d      	tst	r5, r3
 8007368:	d00a      	beq.n	8007380 <__pow5mult+0x84>
 800736a:	0031      	movs	r1, r6
 800736c:	0022      	movs	r2, r4
 800736e:	0038      	movs	r0, r7
 8007370:	f7ff ff1a 	bl	80071a8 <__multiply>
 8007374:	0031      	movs	r1, r6
 8007376:	9001      	str	r0, [sp, #4]
 8007378:	0038      	movs	r0, r7
 800737a:	f7ff fdf9 	bl	8006f70 <_Bfree>
 800737e:	9e01      	ldr	r6, [sp, #4]
 8007380:	106d      	asrs	r5, r5, #1
 8007382:	d00c      	beq.n	800739e <__pow5mult+0xa2>
 8007384:	6820      	ldr	r0, [r4, #0]
 8007386:	2800      	cmp	r0, #0
 8007388:	d107      	bne.n	800739a <__pow5mult+0x9e>
 800738a:	0022      	movs	r2, r4
 800738c:	0021      	movs	r1, r4
 800738e:	0038      	movs	r0, r7
 8007390:	f7ff ff0a 	bl	80071a8 <__multiply>
 8007394:	2300      	movs	r3, #0
 8007396:	6020      	str	r0, [r4, #0]
 8007398:	6003      	str	r3, [r0, #0]
 800739a:	0004      	movs	r4, r0
 800739c:	e7e2      	b.n	8007364 <__pow5mult+0x68>
 800739e:	0030      	movs	r0, r6
 80073a0:	bdfe      	pop	{r1, r2, r3, r4, r5, r6, r7, pc}
 80073a2:	46c0      	nop			@ (mov r8, r8)
 80073a4:	08008800 	.word	0x08008800
 80073a8:	080086cf 	.word	0x080086cf
 80073ac:	080086e6 	.word	0x080086e6
 80073b0:	00000271 	.word	0x00000271

080073b4 <__lshift>:
 80073b4:	b5f0      	push	{r4, r5, r6, r7, lr}
 80073b6:	000c      	movs	r4, r1
 80073b8:	0016      	movs	r6, r2
 80073ba:	6923      	ldr	r3, [r4, #16]
 80073bc:	1157      	asrs	r7, r2, #5
 80073be:	b085      	sub	sp, #20
 80073c0:	18fb      	adds	r3, r7, r3
 80073c2:	9301      	str	r3, [sp, #4]
 80073c4:	3301      	adds	r3, #1
 80073c6:	9300      	str	r3, [sp, #0]
 80073c8:	6849      	ldr	r1, [r1, #4]
 80073ca:	68a3      	ldr	r3, [r4, #8]
 80073cc:	9002      	str	r0, [sp, #8]
 80073ce:	9a00      	ldr	r2, [sp, #0]
 80073d0:	4293      	cmp	r3, r2
 80073d2:	db10      	blt.n	80073f6 <__lshift+0x42>
 80073d4:	9802      	ldr	r0, [sp, #8]
 80073d6:	f7ff fd87 	bl	8006ee8 <_Balloc>
 80073da:	2300      	movs	r3, #0
 80073dc:	0001      	movs	r1, r0
 80073de:	0005      	movs	r5, r0
 80073e0:	001a      	movs	r2, r3
 80073e2:	3114      	adds	r1, #20
 80073e4:	4298      	cmp	r0, r3
 80073e6:	d10c      	bne.n	8007402 <__lshift+0x4e>
 80073e8:	21ef      	movs	r1, #239	@ 0xef
 80073ea:	002a      	movs	r2, r5
 80073ec:	4b25      	ldr	r3, [pc, #148]	@ (8007484 <__lshift+0xd0>)
 80073ee:	4826      	ldr	r0, [pc, #152]	@ (8007488 <__lshift+0xd4>)
 80073f0:	0049      	lsls	r1, r1, #1
 80073f2:	f000 fe67 	bl	80080c4 <__assert_func>
 80073f6:	3101      	adds	r1, #1
 80073f8:	005b      	lsls	r3, r3, #1
 80073fa:	e7e8      	b.n	80073ce <__lshift+0x1a>
 80073fc:	0098      	lsls	r0, r3, #2
 80073fe:	500a      	str	r2, [r1, r0]
 8007400:	3301      	adds	r3, #1
 8007402:	42bb      	cmp	r3, r7
 8007404:	dbfa      	blt.n	80073fc <__lshift+0x48>
 8007406:	43fb      	mvns	r3, r7
 8007408:	17db      	asrs	r3, r3, #31
 800740a:	401f      	ands	r7, r3
 800740c:	00bf      	lsls	r7, r7, #2
 800740e:	0023      	movs	r3, r4
 8007410:	201f      	movs	r0, #31
 8007412:	19c9      	adds	r1, r1, r7
 8007414:	0037      	movs	r7, r6
 8007416:	6922      	ldr	r2, [r4, #16]
 8007418:	3314      	adds	r3, #20
 800741a:	0092      	lsls	r2, r2, #2
 800741c:	189a      	adds	r2, r3, r2
 800741e:	4007      	ands	r7, r0
 8007420:	4206      	tst	r6, r0
 8007422:	d029      	beq.n	8007478 <__lshift+0xc4>
 8007424:	3001      	adds	r0, #1
 8007426:	1bc0      	subs	r0, r0, r7
 8007428:	9003      	str	r0, [sp, #12]
 800742a:	468c      	mov	ip, r1
 800742c:	2000      	movs	r0, #0
 800742e:	681e      	ldr	r6, [r3, #0]
 8007430:	40be      	lsls	r6, r7
 8007432:	4306      	orrs	r6, r0
 8007434:	4660      	mov	r0, ip
 8007436:	c040      	stmia	r0!, {r6}
 8007438:	4684      	mov	ip, r0
 800743a:	9e03      	ldr	r6, [sp, #12]
 800743c:	cb01      	ldmia	r3!, {r0}
 800743e:	40f0      	lsrs	r0, r6
 8007440:	429a      	cmp	r2, r3
 8007442:	d8f4      	bhi.n	800742e <__lshift+0x7a>
 8007444:	0026      	movs	r6, r4
 8007446:	3615      	adds	r6, #21
 8007448:	2304      	movs	r3, #4
 800744a:	42b2      	cmp	r2, r6
 800744c:	d304      	bcc.n	8007458 <__lshift+0xa4>
 800744e:	1b13      	subs	r3, r2, r4
 8007450:	3b15      	subs	r3, #21
 8007452:	089b      	lsrs	r3, r3, #2
 8007454:	3301      	adds	r3, #1
 8007456:	009b      	lsls	r3, r3, #2
 8007458:	50c8      	str	r0, [r1, r3]
 800745a:	2800      	cmp	r0, #0
 800745c:	d002      	beq.n	8007464 <__lshift+0xb0>
 800745e:	9b01      	ldr	r3, [sp, #4]
 8007460:	3302      	adds	r3, #2
 8007462:	9300      	str	r3, [sp, #0]
 8007464:	9b00      	ldr	r3, [sp, #0]
 8007466:	9802      	ldr	r0, [sp, #8]
 8007468:	3b01      	subs	r3, #1
 800746a:	0021      	movs	r1, r4
 800746c:	612b      	str	r3, [r5, #16]
 800746e:	f7ff fd7f 	bl	8006f70 <_Bfree>
 8007472:	0028      	movs	r0, r5
 8007474:	b005      	add	sp, #20
 8007476:	bdf0      	pop	{r4, r5, r6, r7, pc}
 8007478:	cb01      	ldmia	r3!, {r0}
 800747a:	c101      	stmia	r1!, {r0}
 800747c:	429a      	cmp	r2, r3
 800747e:	d8fb      	bhi.n	8007478 <__lshift+0xc4>
 8007480:	e7f0      	b.n	8007464 <__lshift+0xb0>
 8007482:	46c0      	nop			@ (mov r8, r8)
 8007484:	0800865e 	.word	0x0800865e
 8007488:	080086e6 	.word	0x080086e6

0800748c <__mcmp>:
 800748c:	b530      	push	{r4, r5, lr}
 800748e:	690b      	ldr	r3, [r1, #16]
 8007490:	6904      	ldr	r4, [r0, #16]
 8007492:	0002      	movs	r2, r0
 8007494:	1ae0      	subs	r0, r4, r3
 8007496:	429c      	cmp	r4, r3
 8007498:	d10f      	bne.n	80074ba <__mcmp+0x2e>
 800749a:	3214      	adds	r2, #20
 800749c:	009b      	lsls	r3, r3, #2
 800749e:	3114      	adds	r1, #20
 80074a0:	0014      	movs	r4, r2
 80074a2:	18c9      	adds	r1, r1, r3
 80074a4:	18d2      	adds	r2, r2, r3
 80074a6:	3a04      	subs	r2, #4
 80074a8:	3904      	subs	r1, #4
 80074aa:	6815      	ldr	r5, [r2, #0]
 80074ac:	680b      	ldr	r3, [r1, #0]
 80074ae:	429d      	cmp	r5, r3
 80074b0:	d004      	beq.n	80074bc <__mcmp+0x30>
 80074b2:	2001      	movs	r0, #1
 80074b4:	429d      	cmp	r5, r3
 80074b6:	d200      	bcs.n	80074ba <__mcmp+0x2e>
 80074b8:	3802      	subs	r0, #2
 80074ba:	bd30      	pop	{r4, r5, pc}
 80074bc:	4294      	cmp	r4, r2
 80074be:	d3f2      	bcc.n	80074a6 <__mcmp+0x1a>
 80074c0:	e7fb      	b.n	80074ba <__mcmp+0x2e>
	...

080074c4 <__mdiff>:
 80074c4:	b5f0      	push	{r4, r5, r6, r7, lr}
 80074c6:	000c      	movs	r4, r1
 80074c8:	b087      	sub	sp, #28
 80074ca:	9000      	str	r0, [sp, #0]
 80074cc:	0011      	movs	r1, r2
 80074ce:	0020      	movs	r0, r4
 80074d0:	0017      	movs	r7, r2
 80074d2:	f7ff ffdb 	bl	800748c <__mcmp>
 80074d6:	1e05      	subs	r5, r0, #0
 80074d8:	d110      	bne.n	80074fc <__mdiff+0x38>
 80074da:	0001      	movs	r1, r0
 80074dc:	9800      	ldr	r0, [sp, #0]
 80074de:	f7ff fd03 	bl	8006ee8 <_Balloc>
 80074e2:	1e02      	subs	r2, r0, #0
 80074e4:	d104      	bne.n	80074f0 <__mdiff+0x2c>
 80074e6:	4b40      	ldr	r3, [pc, #256]	@ (80075e8 <__mdiff+0x124>)
 80074e8:	4840      	ldr	r0, [pc, #256]	@ (80075ec <__mdiff+0x128>)
 80074ea:	4941      	ldr	r1, [pc, #260]	@ (80075f0 <__mdiff+0x12c>)
 80074ec:	f000 fdea 	bl	80080c4 <__assert_func>
 80074f0:	2301      	movs	r3, #1
 80074f2:	6145      	str	r5, [r0, #20]
 80074f4:	6103      	str	r3, [r0, #16]
 80074f6:	0010      	movs	r0, r2
 80074f8:	b007      	add	sp, #28
 80074fa:	bdf0      	pop	{r4, r5, r6, r7, pc}
 80074fc:	2600      	movs	r6, #0
 80074fe:	42b0      	cmp	r0, r6
 8007500:	da03      	bge.n	800750a <__mdiff+0x46>
 8007502:	0023      	movs	r3, r4
 8007504:	003c      	movs	r4, r7
 8007506:	001f      	movs	r7, r3
 8007508:	3601      	adds	r6, #1
 800750a:	6861      	ldr	r1, [r4, #4]
 800750c:	9800      	ldr	r0, [sp, #0]
 800750e:	f7ff fceb 	bl	8006ee8 <_Balloc>
 8007512:	1e02      	subs	r2, r0, #0
 8007514:	d103      	bne.n	800751e <__mdiff+0x5a>
 8007516:	4b34      	ldr	r3, [pc, #208]	@ (80075e8 <__mdiff+0x124>)
 8007518:	4834      	ldr	r0, [pc, #208]	@ (80075ec <__mdiff+0x128>)
 800751a:	4936      	ldr	r1, [pc, #216]	@ (80075f4 <__mdiff+0x130>)
 800751c:	e7e6      	b.n	80074ec <__mdiff+0x28>
 800751e:	6923      	ldr	r3, [r4, #16]
 8007520:	3414      	adds	r4, #20
 8007522:	9300      	str	r3, [sp, #0]
 8007524:	009b      	lsls	r3, r3, #2
 8007526:	18e3      	adds	r3, r4, r3
 8007528:	0021      	movs	r1, r4
 800752a:	9401      	str	r4, [sp, #4]
 800752c:	003c      	movs	r4, r7
 800752e:	9302      	str	r3, [sp, #8]
 8007530:	693b      	ldr	r3, [r7, #16]
 8007532:	3414      	adds	r4, #20
 8007534:	009b      	lsls	r3, r3, #2
 8007536:	18e3      	adds	r3, r4, r3
 8007538:	9303      	str	r3, [sp, #12]
 800753a:	0003      	movs	r3, r0
 800753c:	60c6      	str	r6, [r0, #12]
 800753e:	468c      	mov	ip, r1
 8007540:	2000      	movs	r0, #0
 8007542:	3314      	adds	r3, #20
 8007544:	9304      	str	r3, [sp, #16]
 8007546:	9305      	str	r3, [sp, #20]
 8007548:	4663      	mov	r3, ip
 800754a:	cb20      	ldmia	r3!, {r5}
 800754c:	b2a9      	uxth	r1, r5
 800754e:	000e      	movs	r6, r1
 8007550:	469c      	mov	ip, r3
 8007552:	cc08      	ldmia	r4!, {r3}
 8007554:	0c2d      	lsrs	r5, r5, #16
 8007556:	b299      	uxth	r1, r3
 8007558:	1a71      	subs	r1, r6, r1
 800755a:	1809      	adds	r1, r1, r0
 800755c:	0c1b      	lsrs	r3, r3, #16
 800755e:	1408      	asrs	r0, r1, #16
 8007560:	1aeb      	subs	r3, r5, r3
 8007562:	181b      	adds	r3, r3, r0
 8007564:	1418      	asrs	r0, r3, #16
 8007566:	b289      	uxth	r1, r1
 8007568:	041b      	lsls	r3, r3, #16
 800756a:	4319      	orrs	r1, r3
 800756c:	9b05      	ldr	r3, [sp, #20]
 800756e:	c302      	stmia	r3!, {r1}
 8007570:	9305      	str	r3, [sp, #20]
 8007572:	9b03      	ldr	r3, [sp, #12]
 8007574:	42a3      	cmp	r3, r4
 8007576:	d8e7      	bhi.n	8007548 <__mdiff+0x84>
 8007578:	0039      	movs	r1, r7
 800757a:	9c03      	ldr	r4, [sp, #12]
 800757c:	3115      	adds	r1, #21
 800757e:	2304      	movs	r3, #4
 8007580:	428c      	cmp	r4, r1
 8007582:	d304      	bcc.n	800758e <__mdiff+0xca>
 8007584:	1be3      	subs	r3, r4, r7
 8007586:	3b15      	subs	r3, #21
 8007588:	089b      	lsrs	r3, r3, #2
 800758a:	3301      	adds	r3, #1
 800758c:	009b      	lsls	r3, r3, #2
 800758e:	9901      	ldr	r1, [sp, #4]
 8007590:	18cd      	adds	r5, r1, r3
 8007592:	9904      	ldr	r1, [sp, #16]
 8007594:	002e      	movs	r6, r5
 8007596:	18cb      	adds	r3, r1, r3
 8007598:	001f      	movs	r7, r3
 800759a:	9902      	ldr	r1, [sp, #8]
 800759c:	428e      	cmp	r6, r1
 800759e:	d311      	bcc.n	80075c4 <__mdiff+0x100>
 80075a0:	9c02      	ldr	r4, [sp, #8]
 80075a2:	1ee9      	subs	r1, r5, #3
 80075a4:	2000      	movs	r0, #0
 80075a6:	428c      	cmp	r4, r1
 80075a8:	d304      	bcc.n	80075b4 <__mdiff+0xf0>
 80075aa:	0021      	movs	r1, r4
 80075ac:	3103      	adds	r1, #3
 80075ae:	1b49      	subs	r1, r1, r5
 80075b0:	0889      	lsrs	r1, r1, #2
 80075b2:	0088      	lsls	r0, r1, #2
 80075b4:	181b      	adds	r3, r3, r0
 80075b6:	3b04      	subs	r3, #4
 80075b8:	6819      	ldr	r1, [r3, #0]
 80075ba:	2900      	cmp	r1, #0
 80075bc:	d010      	beq.n	80075e0 <__mdiff+0x11c>
 80075be:	9b00      	ldr	r3, [sp, #0]
 80075c0:	6113      	str	r3, [r2, #16]
 80075c2:	e798      	b.n	80074f6 <__mdiff+0x32>
 80075c4:	4684      	mov	ip, r0
 80075c6:	ce02      	ldmia	r6!, {r1}
 80075c8:	b288      	uxth	r0, r1
 80075ca:	4460      	add	r0, ip
 80075cc:	1400      	asrs	r0, r0, #16
 80075ce:	0c0c      	lsrs	r4, r1, #16
 80075d0:	1904      	adds	r4, r0, r4
 80075d2:	4461      	add	r1, ip
 80075d4:	1420      	asrs	r0, r4, #16
 80075d6:	b289      	uxth	r1, r1
 80075d8:	0424      	lsls	r4, r4, #16
 80075da:	4321      	orrs	r1, r4
 80075dc:	c702      	stmia	r7!, {r1}
 80075de:	e7dc      	b.n	800759a <__mdiff+0xd6>
 80075e0:	9900      	ldr	r1, [sp, #0]
 80075e2:	3901      	subs	r1, #1
 80075e4:	9100      	str	r1, [sp, #0]
 80075e6:	e7e6      	b.n	80075b6 <__mdiff+0xf2>
 80075e8:	0800865e 	.word	0x0800865e
 80075ec:	080086e6 	.word	0x080086e6
 80075f0:	00000237 	.word	0x00000237
 80075f4:	00000245 	.word	0x00000245

080075f8 <__ulp>:
 80075f8:	b510      	push	{r4, lr}
 80075fa:	2400      	movs	r4, #0
 80075fc:	4b0c      	ldr	r3, [pc, #48]	@ (8007630 <__ulp+0x38>)
 80075fe:	4a0d      	ldr	r2, [pc, #52]	@ (8007634 <__ulp+0x3c>)
 8007600:	400b      	ands	r3, r1
 8007602:	189b      	adds	r3, r3, r2
 8007604:	42a3      	cmp	r3, r4
 8007606:	dc06      	bgt.n	8007616 <__ulp+0x1e>
 8007608:	425b      	negs	r3, r3
 800760a:	151a      	asrs	r2, r3, #20
 800760c:	2a13      	cmp	r2, #19
 800760e:	dc05      	bgt.n	800761c <__ulp+0x24>
 8007610:	2380      	movs	r3, #128	@ 0x80
 8007612:	031b      	lsls	r3, r3, #12
 8007614:	4113      	asrs	r3, r2
 8007616:	0019      	movs	r1, r3
 8007618:	0020      	movs	r0, r4
 800761a:	bd10      	pop	{r4, pc}
 800761c:	3a14      	subs	r2, #20
 800761e:	2401      	movs	r4, #1
 8007620:	2a1e      	cmp	r2, #30
 8007622:	dc02      	bgt.n	800762a <__ulp+0x32>
 8007624:	2480      	movs	r4, #128	@ 0x80
 8007626:	0624      	lsls	r4, r4, #24
 8007628:	40d4      	lsrs	r4, r2
 800762a:	2300      	movs	r3, #0
 800762c:	e7f3      	b.n	8007616 <__ulp+0x1e>
 800762e:	46c0      	nop			@ (mov r8, r8)
 8007630:	7ff00000 	.word	0x7ff00000
 8007634:	fcc00000 	.word	0xfcc00000

08007638 <__b2d>:
 8007638:	b5f7      	push	{r0, r1, r2, r4, r5, r6, r7, lr}
 800763a:	0006      	movs	r6, r0
 800763c:	6903      	ldr	r3, [r0, #16]
 800763e:	3614      	adds	r6, #20
 8007640:	009b      	lsls	r3, r3, #2
 8007642:	18f3      	adds	r3, r6, r3
 8007644:	1f1d      	subs	r5, r3, #4
 8007646:	682c      	ldr	r4, [r5, #0]
 8007648:	000f      	movs	r7, r1
 800764a:	0020      	movs	r0, r4
 800764c:	9301      	str	r3, [sp, #4]
 800764e:	f7ff fd43 	bl	80070d8 <__hi0bits>
 8007652:	2220      	movs	r2, #32
 8007654:	1a12      	subs	r2, r2, r0
 8007656:	603a      	str	r2, [r7, #0]
 8007658:	0003      	movs	r3, r0
 800765a:	4a1c      	ldr	r2, [pc, #112]	@ (80076cc <__b2d+0x94>)
 800765c:	280a      	cmp	r0, #10
 800765e:	dc15      	bgt.n	800768c <__b2d+0x54>
 8007660:	210b      	movs	r1, #11
 8007662:	0027      	movs	r7, r4
 8007664:	1a09      	subs	r1, r1, r0
 8007666:	40cf      	lsrs	r7, r1
 8007668:	433a      	orrs	r2, r7
 800766a:	468c      	mov	ip, r1
 800766c:	0011      	movs	r1, r2
 800766e:	2200      	movs	r2, #0
 8007670:	42ae      	cmp	r6, r5
 8007672:	d202      	bcs.n	800767a <__b2d+0x42>
 8007674:	9a01      	ldr	r2, [sp, #4]
 8007676:	3a08      	subs	r2, #8
 8007678:	6812      	ldr	r2, [r2, #0]
 800767a:	3315      	adds	r3, #21
 800767c:	409c      	lsls	r4, r3
 800767e:	4663      	mov	r3, ip
 8007680:	0027      	movs	r7, r4
 8007682:	40da      	lsrs	r2, r3
 8007684:	4317      	orrs	r7, r2
 8007686:	0038      	movs	r0, r7
 8007688:	b003      	add	sp, #12
 800768a:	bdf0      	pop	{r4, r5, r6, r7, pc}
 800768c:	2700      	movs	r7, #0
 800768e:	42ae      	cmp	r6, r5
 8007690:	d202      	bcs.n	8007698 <__b2d+0x60>
 8007692:	9d01      	ldr	r5, [sp, #4]
 8007694:	3d08      	subs	r5, #8
 8007696:	682f      	ldr	r7, [r5, #0]
 8007698:	210b      	movs	r1, #11
 800769a:	4249      	negs	r1, r1
 800769c:	468c      	mov	ip, r1
 800769e:	449c      	add	ip, r3
 80076a0:	2b0b      	cmp	r3, #11
 80076a2:	d010      	beq.n	80076c6 <__b2d+0x8e>
 80076a4:	4661      	mov	r1, ip
 80076a6:	2320      	movs	r3, #32
 80076a8:	408c      	lsls	r4, r1
 80076aa:	1a5b      	subs	r3, r3, r1
 80076ac:	0039      	movs	r1, r7
 80076ae:	40d9      	lsrs	r1, r3
 80076b0:	430c      	orrs	r4, r1
 80076b2:	4322      	orrs	r2, r4
 80076b4:	0011      	movs	r1, r2
 80076b6:	2200      	movs	r2, #0
 80076b8:	42b5      	cmp	r5, r6
 80076ba:	d901      	bls.n	80076c0 <__b2d+0x88>
 80076bc:	3d04      	subs	r5, #4
 80076be:	682a      	ldr	r2, [r5, #0]
 80076c0:	4664      	mov	r4, ip
 80076c2:	40a7      	lsls	r7, r4
 80076c4:	e7dd      	b.n	8007682 <__b2d+0x4a>
 80076c6:	4322      	orrs	r2, r4
 80076c8:	0011      	movs	r1, r2
 80076ca:	e7dc      	b.n	8007686 <__b2d+0x4e>
 80076cc:	3ff00000 	.word	0x3ff00000

080076d0 <__d2b>:
 80076d0:	b5f7      	push	{r0, r1, r2, r4, r5, r6, r7, lr}
 80076d2:	2101      	movs	r1, #1
 80076d4:	0016      	movs	r6, r2
 80076d6:	001f      	movs	r7, r3
 80076d8:	f7ff fc06 	bl	8006ee8 <_Balloc>
 80076dc:	1e04      	subs	r4, r0, #0
 80076de:	d105      	bne.n	80076ec <__d2b+0x1c>
 80076e0:	0022      	movs	r2, r4
 80076e2:	4b25      	ldr	r3, [pc, #148]	@ (8007778 <__d2b+0xa8>)
 80076e4:	4825      	ldr	r0, [pc, #148]	@ (800777c <__d2b+0xac>)
 80076e6:	4926      	ldr	r1, [pc, #152]	@ (8007780 <__d2b+0xb0>)
 80076e8:	f000 fcec 	bl	80080c4 <__assert_func>
 80076ec:	033b      	lsls	r3, r7, #12
 80076ee:	007d      	lsls	r5, r7, #1
 80076f0:	0b1b      	lsrs	r3, r3, #12
 80076f2:	0d6d      	lsrs	r5, r5, #21
 80076f4:	d002      	beq.n	80076fc <__d2b+0x2c>
 80076f6:	2280      	movs	r2, #128	@ 0x80
 80076f8:	0352      	lsls	r2, r2, #13
 80076fa:	4313      	orrs	r3, r2
 80076fc:	9301      	str	r3, [sp, #4]
 80076fe:	2e00      	cmp	r6, #0
 8007700:	d025      	beq.n	800774e <__d2b+0x7e>
 8007702:	4668      	mov	r0, sp
 8007704:	9600      	str	r6, [sp, #0]
 8007706:	f7ff fd08 	bl	800711a <__lo0bits>
 800770a:	9b01      	ldr	r3, [sp, #4]
 800770c:	9900      	ldr	r1, [sp, #0]
 800770e:	2800      	cmp	r0, #0
 8007710:	d01b      	beq.n	800774a <__d2b+0x7a>
 8007712:	2220      	movs	r2, #32
 8007714:	001e      	movs	r6, r3
 8007716:	1a12      	subs	r2, r2, r0
 8007718:	4096      	lsls	r6, r2
 800771a:	0032      	movs	r2, r6
 800771c:	40c3      	lsrs	r3, r0
 800771e:	430a      	orrs	r2, r1
 8007720:	6162      	str	r2, [r4, #20]
 8007722:	9301      	str	r3, [sp, #4]
 8007724:	9e01      	ldr	r6, [sp, #4]
 8007726:	61a6      	str	r6, [r4, #24]
 8007728:	1e73      	subs	r3, r6, #1
 800772a:	419e      	sbcs	r6, r3
 800772c:	3601      	adds	r6, #1
 800772e:	6126      	str	r6, [r4, #16]
 8007730:	2d00      	cmp	r5, #0
 8007732:	d014      	beq.n	800775e <__d2b+0x8e>
 8007734:	2635      	movs	r6, #53	@ 0x35
 8007736:	4b13      	ldr	r3, [pc, #76]	@ (8007784 <__d2b+0xb4>)
 8007738:	18ed      	adds	r5, r5, r3
 800773a:	9b08      	ldr	r3, [sp, #32]
 800773c:	182d      	adds	r5, r5, r0
 800773e:	601d      	str	r5, [r3, #0]
 8007740:	9b09      	ldr	r3, [sp, #36]	@ 0x24
 8007742:	1a36      	subs	r6, r6, r0
 8007744:	601e      	str	r6, [r3, #0]
 8007746:	0020      	movs	r0, r4
 8007748:	bdfe      	pop	{r1, r2, r3, r4, r5, r6, r7, pc}
 800774a:	6161      	str	r1, [r4, #20]
 800774c:	e7ea      	b.n	8007724 <__d2b+0x54>
 800774e:	a801      	add	r0, sp, #4
 8007750:	f7ff fce3 	bl	800711a <__lo0bits>
 8007754:	9b01      	ldr	r3, [sp, #4]
 8007756:	2601      	movs	r6, #1
 8007758:	6163      	str	r3, [r4, #20]
 800775a:	3020      	adds	r0, #32
 800775c:	e7e7      	b.n	800772e <__d2b+0x5e>
 800775e:	4b0a      	ldr	r3, [pc, #40]	@ (8007788 <__d2b+0xb8>)
 8007760:	18c0      	adds	r0, r0, r3
 8007762:	9b08      	ldr	r3, [sp, #32]
 8007764:	6018      	str	r0, [r3, #0]
 8007766:	4b09      	ldr	r3, [pc, #36]	@ (800778c <__d2b+0xbc>)
 8007768:	18f3      	adds	r3, r6, r3
 800776a:	009b      	lsls	r3, r3, #2
 800776c:	18e3      	adds	r3, r4, r3
 800776e:	6958      	ldr	r0, [r3, #20]
 8007770:	f7ff fcb2 	bl	80070d8 <__hi0bits>
 8007774:	0176      	lsls	r6, r6, #5
 8007776:	e7e3      	b.n	8007740 <__d2b+0x70>
 8007778:	0800865e 	.word	0x0800865e
 800777c:	080086e6 	.word	0x080086e6
 8007780:	0000030f 	.word	0x0000030f
 8007784:	fffffbcd 	.word	0xfffffbcd
 8007788:	fffffbce 	.word	0xfffffbce
 800778c:	3fffffff 	.word	0x3fffffff

08007790 <__ratio>:
 8007790:	b5f0      	push	{r4, r5, r6, r7, lr}
 8007792:	b087      	sub	sp, #28
 8007794:	000f      	movs	r7, r1
 8007796:	a904      	add	r1, sp, #16
 8007798:	0006      	movs	r6, r0
 800779a:	f7ff ff4d 	bl	8007638 <__b2d>
 800779e:	9000      	str	r0, [sp, #0]
 80077a0:	9101      	str	r1, [sp, #4]
 80077a2:	9b00      	ldr	r3, [sp, #0]
 80077a4:	9c01      	ldr	r4, [sp, #4]
 80077a6:	0038      	movs	r0, r7
 80077a8:	a905      	add	r1, sp, #20
 80077aa:	9302      	str	r3, [sp, #8]
 80077ac:	9403      	str	r4, [sp, #12]
 80077ae:	f7ff ff43 	bl	8007638 <__b2d>
 80077b2:	000d      	movs	r5, r1
 80077b4:	0002      	movs	r2, r0
 80077b6:	000b      	movs	r3, r1
 80077b8:	6930      	ldr	r0, [r6, #16]
 80077ba:	6939      	ldr	r1, [r7, #16]
 80077bc:	9e04      	ldr	r6, [sp, #16]
 80077be:	1a40      	subs	r0, r0, r1
 80077c0:	9905      	ldr	r1, [sp, #20]
 80077c2:	0140      	lsls	r0, r0, #5
 80077c4:	1a71      	subs	r1, r6, r1
 80077c6:	1841      	adds	r1, r0, r1
 80077c8:	0508      	lsls	r0, r1, #20
 80077ca:	2900      	cmp	r1, #0
 80077cc:	dd08      	ble.n	80077e0 <__ratio+0x50>
 80077ce:	9901      	ldr	r1, [sp, #4]
 80077d0:	1841      	adds	r1, r0, r1
 80077d2:	9103      	str	r1, [sp, #12]
 80077d4:	9802      	ldr	r0, [sp, #8]
 80077d6:	9903      	ldr	r1, [sp, #12]
 80077d8:	f7f9 fa9a 	bl	8000d10 <__aeabi_ddiv>
 80077dc:	b007      	add	sp, #28
 80077de:	bdf0      	pop	{r4, r5, r6, r7, pc}
 80077e0:	1a2b      	subs	r3, r5, r0
 80077e2:	e7f7      	b.n	80077d4 <__ratio+0x44>

080077e4 <__copybits>:
 80077e4:	b570      	push	{r4, r5, r6, lr}
 80077e6:	0014      	movs	r4, r2
 80077e8:	0005      	movs	r5, r0
 80077ea:	3901      	subs	r1, #1
 80077ec:	6913      	ldr	r3, [r2, #16]
 80077ee:	1149      	asrs	r1, r1, #5
 80077f0:	3101      	adds	r1, #1
 80077f2:	0089      	lsls	r1, r1, #2
 80077f4:	3414      	adds	r4, #20
 80077f6:	009b      	lsls	r3, r3, #2
 80077f8:	1841      	adds	r1, r0, r1
 80077fa:	18e3      	adds	r3, r4, r3
 80077fc:	42a3      	cmp	r3, r4
 80077fe:	d80d      	bhi.n	800781c <__copybits+0x38>
 8007800:	0014      	movs	r4, r2
 8007802:	3411      	adds	r4, #17
 8007804:	2500      	movs	r5, #0
 8007806:	42a3      	cmp	r3, r4
 8007808:	d303      	bcc.n	8007812 <__copybits+0x2e>
 800780a:	1a9b      	subs	r3, r3, r2
 800780c:	3b11      	subs	r3, #17
 800780e:	089b      	lsrs	r3, r3, #2
 8007810:	009d      	lsls	r5, r3, #2
 8007812:	2300      	movs	r3, #0
 8007814:	1940      	adds	r0, r0, r5
 8007816:	4281      	cmp	r1, r0
 8007818:	d803      	bhi.n	8007822 <__copybits+0x3e>
 800781a:	bd70      	pop	{r4, r5, r6, pc}
 800781c:	cc40      	ldmia	r4!, {r6}
 800781e:	c540      	stmia	r5!, {r6}
 8007820:	e7ec      	b.n	80077fc <__copybits+0x18>
 8007822:	c008      	stmia	r0!, {r3}
 8007824:	e7f7      	b.n	8007816 <__copybits+0x32>

08007826 <__any_on>:
 8007826:	0002      	movs	r2, r0
 8007828:	6900      	ldr	r0, [r0, #16]
 800782a:	b510      	push	{r4, lr}
 800782c:	3214      	adds	r2, #20
 800782e:	114b      	asrs	r3, r1, #5
 8007830:	4298      	cmp	r0, r3
 8007832:	db13      	blt.n	800785c <__any_on+0x36>
 8007834:	dd0c      	ble.n	8007850 <__any_on+0x2a>
 8007836:	241f      	movs	r4, #31
 8007838:	0008      	movs	r0, r1
 800783a:	4020      	ands	r0, r4
 800783c:	4221      	tst	r1, r4
 800783e:	d007      	beq.n	8007850 <__any_on+0x2a>
 8007840:	0099      	lsls	r1, r3, #2
 8007842:	588c      	ldr	r4, [r1, r2]
 8007844:	0021      	movs	r1, r4
 8007846:	40c1      	lsrs	r1, r0
 8007848:	4081      	lsls	r1, r0
 800784a:	2001      	movs	r0, #1
 800784c:	428c      	cmp	r4, r1
 800784e:	d104      	bne.n	800785a <__any_on+0x34>
 8007850:	009b      	lsls	r3, r3, #2
 8007852:	18d3      	adds	r3, r2, r3
 8007854:	4293      	cmp	r3, r2
 8007856:	d803      	bhi.n	8007860 <__any_on+0x3a>
 8007858:	2000      	movs	r0, #0
 800785a:	bd10      	pop	{r4, pc}
 800785c:	0003      	movs	r3, r0
 800785e:	e7f7      	b.n	8007850 <__any_on+0x2a>
 8007860:	3b04      	subs	r3, #4
 8007862:	6819      	ldr	r1, [r3, #0]
 8007864:	2900      	cmp	r1, #0
 8007866:	d0f5      	beq.n	8007854 <__any_on+0x2e>
 8007868:	2001      	movs	r0, #1
 800786a:	e7f6      	b.n	800785a <__any_on+0x34>

0800786c <__ascii_wctomb>:
 800786c:	0003      	movs	r3, r0
 800786e:	1e08      	subs	r0, r1, #0
 8007870:	d005      	beq.n	800787e <__ascii_wctomb+0x12>
 8007872:	2aff      	cmp	r2, #255	@ 0xff
 8007874:	d904      	bls.n	8007880 <__ascii_wctomb+0x14>
 8007876:	228a      	movs	r2, #138	@ 0x8a
 8007878:	2001      	movs	r0, #1
 800787a:	601a      	str	r2, [r3, #0]
 800787c:	4240      	negs	r0, r0
 800787e:	4770      	bx	lr
 8007880:	2001      	movs	r0, #1
 8007882:	700a      	strb	r2, [r1, #0]
 8007884:	e7fb      	b.n	800787e <__ascii_wctomb+0x12>

08007886 <__sfputc_r>:
 8007886:	6893      	ldr	r3, [r2, #8]
 8007888:	b510      	push	{r4, lr}
 800788a:	3b01      	subs	r3, #1
 800788c:	6093      	str	r3, [r2, #8]
 800788e:	2b00      	cmp	r3, #0
 8007890:	da04      	bge.n	800789c <__sfputc_r+0x16>
 8007892:	6994      	ldr	r4, [r2, #24]
 8007894:	42a3      	cmp	r3, r4
 8007896:	db07      	blt.n	80078a8 <__sfputc_r+0x22>
 8007898:	290a      	cmp	r1, #10
 800789a:	d005      	beq.n	80078a8 <__sfputc_r+0x22>
 800789c:	6813      	ldr	r3, [r2, #0]
 800789e:	1c58      	adds	r0, r3, #1
 80078a0:	6010      	str	r0, [r2, #0]
 80078a2:	7019      	strb	r1, [r3, #0]
 80078a4:	0008      	movs	r0, r1
 80078a6:	bd10      	pop	{r4, pc}
 80078a8:	f7fe fd46 	bl	8006338 <__swbuf_r>
 80078ac:	0001      	movs	r1, r0
 80078ae:	e7f9      	b.n	80078a4 <__sfputc_r+0x1e>

080078b0 <__sfputs_r>:
 80078b0:	b5f8      	push	{r3, r4, r5, r6, r7, lr}
 80078b2:	0006      	movs	r6, r0
 80078b4:	000f      	movs	r7, r1
 80078b6:	0014      	movs	r4, r2
 80078b8:	18d5      	adds	r5, r2, r3
 80078ba:	42ac      	cmp	r4, r5
 80078bc:	d101      	bne.n	80078c2 <__sfputs_r+0x12>
 80078be:	2000      	movs	r0, #0
 80078c0:	e007      	b.n	80078d2 <__sfputs_r+0x22>
 80078c2:	7821      	ldrb	r1, [r4, #0]
 80078c4:	003a      	movs	r2, r7
 80078c6:	0030      	movs	r0, r6
 80078c8:	f7ff ffdd 	bl	8007886 <__sfputc_r>
 80078cc:	3401      	adds	r4, #1
 80078ce:	1c43      	adds	r3, r0, #1
 80078d0:	d1f3      	bne.n	80078ba <__sfputs_r+0xa>
 80078d2:	bdf8      	pop	{r3, r4, r5, r6, r7, pc}

080078d4 <_vfiprintf_r>:
 80078d4:	b5f0      	push	{r4, r5, r6, r7, lr}
 80078d6:	b0a1      	sub	sp, #132	@ 0x84
 80078d8:	000f      	movs	r7, r1
 80078da:	0015      	movs	r5, r2
 80078dc:	001e      	movs	r6, r3
 80078de:	9003      	str	r0, [sp, #12]
 80078e0:	2800      	cmp	r0, #0
 80078e2:	d004      	beq.n	80078ee <_vfiprintf_r+0x1a>
 80078e4:	6a03      	ldr	r3, [r0, #32]
 80078e6:	2b00      	cmp	r3, #0
 80078e8:	d101      	bne.n	80078ee <_vfiprintf_r+0x1a>
 80078ea:	f7fe fc35 	bl	8006158 <__sinit>
 80078ee:	6e7b      	ldr	r3, [r7, #100]	@ 0x64
 80078f0:	07db      	lsls	r3, r3, #31
 80078f2:	d405      	bmi.n	8007900 <_vfiprintf_r+0x2c>
 80078f4:	89bb      	ldrh	r3, [r7, #12]
 80078f6:	059b      	lsls	r3, r3, #22
 80078f8:	d402      	bmi.n	8007900 <_vfiprintf_r+0x2c>
 80078fa:	6db8      	ldr	r0, [r7, #88]	@ 0x58
 80078fc:	f7fe fe73 	bl	80065e6 <__retarget_lock_acquire_recursive>
 8007900:	89bb      	ldrh	r3, [r7, #12]
 8007902:	071b      	lsls	r3, r3, #28
 8007904:	d502      	bpl.n	800790c <_vfiprintf_r+0x38>
 8007906:	693b      	ldr	r3, [r7, #16]
 8007908:	2b00      	cmp	r3, #0
 800790a:	d113      	bne.n	8007934 <_vfiprintf_r+0x60>
 800790c:	0039      	movs	r1, r7
 800790e:	9803      	ldr	r0, [sp, #12]
 8007910:	f7fe fd54 	bl	80063bc <__swsetup_r>
 8007914:	2800      	cmp	r0, #0
 8007916:	d00d      	beq.n	8007934 <_vfiprintf_r+0x60>
 8007918:	6e7b      	ldr	r3, [r7, #100]	@ 0x64
 800791a:	07db      	lsls	r3, r3, #31
 800791c:	d503      	bpl.n	8007926 <_vfiprintf_r+0x52>
 800791e:	2001      	movs	r0, #1
 8007920:	4240      	negs	r0, r0
 8007922:	b021      	add	sp, #132	@ 0x84
 8007924:	bdf0      	pop	{r4, r5, r6, r7, pc}
 8007926:	89bb      	ldrh	r3, [r7, #12]
 8007928:	059b      	lsls	r3, r3, #22
 800792a:	d4f8      	bmi.n	800791e <_vfiprintf_r+0x4a>
 800792c:	6db8      	ldr	r0, [r7, #88]	@ 0x58
 800792e:	f7fe fe5b 	bl	80065e8 <__retarget_lock_release_recursive>
 8007932:	e7f4      	b.n	800791e <_vfiprintf_r+0x4a>
 8007934:	2300      	movs	r3, #0
 8007936:	ac08      	add	r4, sp, #32
 8007938:	6163      	str	r3, [r4, #20]
 800793a:	3320      	adds	r3, #32
 800793c:	7663      	strb	r3, [r4, #25]
 800793e:	3310      	adds	r3, #16
 8007940:	76a3      	strb	r3, [r4, #26]
 8007942:	9607      	str	r6, [sp, #28]
 8007944:	002e      	movs	r6, r5
 8007946:	7833      	ldrb	r3, [r6, #0]
 8007948:	2b00      	cmp	r3, #0
 800794a:	d001      	beq.n	8007950 <_vfiprintf_r+0x7c>
 800794c:	2b25      	cmp	r3, #37	@ 0x25
 800794e:	d148      	bne.n	80079e2 <_vfiprintf_r+0x10e>
 8007950:	1b73      	subs	r3, r6, r5
 8007952:	9305      	str	r3, [sp, #20]
 8007954:	42ae      	cmp	r6, r5
 8007956:	d00b      	beq.n	8007970 <_vfiprintf_r+0x9c>
 8007958:	002a      	movs	r2, r5
 800795a:	0039      	movs	r1, r7
 800795c:	9803      	ldr	r0, [sp, #12]
 800795e:	f7ff ffa7 	bl	80078b0 <__sfputs_r>
 8007962:	3001      	adds	r0, #1
 8007964:	d100      	bne.n	8007968 <_vfiprintf_r+0x94>
 8007966:	e0ae      	b.n	8007ac6 <_vfiprintf_r+0x1f2>
 8007968:	6963      	ldr	r3, [r4, #20]
 800796a:	9a05      	ldr	r2, [sp, #20]
 800796c:	189b      	adds	r3, r3, r2
 800796e:	6163      	str	r3, [r4, #20]
 8007970:	7833      	ldrb	r3, [r6, #0]
 8007972:	2b00      	cmp	r3, #0
 8007974:	d100      	bne.n	8007978 <_vfiprintf_r+0xa4>
 8007976:	e0a6      	b.n	8007ac6 <_vfiprintf_r+0x1f2>
 8007978:	2201      	movs	r2, #1
 800797a:	2300      	movs	r3, #0
 800797c:	4252      	negs	r2, r2
 800797e:	6062      	str	r2, [r4, #4]
 8007980:	a904      	add	r1, sp, #16
 8007982:	3254      	adds	r2, #84	@ 0x54
 8007984:	1852      	adds	r2, r2, r1
 8007986:	1c75      	adds	r5, r6, #1
 8007988:	6023      	str	r3, [r4, #0]
 800798a:	60e3      	str	r3, [r4, #12]
 800798c:	60a3      	str	r3, [r4, #8]
 800798e:	7013      	strb	r3, [r2, #0]
 8007990:	65a3      	str	r3, [r4, #88]	@ 0x58
 8007992:	4b59      	ldr	r3, [pc, #356]	@ (8007af8 <_vfiprintf_r+0x224>)
 8007994:	2205      	movs	r2, #5
 8007996:	0018      	movs	r0, r3
 8007998:	7829      	ldrb	r1, [r5, #0]
 800799a:	9305      	str	r3, [sp, #20]
 800799c:	f000 fb86 	bl	80080ac <memchr>
 80079a0:	1c6e      	adds	r6, r5, #1
 80079a2:	2800      	cmp	r0, #0
 80079a4:	d11f      	bne.n	80079e6 <_vfiprintf_r+0x112>
 80079a6:	6822      	ldr	r2, [r4, #0]
 80079a8:	06d3      	lsls	r3, r2, #27
 80079aa:	d504      	bpl.n	80079b6 <_vfiprintf_r+0xe2>
 80079ac:	2353      	movs	r3, #83	@ 0x53
 80079ae:	a904      	add	r1, sp, #16
 80079b0:	185b      	adds	r3, r3, r1
 80079b2:	2120      	movs	r1, #32
 80079b4:	7019      	strb	r1, [r3, #0]
 80079b6:	0713      	lsls	r3, r2, #28
 80079b8:	d504      	bpl.n	80079c4 <_vfiprintf_r+0xf0>
 80079ba:	2353      	movs	r3, #83	@ 0x53
 80079bc:	a904      	add	r1, sp, #16
 80079be:	185b      	adds	r3, r3, r1
 80079c0:	212b      	movs	r1, #43	@ 0x2b
 80079c2:	7019      	strb	r1, [r3, #0]
 80079c4:	782b      	ldrb	r3, [r5, #0]
 80079c6:	2b2a      	cmp	r3, #42	@ 0x2a
 80079c8:	d016      	beq.n	80079f8 <_vfiprintf_r+0x124>
 80079ca:	002e      	movs	r6, r5
 80079cc:	2100      	movs	r1, #0
 80079ce:	200a      	movs	r0, #10
 80079d0:	68e3      	ldr	r3, [r4, #12]
 80079d2:	7832      	ldrb	r2, [r6, #0]
 80079d4:	1c75      	adds	r5, r6, #1
 80079d6:	3a30      	subs	r2, #48	@ 0x30
 80079d8:	2a09      	cmp	r2, #9
 80079da:	d950      	bls.n	8007a7e <_vfiprintf_r+0x1aa>
 80079dc:	2900      	cmp	r1, #0
 80079de:	d111      	bne.n	8007a04 <_vfiprintf_r+0x130>
 80079e0:	e017      	b.n	8007a12 <_vfiprintf_r+0x13e>
 80079e2:	3601      	adds	r6, #1
 80079e4:	e7af      	b.n	8007946 <_vfiprintf_r+0x72>
 80079e6:	9b05      	ldr	r3, [sp, #20]
 80079e8:	6822      	ldr	r2, [r4, #0]
 80079ea:	1ac0      	subs	r0, r0, r3
 80079ec:	2301      	movs	r3, #1
 80079ee:	4083      	lsls	r3, r0
 80079f0:	4313      	orrs	r3, r2
 80079f2:	0035      	movs	r5, r6
 80079f4:	6023      	str	r3, [r4, #0]
 80079f6:	e7cc      	b.n	8007992 <_vfiprintf_r+0xbe>
 80079f8:	9b07      	ldr	r3, [sp, #28]
 80079fa:	1d19      	adds	r1, r3, #4
 80079fc:	681b      	ldr	r3, [r3, #0]
 80079fe:	9107      	str	r1, [sp, #28]
 8007a00:	2b00      	cmp	r3, #0
 8007a02:	db01      	blt.n	8007a08 <_vfiprintf_r+0x134>
 8007a04:	930b      	str	r3, [sp, #44]	@ 0x2c
 8007a06:	e004      	b.n	8007a12 <_vfiprintf_r+0x13e>
 8007a08:	425b      	negs	r3, r3
 8007a0a:	60e3      	str	r3, [r4, #12]
 8007a0c:	2302      	movs	r3, #2
 8007a0e:	4313      	orrs	r3, r2
 8007a10:	6023      	str	r3, [r4, #0]
 8007a12:	7833      	ldrb	r3, [r6, #0]
 8007a14:	2b2e      	cmp	r3, #46	@ 0x2e
 8007a16:	d10c      	bne.n	8007a32 <_vfiprintf_r+0x15e>
 8007a18:	7873      	ldrb	r3, [r6, #1]
 8007a1a:	2b2a      	cmp	r3, #42	@ 0x2a
 8007a1c:	d134      	bne.n	8007a88 <_vfiprintf_r+0x1b4>
 8007a1e:	9b07      	ldr	r3, [sp, #28]
 8007a20:	3602      	adds	r6, #2
 8007a22:	1d1a      	adds	r2, r3, #4
 8007a24:	681b      	ldr	r3, [r3, #0]
 8007a26:	9207      	str	r2, [sp, #28]
 8007a28:	2b00      	cmp	r3, #0
 8007a2a:	da01      	bge.n	8007a30 <_vfiprintf_r+0x15c>
 8007a2c:	2301      	movs	r3, #1
 8007a2e:	425b      	negs	r3, r3
 8007a30:	9309      	str	r3, [sp, #36]	@ 0x24
 8007a32:	4d32      	ldr	r5, [pc, #200]	@ (8007afc <_vfiprintf_r+0x228>)
 8007a34:	2203      	movs	r2, #3
 8007a36:	0028      	movs	r0, r5
 8007a38:	7831      	ldrb	r1, [r6, #0]
 8007a3a:	f000 fb37 	bl	80080ac <memchr>
 8007a3e:	2800      	cmp	r0, #0
 8007a40:	d006      	beq.n	8007a50 <_vfiprintf_r+0x17c>
 8007a42:	2340      	movs	r3, #64	@ 0x40
 8007a44:	1b40      	subs	r0, r0, r5
 8007a46:	4083      	lsls	r3, r0
 8007a48:	6822      	ldr	r2, [r4, #0]
 8007a4a:	3601      	adds	r6, #1
 8007a4c:	4313      	orrs	r3, r2
 8007a4e:	6023      	str	r3, [r4, #0]
 8007a50:	7831      	ldrb	r1, [r6, #0]
 8007a52:	2206      	movs	r2, #6
 8007a54:	482a      	ldr	r0, [pc, #168]	@ (8007b00 <_vfiprintf_r+0x22c>)
 8007a56:	1c75      	adds	r5, r6, #1
 8007a58:	7621      	strb	r1, [r4, #24]
 8007a5a:	f000 fb27 	bl	80080ac <memchr>
 8007a5e:	2800      	cmp	r0, #0
 8007a60:	d040      	beq.n	8007ae4 <_vfiprintf_r+0x210>
 8007a62:	4b28      	ldr	r3, [pc, #160]	@ (8007b04 <_vfiprintf_r+0x230>)
 8007a64:	2b00      	cmp	r3, #0
 8007a66:	d122      	bne.n	8007aae <_vfiprintf_r+0x1da>
 8007a68:	2207      	movs	r2, #7
 8007a6a:	9b07      	ldr	r3, [sp, #28]
 8007a6c:	3307      	adds	r3, #7
 8007a6e:	4393      	bics	r3, r2
 8007a70:	3308      	adds	r3, #8
 8007a72:	9307      	str	r3, [sp, #28]
 8007a74:	6963      	ldr	r3, [r4, #20]
 8007a76:	9a04      	ldr	r2, [sp, #16]
 8007a78:	189b      	adds	r3, r3, r2
 8007a7a:	6163      	str	r3, [r4, #20]
 8007a7c:	e762      	b.n	8007944 <_vfiprintf_r+0x70>
 8007a7e:	4343      	muls	r3, r0
 8007a80:	002e      	movs	r6, r5
 8007a82:	2101      	movs	r1, #1
 8007a84:	189b      	adds	r3, r3, r2
 8007a86:	e7a4      	b.n	80079d2 <_vfiprintf_r+0xfe>
 8007a88:	2300      	movs	r3, #0
 8007a8a:	200a      	movs	r0, #10
 8007a8c:	0019      	movs	r1, r3
 8007a8e:	3601      	adds	r6, #1
 8007a90:	6063      	str	r3, [r4, #4]
 8007a92:	7832      	ldrb	r2, [r6, #0]
 8007a94:	1c75      	adds	r5, r6, #1
 8007a96:	3a30      	subs	r2, #48	@ 0x30
 8007a98:	2a09      	cmp	r2, #9
 8007a9a:	d903      	bls.n	8007aa4 <_vfiprintf_r+0x1d0>
 8007a9c:	2b00      	cmp	r3, #0
 8007a9e:	d0c8      	beq.n	8007a32 <_vfiprintf_r+0x15e>
 8007aa0:	9109      	str	r1, [sp, #36]	@ 0x24
 8007aa2:	e7c6      	b.n	8007a32 <_vfiprintf_r+0x15e>
 8007aa4:	4341      	muls	r1, r0
 8007aa6:	002e      	movs	r6, r5
 8007aa8:	2301      	movs	r3, #1
 8007aaa:	1889      	adds	r1, r1, r2
 8007aac:	e7f1      	b.n	8007a92 <_vfiprintf_r+0x1be>
 8007aae:	aa07      	add	r2, sp, #28
 8007ab0:	9200      	str	r2, [sp, #0]
 8007ab2:	0021      	movs	r1, r4
 8007ab4:	003a      	movs	r2, r7
 8007ab6:	4b14      	ldr	r3, [pc, #80]	@ (8007b08 <_vfiprintf_r+0x234>)
 8007ab8:	9803      	ldr	r0, [sp, #12]
 8007aba:	e000      	b.n	8007abe <_vfiprintf_r+0x1ea>
 8007abc:	bf00      	nop
 8007abe:	9004      	str	r0, [sp, #16]
 8007ac0:	9b04      	ldr	r3, [sp, #16]
 8007ac2:	3301      	adds	r3, #1
 8007ac4:	d1d6      	bne.n	8007a74 <_vfiprintf_r+0x1a0>
 8007ac6:	6e7b      	ldr	r3, [r7, #100]	@ 0x64
 8007ac8:	07db      	lsls	r3, r3, #31
 8007aca:	d405      	bmi.n	8007ad8 <_vfiprintf_r+0x204>
 8007acc:	89bb      	ldrh	r3, [r7, #12]
 8007ace:	059b      	lsls	r3, r3, #22
 8007ad0:	d402      	bmi.n	8007ad8 <_vfiprintf_r+0x204>
 8007ad2:	6db8      	ldr	r0, [r7, #88]	@ 0x58
 8007ad4:	f7fe fd88 	bl	80065e8 <__retarget_lock_release_recursive>
 8007ad8:	89bb      	ldrh	r3, [r7, #12]
 8007ada:	065b      	lsls	r3, r3, #25
 8007adc:	d500      	bpl.n	8007ae0 <_vfiprintf_r+0x20c>
 8007ade:	e71e      	b.n	800791e <_vfiprintf_r+0x4a>
 8007ae0:	980d      	ldr	r0, [sp, #52]	@ 0x34
 8007ae2:	e71e      	b.n	8007922 <_vfiprintf_r+0x4e>
 8007ae4:	aa07      	add	r2, sp, #28
 8007ae6:	9200      	str	r2, [sp, #0]
 8007ae8:	0021      	movs	r1, r4
 8007aea:	003a      	movs	r2, r7
 8007aec:	4b06      	ldr	r3, [pc, #24]	@ (8007b08 <_vfiprintf_r+0x234>)
 8007aee:	9803      	ldr	r0, [sp, #12]
 8007af0:	f000 f87c 	bl	8007bec <_printf_i>
 8007af4:	e7e3      	b.n	8007abe <_vfiprintf_r+0x1ea>
 8007af6:	46c0      	nop			@ (mov r8, r8)
 8007af8:	0800873f 	.word	0x0800873f
 8007afc:	08008745 	.word	0x08008745
 8007b00:	08008749 	.word	0x08008749
 8007b04:	00000000 	.word	0x00000000
 8007b08:	080078b1 	.word	0x080078b1

08007b0c <_printf_common>:
 8007b0c:	b5f7      	push	{r0, r1, r2, r4, r5, r6, r7, lr}
 8007b0e:	0016      	movs	r6, r2
 8007b10:	9301      	str	r3, [sp, #4]
 8007b12:	688a      	ldr	r2, [r1, #8]
 8007b14:	690b      	ldr	r3, [r1, #16]
 8007b16:	000c      	movs	r4, r1
 8007b18:	9000      	str	r0, [sp, #0]
 8007b1a:	4293      	cmp	r3, r2
 8007b1c:	da00      	bge.n	8007b20 <_printf_common+0x14>
 8007b1e:	0013      	movs	r3, r2
 8007b20:	0022      	movs	r2, r4
 8007b22:	6033      	str	r3, [r6, #0]
 8007b24:	3243      	adds	r2, #67	@ 0x43
 8007b26:	7812      	ldrb	r2, [r2, #0]
 8007b28:	2a00      	cmp	r2, #0
 8007b2a:	d001      	beq.n	8007b30 <_printf_common+0x24>
 8007b2c:	3301      	adds	r3, #1
 8007b2e:	6033      	str	r3, [r6, #0]
 8007b30:	6823      	ldr	r3, [r4, #0]
 8007b32:	069b      	lsls	r3, r3, #26
 8007b34:	d502      	bpl.n	8007b3c <_printf_common+0x30>
 8007b36:	6833      	ldr	r3, [r6, #0]
 8007b38:	3302      	adds	r3, #2
 8007b3a:	6033      	str	r3, [r6, #0]
 8007b3c:	6822      	ldr	r2, [r4, #0]
 8007b3e:	2306      	movs	r3, #6
 8007b40:	0015      	movs	r5, r2
 8007b42:	401d      	ands	r5, r3
 8007b44:	421a      	tst	r2, r3
 8007b46:	d027      	beq.n	8007b98 <_printf_common+0x8c>
 8007b48:	0023      	movs	r3, r4
 8007b4a:	3343      	adds	r3, #67	@ 0x43
 8007b4c:	781b      	ldrb	r3, [r3, #0]
 8007b4e:	1e5a      	subs	r2, r3, #1
 8007b50:	4193      	sbcs	r3, r2
 8007b52:	6822      	ldr	r2, [r4, #0]
 8007b54:	0692      	lsls	r2, r2, #26
 8007b56:	d430      	bmi.n	8007bba <_printf_common+0xae>
 8007b58:	0022      	movs	r2, r4
 8007b5a:	9901      	ldr	r1, [sp, #4]
 8007b5c:	9800      	ldr	r0, [sp, #0]
 8007b5e:	9d08      	ldr	r5, [sp, #32]
 8007b60:	3243      	adds	r2, #67	@ 0x43
 8007b62:	47a8      	blx	r5
 8007b64:	3001      	adds	r0, #1
 8007b66:	d025      	beq.n	8007bb4 <_printf_common+0xa8>
 8007b68:	2206      	movs	r2, #6
 8007b6a:	6823      	ldr	r3, [r4, #0]
 8007b6c:	2500      	movs	r5, #0
 8007b6e:	4013      	ands	r3, r2
 8007b70:	2b04      	cmp	r3, #4
 8007b72:	d105      	bne.n	8007b80 <_printf_common+0x74>
 8007b74:	6833      	ldr	r3, [r6, #0]
 8007b76:	68e5      	ldr	r5, [r4, #12]
 8007b78:	1aed      	subs	r5, r5, r3
 8007b7a:	43eb      	mvns	r3, r5
 8007b7c:	17db      	asrs	r3, r3, #31
 8007b7e:	401d      	ands	r5, r3
 8007b80:	68a3      	ldr	r3, [r4, #8]
 8007b82:	6922      	ldr	r2, [r4, #16]
 8007b84:	4293      	cmp	r3, r2
 8007b86:	dd01      	ble.n	8007b8c <_printf_common+0x80>
 8007b88:	1a9b      	subs	r3, r3, r2
 8007b8a:	18ed      	adds	r5, r5, r3
 8007b8c:	2600      	movs	r6, #0
 8007b8e:	42b5      	cmp	r5, r6
 8007b90:	d120      	bne.n	8007bd4 <_printf_common+0xc8>
 8007b92:	2000      	movs	r0, #0
 8007b94:	e010      	b.n	8007bb8 <_printf_common+0xac>
 8007b96:	3501      	adds	r5, #1
 8007b98:	68e3      	ldr	r3, [r4, #12]
 8007b9a:	6832      	ldr	r2, [r6, #0]
 8007b9c:	1a9b      	subs	r3, r3, r2
 8007b9e:	42ab      	cmp	r3, r5
 8007ba0:	ddd2      	ble.n	8007b48 <_printf_common+0x3c>
 8007ba2:	0022      	movs	r2, r4
 8007ba4:	2301      	movs	r3, #1
 8007ba6:	9901      	ldr	r1, [sp, #4]
 8007ba8:	9800      	ldr	r0, [sp, #0]
 8007baa:	9f08      	ldr	r7, [sp, #32]
 8007bac:	3219      	adds	r2, #25
 8007bae:	47b8      	blx	r7
 8007bb0:	3001      	adds	r0, #1
 8007bb2:	d1f0      	bne.n	8007b96 <_printf_common+0x8a>
 8007bb4:	2001      	movs	r0, #1
 8007bb6:	4240      	negs	r0, r0
 8007bb8:	bdfe      	pop	{r1, r2, r3, r4, r5, r6, r7, pc}
 8007bba:	2030      	movs	r0, #48	@ 0x30
 8007bbc:	18e1      	adds	r1, r4, r3
 8007bbe:	3143      	adds	r1, #67	@ 0x43
 8007bc0:	7008      	strb	r0, [r1, #0]
 8007bc2:	0021      	movs	r1, r4
 8007bc4:	1c5a      	adds	r2, r3, #1
 8007bc6:	3145      	adds	r1, #69	@ 0x45
 8007bc8:	7809      	ldrb	r1, [r1, #0]
 8007bca:	18a2      	adds	r2, r4, r2
 8007bcc:	3243      	adds	r2, #67	@ 0x43
 8007bce:	3302      	adds	r3, #2
 8007bd0:	7011      	strb	r1, [r2, #0]
 8007bd2:	e7c1      	b.n	8007b58 <_printf_common+0x4c>
 8007bd4:	0022      	movs	r2, r4
 8007bd6:	2301      	movs	r3, #1
 8007bd8:	9901      	ldr	r1, [sp, #4]
 8007bda:	9800      	ldr	r0, [sp, #0]
 8007bdc:	9f08      	ldr	r7, [sp, #32]
 8007bde:	321a      	adds	r2, #26
 8007be0:	47b8      	blx	r7
 8007be2:	3001      	adds	r0, #1
 8007be4:	d0e6      	beq.n	8007bb4 <_printf_common+0xa8>
 8007be6:	3601      	adds	r6, #1
 8007be8:	e7d1      	b.n	8007b8e <_printf_common+0x82>
	...

08007bec <_printf_i>:
 8007bec:	b5f0      	push	{r4, r5, r6, r7, lr}
 8007bee:	b08b      	sub	sp, #44	@ 0x2c
 8007bf0:	9206      	str	r2, [sp, #24]
 8007bf2:	000a      	movs	r2, r1
 8007bf4:	3243      	adds	r2, #67	@ 0x43
 8007bf6:	9307      	str	r3, [sp, #28]
 8007bf8:	9005      	str	r0, [sp, #20]
 8007bfa:	9203      	str	r2, [sp, #12]
 8007bfc:	7e0a      	ldrb	r2, [r1, #24]
 8007bfe:	000c      	movs	r4, r1
 8007c00:	9b10      	ldr	r3, [sp, #64]	@ 0x40
 8007c02:	2a78      	cmp	r2, #120	@ 0x78
 8007c04:	d809      	bhi.n	8007c1a <_printf_i+0x2e>
 8007c06:	2a62      	cmp	r2, #98	@ 0x62
 8007c08:	d80b      	bhi.n	8007c22 <_printf_i+0x36>
 8007c0a:	2a00      	cmp	r2, #0
 8007c0c:	d100      	bne.n	8007c10 <_printf_i+0x24>
 8007c0e:	e0ba      	b.n	8007d86 <_printf_i+0x19a>
 8007c10:	497a      	ldr	r1, [pc, #488]	@ (8007dfc <_printf_i+0x210>)
 8007c12:	9104      	str	r1, [sp, #16]
 8007c14:	2a58      	cmp	r2, #88	@ 0x58
 8007c16:	d100      	bne.n	8007c1a <_printf_i+0x2e>
 8007c18:	e08e      	b.n	8007d38 <_printf_i+0x14c>
 8007c1a:	0025      	movs	r5, r4
 8007c1c:	3542      	adds	r5, #66	@ 0x42
 8007c1e:	702a      	strb	r2, [r5, #0]
 8007c20:	e022      	b.n	8007c68 <_printf_i+0x7c>
 8007c22:	0010      	movs	r0, r2
 8007c24:	3863      	subs	r0, #99	@ 0x63
 8007c26:	2815      	cmp	r0, #21
 8007c28:	d8f7      	bhi.n	8007c1a <_printf_i+0x2e>
 8007c2a:	f7f8 fa7f 	bl	800012c <__gnu_thumb1_case_shi>
 8007c2e:	0016      	.short	0x0016
 8007c30:	fff6001f 	.word	0xfff6001f
 8007c34:	fff6fff6 	.word	0xfff6fff6
 8007c38:	001ffff6 	.word	0x001ffff6
 8007c3c:	fff6fff6 	.word	0xfff6fff6
 8007c40:	fff6fff6 	.word	0xfff6fff6
 8007c44:	0036009f 	.word	0x0036009f
 8007c48:	fff6007e 	.word	0xfff6007e
 8007c4c:	00b0fff6 	.word	0x00b0fff6
 8007c50:	0036fff6 	.word	0x0036fff6
 8007c54:	fff6fff6 	.word	0xfff6fff6
 8007c58:	0082      	.short	0x0082
 8007c5a:	0025      	movs	r5, r4
 8007c5c:	681a      	ldr	r2, [r3, #0]
 8007c5e:	3542      	adds	r5, #66	@ 0x42
 8007c60:	1d11      	adds	r1, r2, #4
 8007c62:	6019      	str	r1, [r3, #0]
 8007c64:	6813      	ldr	r3, [r2, #0]
 8007c66:	702b      	strb	r3, [r5, #0]
 8007c68:	2301      	movs	r3, #1
 8007c6a:	e09e      	b.n	8007daa <_printf_i+0x1be>
 8007c6c:	6818      	ldr	r0, [r3, #0]
 8007c6e:	6809      	ldr	r1, [r1, #0]
 8007c70:	1d02      	adds	r2, r0, #4
 8007c72:	060d      	lsls	r5, r1, #24
 8007c74:	d50b      	bpl.n	8007c8e <_printf_i+0xa2>
 8007c76:	6806      	ldr	r6, [r0, #0]
 8007c78:	601a      	str	r2, [r3, #0]
 8007c7a:	2e00      	cmp	r6, #0
 8007c7c:	da03      	bge.n	8007c86 <_printf_i+0x9a>
 8007c7e:	232d      	movs	r3, #45	@ 0x2d
 8007c80:	9a03      	ldr	r2, [sp, #12]
 8007c82:	4276      	negs	r6, r6
 8007c84:	7013      	strb	r3, [r2, #0]
 8007c86:	4b5d      	ldr	r3, [pc, #372]	@ (8007dfc <_printf_i+0x210>)
 8007c88:	270a      	movs	r7, #10
 8007c8a:	9304      	str	r3, [sp, #16]
 8007c8c:	e018      	b.n	8007cc0 <_printf_i+0xd4>
 8007c8e:	6806      	ldr	r6, [r0, #0]
 8007c90:	601a      	str	r2, [r3, #0]
 8007c92:	0649      	lsls	r1, r1, #25
 8007c94:	d5f1      	bpl.n	8007c7a <_printf_i+0x8e>
 8007c96:	b236      	sxth	r6, r6
 8007c98:	e7ef      	b.n	8007c7a <_printf_i+0x8e>
 8007c9a:	6808      	ldr	r0, [r1, #0]
 8007c9c:	6819      	ldr	r1, [r3, #0]
 8007c9e:	c940      	ldmia	r1!, {r6}
 8007ca0:	0605      	lsls	r5, r0, #24
 8007ca2:	d402      	bmi.n	8007caa <_printf_i+0xbe>
 8007ca4:	0640      	lsls	r0, r0, #25
 8007ca6:	d500      	bpl.n	8007caa <_printf_i+0xbe>
 8007ca8:	b2b6      	uxth	r6, r6
 8007caa:	6019      	str	r1, [r3, #0]
 8007cac:	4b53      	ldr	r3, [pc, #332]	@ (8007dfc <_printf_i+0x210>)
 8007cae:	270a      	movs	r7, #10
 8007cb0:	9304      	str	r3, [sp, #16]
 8007cb2:	2a6f      	cmp	r2, #111	@ 0x6f
 8007cb4:	d100      	bne.n	8007cb8 <_printf_i+0xcc>
 8007cb6:	3f02      	subs	r7, #2
 8007cb8:	0023      	movs	r3, r4
 8007cba:	2200      	movs	r2, #0
 8007cbc:	3343      	adds	r3, #67	@ 0x43
 8007cbe:	701a      	strb	r2, [r3, #0]
 8007cc0:	6863      	ldr	r3, [r4, #4]
 8007cc2:	60a3      	str	r3, [r4, #8]
 8007cc4:	2b00      	cmp	r3, #0
 8007cc6:	db06      	blt.n	8007cd6 <_printf_i+0xea>
 8007cc8:	2104      	movs	r1, #4
 8007cca:	6822      	ldr	r2, [r4, #0]
 8007ccc:	9d03      	ldr	r5, [sp, #12]
 8007cce:	438a      	bics	r2, r1
 8007cd0:	6022      	str	r2, [r4, #0]
 8007cd2:	4333      	orrs	r3, r6
 8007cd4:	d00c      	beq.n	8007cf0 <_printf_i+0x104>
 8007cd6:	9d03      	ldr	r5, [sp, #12]
 8007cd8:	0030      	movs	r0, r6
 8007cda:	0039      	movs	r1, r7
 8007cdc:	f7f8 fab6 	bl	800024c <__aeabi_uidivmod>
 8007ce0:	9b04      	ldr	r3, [sp, #16]
 8007ce2:	3d01      	subs	r5, #1
 8007ce4:	5c5b      	ldrb	r3, [r3, r1]
 8007ce6:	702b      	strb	r3, [r5, #0]
 8007ce8:	0033      	movs	r3, r6
 8007cea:	0006      	movs	r6, r0
 8007cec:	429f      	cmp	r7, r3
 8007cee:	d9f3      	bls.n	8007cd8 <_printf_i+0xec>
 8007cf0:	2f08      	cmp	r7, #8
 8007cf2:	d109      	bne.n	8007d08 <_printf_i+0x11c>
 8007cf4:	6823      	ldr	r3, [r4, #0]
 8007cf6:	07db      	lsls	r3, r3, #31
 8007cf8:	d506      	bpl.n	8007d08 <_printf_i+0x11c>
 8007cfa:	6862      	ldr	r2, [r4, #4]
 8007cfc:	6923      	ldr	r3, [r4, #16]
 8007cfe:	429a      	cmp	r2, r3
 8007d00:	dc02      	bgt.n	8007d08 <_printf_i+0x11c>
 8007d02:	2330      	movs	r3, #48	@ 0x30
 8007d04:	3d01      	subs	r5, #1
 8007d06:	702b      	strb	r3, [r5, #0]
 8007d08:	9b03      	ldr	r3, [sp, #12]
 8007d0a:	1b5b      	subs	r3, r3, r5
 8007d0c:	6123      	str	r3, [r4, #16]
 8007d0e:	9b07      	ldr	r3, [sp, #28]
 8007d10:	0021      	movs	r1, r4
 8007d12:	9300      	str	r3, [sp, #0]
 8007d14:	9805      	ldr	r0, [sp, #20]
 8007d16:	9b06      	ldr	r3, [sp, #24]
 8007d18:	aa09      	add	r2, sp, #36	@ 0x24
 8007d1a:	f7ff fef7 	bl	8007b0c <_printf_common>
 8007d1e:	3001      	adds	r0, #1
 8007d20:	d148      	bne.n	8007db4 <_printf_i+0x1c8>
 8007d22:	2001      	movs	r0, #1
 8007d24:	4240      	negs	r0, r0
 8007d26:	b00b      	add	sp, #44	@ 0x2c
 8007d28:	bdf0      	pop	{r4, r5, r6, r7, pc}
 8007d2a:	2220      	movs	r2, #32
 8007d2c:	6809      	ldr	r1, [r1, #0]
 8007d2e:	430a      	orrs	r2, r1
 8007d30:	6022      	str	r2, [r4, #0]
 8007d32:	2278      	movs	r2, #120	@ 0x78
 8007d34:	4932      	ldr	r1, [pc, #200]	@ (8007e00 <_printf_i+0x214>)
 8007d36:	9104      	str	r1, [sp, #16]
 8007d38:	0021      	movs	r1, r4
 8007d3a:	3145      	adds	r1, #69	@ 0x45
 8007d3c:	700a      	strb	r2, [r1, #0]
 8007d3e:	6819      	ldr	r1, [r3, #0]
 8007d40:	6822      	ldr	r2, [r4, #0]
 8007d42:	c940      	ldmia	r1!, {r6}
 8007d44:	0610      	lsls	r0, r2, #24
 8007d46:	d402      	bmi.n	8007d4e <_printf_i+0x162>
 8007d48:	0650      	lsls	r0, r2, #25
 8007d4a:	d500      	bpl.n	8007d4e <_printf_i+0x162>
 8007d4c:	b2b6      	uxth	r6, r6
 8007d4e:	6019      	str	r1, [r3, #0]
 8007d50:	07d3      	lsls	r3, r2, #31
 8007d52:	d502      	bpl.n	8007d5a <_printf_i+0x16e>
 8007d54:	2320      	movs	r3, #32
 8007d56:	4313      	orrs	r3, r2
 8007d58:	6023      	str	r3, [r4, #0]
 8007d5a:	2e00      	cmp	r6, #0
 8007d5c:	d001      	beq.n	8007d62 <_printf_i+0x176>
 8007d5e:	2710      	movs	r7, #16
 8007d60:	e7aa      	b.n	8007cb8 <_printf_i+0xcc>
 8007d62:	2220      	movs	r2, #32
 8007d64:	6823      	ldr	r3, [r4, #0]
 8007d66:	4393      	bics	r3, r2
 8007d68:	6023      	str	r3, [r4, #0]
 8007d6a:	e7f8      	b.n	8007d5e <_printf_i+0x172>
 8007d6c:	681a      	ldr	r2, [r3, #0]
 8007d6e:	680d      	ldr	r5, [r1, #0]
 8007d70:	1d10      	adds	r0, r2, #4
 8007d72:	6949      	ldr	r1, [r1, #20]
 8007d74:	6018      	str	r0, [r3, #0]
 8007d76:	6813      	ldr	r3, [r2, #0]
 8007d78:	062e      	lsls	r6, r5, #24
 8007d7a:	d501      	bpl.n	8007d80 <_printf_i+0x194>
 8007d7c:	6019      	str	r1, [r3, #0]
 8007d7e:	e002      	b.n	8007d86 <_printf_i+0x19a>
 8007d80:	066d      	lsls	r5, r5, #25
 8007d82:	d5fb      	bpl.n	8007d7c <_printf_i+0x190>
 8007d84:	8019      	strh	r1, [r3, #0]
 8007d86:	2300      	movs	r3, #0
 8007d88:	9d03      	ldr	r5, [sp, #12]
 8007d8a:	6123      	str	r3, [r4, #16]
 8007d8c:	e7bf      	b.n	8007d0e <_printf_i+0x122>
 8007d8e:	681a      	ldr	r2, [r3, #0]
 8007d90:	1d11      	adds	r1, r2, #4
 8007d92:	6019      	str	r1, [r3, #0]
 8007d94:	6815      	ldr	r5, [r2, #0]
 8007d96:	2100      	movs	r1, #0
 8007d98:	0028      	movs	r0, r5
 8007d9a:	6862      	ldr	r2, [r4, #4]
 8007d9c:	f000 f986 	bl	80080ac <memchr>
 8007da0:	2800      	cmp	r0, #0
 8007da2:	d001      	beq.n	8007da8 <_printf_i+0x1bc>
 8007da4:	1b40      	subs	r0, r0, r5
 8007da6:	6060      	str	r0, [r4, #4]
 8007da8:	6863      	ldr	r3, [r4, #4]
 8007daa:	6123      	str	r3, [r4, #16]
 8007dac:	2300      	movs	r3, #0
 8007dae:	9a03      	ldr	r2, [sp, #12]
 8007db0:	7013      	strb	r3, [r2, #0]
 8007db2:	e7ac      	b.n	8007d0e <_printf_i+0x122>
 8007db4:	002a      	movs	r2, r5
 8007db6:	6923      	ldr	r3, [r4, #16]
 8007db8:	9906      	ldr	r1, [sp, #24]
 8007dba:	9805      	ldr	r0, [sp, #20]
 8007dbc:	9d07      	ldr	r5, [sp, #28]
 8007dbe:	47a8      	blx	r5
 8007dc0:	3001      	adds	r0, #1
 8007dc2:	d0ae      	beq.n	8007d22 <_printf_i+0x136>
 8007dc4:	6823      	ldr	r3, [r4, #0]
 8007dc6:	079b      	lsls	r3, r3, #30
 8007dc8:	d415      	bmi.n	8007df6 <_printf_i+0x20a>
 8007dca:	9b09      	ldr	r3, [sp, #36]	@ 0x24
 8007dcc:	68e0      	ldr	r0, [r4, #12]
 8007dce:	4298      	cmp	r0, r3
 8007dd0:	daa9      	bge.n	8007d26 <_printf_i+0x13a>
 8007dd2:	0018      	movs	r0, r3
 8007dd4:	e7a7      	b.n	8007d26 <_printf_i+0x13a>
 8007dd6:	0022      	movs	r2, r4
 8007dd8:	2301      	movs	r3, #1
 8007dda:	9906      	ldr	r1, [sp, #24]
 8007ddc:	9805      	ldr	r0, [sp, #20]
 8007dde:	9e07      	ldr	r6, [sp, #28]
 8007de0:	3219      	adds	r2, #25
 8007de2:	47b0      	blx	r6
 8007de4:	3001      	adds	r0, #1
 8007de6:	d09c      	beq.n	8007d22 <_printf_i+0x136>
 8007de8:	3501      	adds	r5, #1
 8007dea:	68e3      	ldr	r3, [r4, #12]
 8007dec:	9a09      	ldr	r2, [sp, #36]	@ 0x24
 8007dee:	1a9b      	subs	r3, r3, r2
 8007df0:	42ab      	cmp	r3, r5
 8007df2:	dcf0      	bgt.n	8007dd6 <_printf_i+0x1ea>
 8007df4:	e7e9      	b.n	8007dca <_printf_i+0x1de>
 8007df6:	2500      	movs	r5, #0
 8007df8:	e7f7      	b.n	8007dea <_printf_i+0x1fe>
 8007dfa:	46c0      	nop			@ (mov r8, r8)
 8007dfc:	08008750 	.word	0x08008750
 8007e00:	08008761 	.word	0x08008761

08007e04 <__sflush_r>:
 8007e04:	b5f7      	push	{r0, r1, r2, r4, r5, r6, r7, lr}
 8007e06:	220c      	movs	r2, #12
 8007e08:	5e8b      	ldrsh	r3, [r1, r2]
 8007e0a:	0005      	movs	r5, r0
 8007e0c:	000c      	movs	r4, r1
 8007e0e:	071a      	lsls	r2, r3, #28
 8007e10:	d456      	bmi.n	8007ec0 <__sflush_r+0xbc>
 8007e12:	684a      	ldr	r2, [r1, #4]
 8007e14:	2a00      	cmp	r2, #0
 8007e16:	dc02      	bgt.n	8007e1e <__sflush_r+0x1a>
 8007e18:	6c0a      	ldr	r2, [r1, #64]	@ 0x40
 8007e1a:	2a00      	cmp	r2, #0
 8007e1c:	dd4e      	ble.n	8007ebc <__sflush_r+0xb8>
 8007e1e:	6ae7      	ldr	r7, [r4, #44]	@ 0x2c
 8007e20:	2f00      	cmp	r7, #0
 8007e22:	d04b      	beq.n	8007ebc <__sflush_r+0xb8>
 8007e24:	2200      	movs	r2, #0
 8007e26:	2080      	movs	r0, #128	@ 0x80
 8007e28:	682e      	ldr	r6, [r5, #0]
 8007e2a:	602a      	str	r2, [r5, #0]
 8007e2c:	001a      	movs	r2, r3
 8007e2e:	0140      	lsls	r0, r0, #5
 8007e30:	6a21      	ldr	r1, [r4, #32]
 8007e32:	4002      	ands	r2, r0
 8007e34:	4203      	tst	r3, r0
 8007e36:	d033      	beq.n	8007ea0 <__sflush_r+0x9c>
 8007e38:	6d62      	ldr	r2, [r4, #84]	@ 0x54
 8007e3a:	89a3      	ldrh	r3, [r4, #12]
 8007e3c:	075b      	lsls	r3, r3, #29
 8007e3e:	d506      	bpl.n	8007e4e <__sflush_r+0x4a>
 8007e40:	6863      	ldr	r3, [r4, #4]
 8007e42:	1ad2      	subs	r2, r2, r3
 8007e44:	6b63      	ldr	r3, [r4, #52]	@ 0x34
 8007e46:	2b00      	cmp	r3, #0
 8007e48:	d001      	beq.n	8007e4e <__sflush_r+0x4a>
 8007e4a:	6c23      	ldr	r3, [r4, #64]	@ 0x40
 8007e4c:	1ad2      	subs	r2, r2, r3
 8007e4e:	2300      	movs	r3, #0
 8007e50:	0028      	movs	r0, r5
 8007e52:	6ae7      	ldr	r7, [r4, #44]	@ 0x2c
 8007e54:	6a21      	ldr	r1, [r4, #32]
 8007e56:	47b8      	blx	r7
 8007e58:	89a2      	ldrh	r2, [r4, #12]
 8007e5a:	1c43      	adds	r3, r0, #1
 8007e5c:	d106      	bne.n	8007e6c <__sflush_r+0x68>
 8007e5e:	6829      	ldr	r1, [r5, #0]
 8007e60:	291d      	cmp	r1, #29
 8007e62:	d846      	bhi.n	8007ef2 <__sflush_r+0xee>
 8007e64:	4b29      	ldr	r3, [pc, #164]	@ (8007f0c <__sflush_r+0x108>)
 8007e66:	40cb      	lsrs	r3, r1
 8007e68:	07db      	lsls	r3, r3, #31
 8007e6a:	d542      	bpl.n	8007ef2 <__sflush_r+0xee>
 8007e6c:	2300      	movs	r3, #0
 8007e6e:	6063      	str	r3, [r4, #4]
 8007e70:	6923      	ldr	r3, [r4, #16]
 8007e72:	6023      	str	r3, [r4, #0]
 8007e74:	04d2      	lsls	r2, r2, #19
 8007e76:	d505      	bpl.n	8007e84 <__sflush_r+0x80>
 8007e78:	1c43      	adds	r3, r0, #1
 8007e7a:	d102      	bne.n	8007e82 <__sflush_r+0x7e>
 8007e7c:	682b      	ldr	r3, [r5, #0]
 8007e7e:	2b00      	cmp	r3, #0
 8007e80:	d100      	bne.n	8007e84 <__sflush_r+0x80>
 8007e82:	6560      	str	r0, [r4, #84]	@ 0x54
 8007e84:	6b61      	ldr	r1, [r4, #52]	@ 0x34
 8007e86:	602e      	str	r6, [r5, #0]
 8007e88:	2900      	cmp	r1, #0
 8007e8a:	d017      	beq.n	8007ebc <__sflush_r+0xb8>
 8007e8c:	0023      	movs	r3, r4
 8007e8e:	3344      	adds	r3, #68	@ 0x44
 8007e90:	4299      	cmp	r1, r3
 8007e92:	d002      	beq.n	8007e9a <__sflush_r+0x96>
 8007e94:	0028      	movs	r0, r5
 8007e96:	f7fe fbbf 	bl	8006618 <_free_r>
 8007e9a:	2300      	movs	r3, #0
 8007e9c:	6363      	str	r3, [r4, #52]	@ 0x34
 8007e9e:	e00d      	b.n	8007ebc <__sflush_r+0xb8>
 8007ea0:	2301      	movs	r3, #1
 8007ea2:	0028      	movs	r0, r5
 8007ea4:	47b8      	blx	r7
 8007ea6:	0002      	movs	r2, r0
 8007ea8:	1c43      	adds	r3, r0, #1
 8007eaa:	d1c6      	bne.n	8007e3a <__sflush_r+0x36>
 8007eac:	682b      	ldr	r3, [r5, #0]
 8007eae:	2b00      	cmp	r3, #0
 8007eb0:	d0c3      	beq.n	8007e3a <__sflush_r+0x36>
 8007eb2:	2b1d      	cmp	r3, #29
 8007eb4:	d001      	beq.n	8007eba <__sflush_r+0xb6>
 8007eb6:	2b16      	cmp	r3, #22
 8007eb8:	d11a      	bne.n	8007ef0 <__sflush_r+0xec>
 8007eba:	602e      	str	r6, [r5, #0]
 8007ebc:	2000      	movs	r0, #0
 8007ebe:	e01e      	b.n	8007efe <__sflush_r+0xfa>
 8007ec0:	690e      	ldr	r6, [r1, #16]
 8007ec2:	2e00      	cmp	r6, #0
 8007ec4:	d0fa      	beq.n	8007ebc <__sflush_r+0xb8>
 8007ec6:	680f      	ldr	r7, [r1, #0]
 8007ec8:	600e      	str	r6, [r1, #0]
 8007eca:	1bba      	subs	r2, r7, r6
 8007ecc:	9201      	str	r2, [sp, #4]
 8007ece:	2200      	movs	r2, #0
 8007ed0:	079b      	lsls	r3, r3, #30
 8007ed2:	d100      	bne.n	8007ed6 <__sflush_r+0xd2>
 8007ed4:	694a      	ldr	r2, [r1, #20]
 8007ed6:	60a2      	str	r2, [r4, #8]
 8007ed8:	9b01      	ldr	r3, [sp, #4]
 8007eda:	2b00      	cmp	r3, #0
 8007edc:	ddee      	ble.n	8007ebc <__sflush_r+0xb8>
 8007ede:	6aa3      	ldr	r3, [r4, #40]	@ 0x28
 8007ee0:	0032      	movs	r2, r6
 8007ee2:	001f      	movs	r7, r3
 8007ee4:	0028      	movs	r0, r5
 8007ee6:	9b01      	ldr	r3, [sp, #4]
 8007ee8:	6a21      	ldr	r1, [r4, #32]
 8007eea:	47b8      	blx	r7
 8007eec:	2800      	cmp	r0, #0
 8007eee:	dc07      	bgt.n	8007f00 <__sflush_r+0xfc>
 8007ef0:	89a2      	ldrh	r2, [r4, #12]
 8007ef2:	2340      	movs	r3, #64	@ 0x40
 8007ef4:	2001      	movs	r0, #1
 8007ef6:	4313      	orrs	r3, r2
 8007ef8:	b21b      	sxth	r3, r3
 8007efa:	81a3      	strh	r3, [r4, #12]
 8007efc:	4240      	negs	r0, r0
 8007efe:	bdfe      	pop	{r1, r2, r3, r4, r5, r6, r7, pc}
 8007f00:	9b01      	ldr	r3, [sp, #4]
 8007f02:	1836      	adds	r6, r6, r0
 8007f04:	1a1b      	subs	r3, r3, r0
 8007f06:	9301      	str	r3, [sp, #4]
 8007f08:	e7e6      	b.n	8007ed8 <__sflush_r+0xd4>
 8007f0a:	46c0      	nop			@ (mov r8, r8)
 8007f0c:	20400001 	.word	0x20400001

08007f10 <_fflush_r>:
 8007f10:	690b      	ldr	r3, [r1, #16]
 8007f12:	b570      	push	{r4, r5, r6, lr}
 8007f14:	0005      	movs	r5, r0
 8007f16:	000c      	movs	r4, r1
 8007f18:	2b00      	cmp	r3, #0
 8007f1a:	d102      	bne.n	8007f22 <_fflush_r+0x12>
 8007f1c:	2500      	movs	r5, #0
 8007f1e:	0028      	movs	r0, r5
 8007f20:	bd70      	pop	{r4, r5, r6, pc}
 8007f22:	2800      	cmp	r0, #0
 8007f24:	d004      	beq.n	8007f30 <_fflush_r+0x20>
 8007f26:	6a03      	ldr	r3, [r0, #32]
 8007f28:	2b00      	cmp	r3, #0
 8007f2a:	d101      	bne.n	8007f30 <_fflush_r+0x20>
 8007f2c:	f7fe f914 	bl	8006158 <__sinit>
 8007f30:	220c      	movs	r2, #12
 8007f32:	5ea3      	ldrsh	r3, [r4, r2]
 8007f34:	2b00      	cmp	r3, #0
 8007f36:	d0f1      	beq.n	8007f1c <_fflush_r+0xc>
 8007f38:	6e62      	ldr	r2, [r4, #100]	@ 0x64
 8007f3a:	07d2      	lsls	r2, r2, #31
 8007f3c:	d404      	bmi.n	8007f48 <_fflush_r+0x38>
 8007f3e:	059b      	lsls	r3, r3, #22
 8007f40:	d402      	bmi.n	8007f48 <_fflush_r+0x38>
 8007f42:	6da0      	ldr	r0, [r4, #88]	@ 0x58
 8007f44:	f7fe fb4f 	bl	80065e6 <__retarget_lock_acquire_recursive>
 8007f48:	0028      	movs	r0, r5
 8007f4a:	0021      	movs	r1, r4
 8007f4c:	f7ff ff5a 	bl	8007e04 <__sflush_r>
 8007f50:	6e63      	ldr	r3, [r4, #100]	@ 0x64
 8007f52:	0005      	movs	r5, r0
 8007f54:	07db      	lsls	r3, r3, #31
 8007f56:	d4e2      	bmi.n	8007f1e <_fflush_r+0xe>
 8007f58:	89a3      	ldrh	r3, [r4, #12]
 8007f5a:	059b      	lsls	r3, r3, #22
 8007f5c:	d4df      	bmi.n	8007f1e <_fflush_r+0xe>
 8007f5e:	6da0      	ldr	r0, [r4, #88]	@ 0x58
 8007f60:	f7fe fb42 	bl	80065e8 <__retarget_lock_release_recursive>
 8007f64:	e7db      	b.n	8007f1e <_fflush_r+0xe>
	...

08007f68 <__swhatbuf_r>:
 8007f68:	b570      	push	{r4, r5, r6, lr}
 8007f6a:	000e      	movs	r6, r1
 8007f6c:	001d      	movs	r5, r3
 8007f6e:	230e      	movs	r3, #14
 8007f70:	5ec9      	ldrsh	r1, [r1, r3]
 8007f72:	0014      	movs	r4, r2
 8007f74:	b096      	sub	sp, #88	@ 0x58
 8007f76:	2900      	cmp	r1, #0
 8007f78:	da0c      	bge.n	8007f94 <__swhatbuf_r+0x2c>
 8007f7a:	89b2      	ldrh	r2, [r6, #12]
 8007f7c:	2380      	movs	r3, #128	@ 0x80
 8007f7e:	0011      	movs	r1, r2
 8007f80:	4019      	ands	r1, r3
 8007f82:	421a      	tst	r2, r3
 8007f84:	d114      	bne.n	8007fb0 <__swhatbuf_r+0x48>
 8007f86:	2380      	movs	r3, #128	@ 0x80
 8007f88:	00db      	lsls	r3, r3, #3
 8007f8a:	2000      	movs	r0, #0
 8007f8c:	6029      	str	r1, [r5, #0]
 8007f8e:	6023      	str	r3, [r4, #0]
 8007f90:	b016      	add	sp, #88	@ 0x58
 8007f92:	bd70      	pop	{r4, r5, r6, pc}
 8007f94:	466a      	mov	r2, sp
 8007f96:	f000 f853 	bl	8008040 <_fstat_r>
 8007f9a:	2800      	cmp	r0, #0
 8007f9c:	dbed      	blt.n	8007f7a <__swhatbuf_r+0x12>
 8007f9e:	23f0      	movs	r3, #240	@ 0xf0
 8007fa0:	9901      	ldr	r1, [sp, #4]
 8007fa2:	021b      	lsls	r3, r3, #8
 8007fa4:	4019      	ands	r1, r3
 8007fa6:	4b04      	ldr	r3, [pc, #16]	@ (8007fb8 <__swhatbuf_r+0x50>)
 8007fa8:	18c9      	adds	r1, r1, r3
 8007faa:	424b      	negs	r3, r1
 8007fac:	4159      	adcs	r1, r3
 8007fae:	e7ea      	b.n	8007f86 <__swhatbuf_r+0x1e>
 8007fb0:	2100      	movs	r1, #0
 8007fb2:	2340      	movs	r3, #64	@ 0x40
 8007fb4:	e7e9      	b.n	8007f8a <__swhatbuf_r+0x22>
 8007fb6:	46c0      	nop			@ (mov r8, r8)
 8007fb8:	ffffe000 	.word	0xffffe000

08007fbc <__smakebuf_r>:
 8007fbc:	b5f0      	push	{r4, r5, r6, r7, lr}
 8007fbe:	2602      	movs	r6, #2
 8007fc0:	898b      	ldrh	r3, [r1, #12]
 8007fc2:	0005      	movs	r5, r0
 8007fc4:	000c      	movs	r4, r1
 8007fc6:	b085      	sub	sp, #20
 8007fc8:	4233      	tst	r3, r6
 8007fca:	d007      	beq.n	8007fdc <__smakebuf_r+0x20>
 8007fcc:	0023      	movs	r3, r4
 8007fce:	3347      	adds	r3, #71	@ 0x47
 8007fd0:	6023      	str	r3, [r4, #0]
 8007fd2:	6123      	str	r3, [r4, #16]
 8007fd4:	2301      	movs	r3, #1
 8007fd6:	6163      	str	r3, [r4, #20]
 8007fd8:	b005      	add	sp, #20
 8007fda:	bdf0      	pop	{r4, r5, r6, r7, pc}
 8007fdc:	ab03      	add	r3, sp, #12
 8007fde:	aa02      	add	r2, sp, #8
 8007fe0:	f7ff ffc2 	bl	8007f68 <__swhatbuf_r>
 8007fe4:	9f02      	ldr	r7, [sp, #8]
 8007fe6:	9001      	str	r0, [sp, #4]
 8007fe8:	0039      	movs	r1, r7
 8007fea:	0028      	movs	r0, r5
 8007fec:	f7fe feda 	bl	8006da4 <_malloc_r>
 8007ff0:	2800      	cmp	r0, #0
 8007ff2:	d108      	bne.n	8008006 <__smakebuf_r+0x4a>
 8007ff4:	220c      	movs	r2, #12
 8007ff6:	5ea3      	ldrsh	r3, [r4, r2]
 8007ff8:	059a      	lsls	r2, r3, #22
 8007ffa:	d4ed      	bmi.n	8007fd8 <__smakebuf_r+0x1c>
 8007ffc:	2203      	movs	r2, #3
 8007ffe:	4393      	bics	r3, r2
 8008000:	431e      	orrs	r6, r3
 8008002:	81a6      	strh	r6, [r4, #12]
 8008004:	e7e2      	b.n	8007fcc <__smakebuf_r+0x10>
 8008006:	2380      	movs	r3, #128	@ 0x80
 8008008:	89a2      	ldrh	r2, [r4, #12]
 800800a:	6020      	str	r0, [r4, #0]
 800800c:	4313      	orrs	r3, r2
 800800e:	81a3      	strh	r3, [r4, #12]
 8008010:	9b03      	ldr	r3, [sp, #12]
 8008012:	6120      	str	r0, [r4, #16]
 8008014:	6167      	str	r7, [r4, #20]
 8008016:	2b00      	cmp	r3, #0
 8008018:	d00c      	beq.n	8008034 <__smakebuf_r+0x78>
 800801a:	0028      	movs	r0, r5
 800801c:	230e      	movs	r3, #14
 800801e:	5ee1      	ldrsh	r1, [r4, r3]
 8008020:	f000 f820 	bl	8008064 <_isatty_r>
 8008024:	2800      	cmp	r0, #0
 8008026:	d005      	beq.n	8008034 <__smakebuf_r+0x78>
 8008028:	2303      	movs	r3, #3
 800802a:	89a2      	ldrh	r2, [r4, #12]
 800802c:	439a      	bics	r2, r3
 800802e:	3b02      	subs	r3, #2
 8008030:	4313      	orrs	r3, r2
 8008032:	81a3      	strh	r3, [r4, #12]
 8008034:	89a3      	ldrh	r3, [r4, #12]
 8008036:	9a01      	ldr	r2, [sp, #4]
 8008038:	4313      	orrs	r3, r2
 800803a:	81a3      	strh	r3, [r4, #12]
 800803c:	e7cc      	b.n	8007fd8 <__smakebuf_r+0x1c>
	...

08008040 <_fstat_r>:
 8008040:	2300      	movs	r3, #0
 8008042:	b570      	push	{r4, r5, r6, lr}
 8008044:	4d06      	ldr	r5, [pc, #24]	@ (8008060 <_fstat_r+0x20>)
 8008046:	0004      	movs	r4, r0
 8008048:	0008      	movs	r0, r1
 800804a:	0011      	movs	r1, r2
 800804c:	602b      	str	r3, [r5, #0]
 800804e:	f000 f8f7 	bl	8008240 <_fstat>
 8008052:	1c43      	adds	r3, r0, #1
 8008054:	d103      	bne.n	800805e <_fstat_r+0x1e>
 8008056:	682b      	ldr	r3, [r5, #0]
 8008058:	2b00      	cmp	r3, #0
 800805a:	d000      	beq.n	800805e <_fstat_r+0x1e>
 800805c:	6023      	str	r3, [r4, #0]
 800805e:	bd70      	pop	{r4, r5, r6, pc}
 8008060:	200005fc 	.word	0x200005fc

08008064 <_isatty_r>:
 8008064:	2300      	movs	r3, #0
 8008066:	b570      	push	{r4, r5, r6, lr}
 8008068:	4d06      	ldr	r5, [pc, #24]	@ (8008084 <_isatty_r+0x20>)
 800806a:	0004      	movs	r4, r0
 800806c:	0008      	movs	r0, r1
 800806e:	602b      	str	r3, [r5, #0]
 8008070:	f000 f8f6 	bl	8008260 <_isatty>
 8008074:	1c43      	adds	r3, r0, #1
 8008076:	d103      	bne.n	8008080 <_isatty_r+0x1c>
 8008078:	682b      	ldr	r3, [r5, #0]
 800807a:	2b00      	cmp	r3, #0
 800807c:	d000      	beq.n	8008080 <_isatty_r+0x1c>
 800807e:	6023      	str	r3, [r4, #0]
 8008080:	bd70      	pop	{r4, r5, r6, pc}
 8008082:	46c0      	nop			@ (mov r8, r8)
 8008084:	200005fc 	.word	0x200005fc

08008088 <_sbrk_r>:
 8008088:	2300      	movs	r3, #0
 800808a:	b570      	push	{r4, r5, r6, lr}
 800808c:	4d06      	ldr	r5, [pc, #24]	@ (80080a8 <_sbrk_r+0x20>)
 800808e:	0004      	movs	r4, r0
 8008090:	0008      	movs	r0, r1
 8008092:	602b      	str	r3, [r5, #0]
 8008094:	f000 f904 	bl	80082a0 <_sbrk>
 8008098:	1c43      	adds	r3, r0, #1
 800809a:	d103      	bne.n	80080a4 <_sbrk_r+0x1c>
 800809c:	682b      	ldr	r3, [r5, #0]
 800809e:	2b00      	cmp	r3, #0
 80080a0:	d000      	beq.n	80080a4 <_sbrk_r+0x1c>
 80080a2:	6023      	str	r3, [r4, #0]
 80080a4:	bd70      	pop	{r4, r5, r6, pc}
 80080a6:	46c0      	nop			@ (mov r8, r8)
 80080a8:	200005fc 	.word	0x200005fc

080080ac <memchr>:
 80080ac:	b2c9      	uxtb	r1, r1
 80080ae:	1882      	adds	r2, r0, r2
 80080b0:	4290      	cmp	r0, r2
 80080b2:	d101      	bne.n	80080b8 <memchr+0xc>
 80080b4:	2000      	movs	r0, #0
 80080b6:	4770      	bx	lr
 80080b8:	7803      	ldrb	r3, [r0, #0]
 80080ba:	428b      	cmp	r3, r1
 80080bc:	d0fb      	beq.n	80080b6 <memchr+0xa>
 80080be:	3001      	adds	r0, #1
 80080c0:	e7f6      	b.n	80080b0 <memchr+0x4>
	...

080080c4 <__assert_func>:
 80080c4:	b57f      	push	{r0, r1, r2, r3, r4, r5, r6, lr}
 80080c6:	0014      	movs	r4, r2
 80080c8:	001a      	movs	r2, r3
 80080ca:	4b09      	ldr	r3, [pc, #36]	@ (80080f0 <__assert_func+0x2c>)
 80080cc:	0005      	movs	r5, r0
 80080ce:	681b      	ldr	r3, [r3, #0]
 80080d0:	000e      	movs	r6, r1
 80080d2:	68d8      	ldr	r0, [r3, #12]
 80080d4:	4b07      	ldr	r3, [pc, #28]	@ (80080f4 <__assert_func+0x30>)
 80080d6:	2c00      	cmp	r4, #0
 80080d8:	d101      	bne.n	80080de <__assert_func+0x1a>
 80080da:	4b07      	ldr	r3, [pc, #28]	@ (80080f8 <__assert_func+0x34>)
 80080dc:	001c      	movs	r4, r3
 80080de:	4907      	ldr	r1, [pc, #28]	@ (80080fc <__assert_func+0x38>)
 80080e0:	9301      	str	r3, [sp, #4]
 80080e2:	9402      	str	r4, [sp, #8]
 80080e4:	002b      	movs	r3, r5
 80080e6:	9600      	str	r6, [sp, #0]
 80080e8:	f000 f842 	bl	8008170 <fiprintf>
 80080ec:	f000 f850 	bl	8008190 <abort>
 80080f0:	20000194 	.word	0x20000194
 80080f4:	08008772 	.word	0x08008772
 80080f8:	080087ad 	.word	0x080087ad
 80080fc:	0800877f 	.word	0x0800877f

08008100 <_calloc_r>:
 8008100:	b570      	push	{r4, r5, r6, lr}
 8008102:	0c0b      	lsrs	r3, r1, #16
 8008104:	0c15      	lsrs	r5, r2, #16
 8008106:	2b00      	cmp	r3, #0
 8008108:	d11e      	bne.n	8008148 <_calloc_r+0x48>
 800810a:	2d00      	cmp	r5, #0
 800810c:	d10c      	bne.n	8008128 <_calloc_r+0x28>
 800810e:	b289      	uxth	r1, r1
 8008110:	b294      	uxth	r4, r2
 8008112:	434c      	muls	r4, r1
 8008114:	0021      	movs	r1, r4
 8008116:	f7fe fe45 	bl	8006da4 <_malloc_r>
 800811a:	1e05      	subs	r5, r0, #0
 800811c:	d01b      	beq.n	8008156 <_calloc_r+0x56>
 800811e:	0022      	movs	r2, r4
 8008120:	2100      	movs	r1, #0
 8008122:	f7fe f9a9 	bl	8006478 <memset>
 8008126:	e016      	b.n	8008156 <_calloc_r+0x56>
 8008128:	1c2b      	adds	r3, r5, #0
 800812a:	1c0c      	adds	r4, r1, #0
 800812c:	b289      	uxth	r1, r1
 800812e:	b292      	uxth	r2, r2
 8008130:	434a      	muls	r2, r1
 8008132:	b29b      	uxth	r3, r3
 8008134:	b2a1      	uxth	r1, r4
 8008136:	4359      	muls	r1, r3
 8008138:	0c14      	lsrs	r4, r2, #16
 800813a:	190c      	adds	r4, r1, r4
 800813c:	0c23      	lsrs	r3, r4, #16
 800813e:	d107      	bne.n	8008150 <_calloc_r+0x50>
 8008140:	0424      	lsls	r4, r4, #16
 8008142:	b292      	uxth	r2, r2
 8008144:	4314      	orrs	r4, r2
 8008146:	e7e5      	b.n	8008114 <_calloc_r+0x14>
 8008148:	2d00      	cmp	r5, #0
 800814a:	d101      	bne.n	8008150 <_calloc_r+0x50>
 800814c:	1c14      	adds	r4, r2, #0
 800814e:	e7ed      	b.n	800812c <_calloc_r+0x2c>
 8008150:	230c      	movs	r3, #12
 8008152:	2500      	movs	r5, #0
 8008154:	6003      	str	r3, [r0, #0]
 8008156:	0028      	movs	r0, r5
 8008158:	bd70      	pop	{r4, r5, r6, pc}
	...

0800815c <malloc>:
 800815c:	b510      	push	{r4, lr}
 800815e:	4b03      	ldr	r3, [pc, #12]	@ (800816c <malloc+0x10>)
 8008160:	0001      	movs	r1, r0
 8008162:	6818      	ldr	r0, [r3, #0]
 8008164:	f7fe fe1e 	bl	8006da4 <_malloc_r>
 8008168:	bd10      	pop	{r4, pc}
 800816a:	46c0      	nop			@ (mov r8, r8)
 800816c:	20000194 	.word	0x20000194

08008170 <fiprintf>:
 8008170:	b40e      	push	{r1, r2, r3}
 8008172:	b517      	push	{r0, r1, r2, r4, lr}
 8008174:	4c05      	ldr	r4, [pc, #20]	@ (800818c <fiprintf+0x1c>)
 8008176:	ab05      	add	r3, sp, #20
 8008178:	cb04      	ldmia	r3!, {r2}
 800817a:	0001      	movs	r1, r0
 800817c:	6820      	ldr	r0, [r4, #0]
 800817e:	9301      	str	r3, [sp, #4]
 8008180:	f7ff fba8 	bl	80078d4 <_vfiprintf_r>
 8008184:	bc1e      	pop	{r1, r2, r3, r4}
 8008186:	bc08      	pop	{r3}
 8008188:	b003      	add	sp, #12
 800818a:	4718      	bx	r3
 800818c:	20000194 	.word	0x20000194

08008190 <abort>:
 8008190:	2006      	movs	r0, #6
 8008192:	b510      	push	{r4, lr}
 8008194:	f000 f82c 	bl	80081f0 <raise>
 8008198:	2001      	movs	r0, #1
 800819a:	f000 f891 	bl	80082c0 <_exit>

0800819e <_raise_r>:
 800819e:	b570      	push	{r4, r5, r6, lr}
 80081a0:	0004      	movs	r4, r0
 80081a2:	000d      	movs	r5, r1
 80081a4:	291f      	cmp	r1, #31
 80081a6:	d904      	bls.n	80081b2 <_raise_r+0x14>
 80081a8:	2316      	movs	r3, #22
 80081aa:	6003      	str	r3, [r0, #0]
 80081ac:	2001      	movs	r0, #1
 80081ae:	4240      	negs	r0, r0
 80081b0:	bd70      	pop	{r4, r5, r6, pc}
 80081b2:	6bc3      	ldr	r3, [r0, #60]	@ 0x3c
 80081b4:	2b00      	cmp	r3, #0
 80081b6:	d004      	beq.n	80081c2 <_raise_r+0x24>
 80081b8:	008a      	lsls	r2, r1, #2
 80081ba:	189b      	adds	r3, r3, r2
 80081bc:	681a      	ldr	r2, [r3, #0]
 80081be:	2a00      	cmp	r2, #0
 80081c0:	d108      	bne.n	80081d4 <_raise_r+0x36>
 80081c2:	0020      	movs	r0, r4
 80081c4:	f000 f830 	bl	8008228 <_getpid_r>
 80081c8:	002a      	movs	r2, r5
 80081ca:	0001      	movs	r1, r0
 80081cc:	0020      	movs	r0, r4
 80081ce:	f000 f819 	bl	8008204 <_kill_r>
 80081d2:	e7ed      	b.n	80081b0 <_raise_r+0x12>
 80081d4:	2a01      	cmp	r2, #1
 80081d6:	d009      	beq.n	80081ec <_raise_r+0x4e>
 80081d8:	1c51      	adds	r1, r2, #1
 80081da:	d103      	bne.n	80081e4 <_raise_r+0x46>
 80081dc:	2316      	movs	r3, #22
 80081de:	6003      	str	r3, [r0, #0]
 80081e0:	2001      	movs	r0, #1
 80081e2:	e7e5      	b.n	80081b0 <_raise_r+0x12>
 80081e4:	2100      	movs	r1, #0
 80081e6:	0028      	movs	r0, r5
 80081e8:	6019      	str	r1, [r3, #0]
 80081ea:	4790      	blx	r2
 80081ec:	2000      	movs	r0, #0
 80081ee:	e7df      	b.n	80081b0 <_raise_r+0x12>

080081f0 <raise>:
 80081f0:	b510      	push	{r4, lr}
 80081f2:	4b03      	ldr	r3, [pc, #12]	@ (8008200 <raise+0x10>)
 80081f4:	0001      	movs	r1, r0
 80081f6:	6818      	ldr	r0, [r3, #0]
 80081f8:	f7ff ffd1 	bl	800819e <_raise_r>
 80081fc:	bd10      	pop	{r4, pc}
 80081fe:	46c0      	nop			@ (mov r8, r8)
 8008200:	20000194 	.word	0x20000194

08008204 <_kill_r>:
 8008204:	2300      	movs	r3, #0
 8008206:	b570      	push	{r4, r5, r6, lr}
 8008208:	4d06      	ldr	r5, [pc, #24]	@ (8008224 <_kill_r+0x20>)
 800820a:	0004      	movs	r4, r0
 800820c:	0008      	movs	r0, r1
 800820e:	0011      	movs	r1, r2
 8008210:	602b      	str	r3, [r5, #0]
 8008212:	f000 f82d 	bl	8008270 <_kill>
 8008216:	1c43      	adds	r3, r0, #1
 8008218:	d103      	bne.n	8008222 <_kill_r+0x1e>
 800821a:	682b      	ldr	r3, [r5, #0]
 800821c:	2b00      	cmp	r3, #0
 800821e:	d000      	beq.n	8008222 <_kill_r+0x1e>
 8008220:	6023      	str	r3, [r4, #0]
 8008222:	bd70      	pop	{r4, r5, r6, pc}
 8008224:	200005fc 	.word	0x200005fc

08008228 <_getpid_r>:
 8008228:	b510      	push	{r4, lr}
 800822a:	f000 f811 	bl	8008250 <_getpid>
 800822e:	bd10      	pop	{r4, pc}

08008230 <_close>:
 8008230:	2258      	movs	r2, #88	@ 0x58
 8008232:	2001      	movs	r0, #1
 8008234:	4b01      	ldr	r3, [pc, #4]	@ (800823c <_close+0xc>)
 8008236:	4240      	negs	r0, r0
 8008238:	601a      	str	r2, [r3, #0]
 800823a:	4770      	bx	lr
 800823c:	200005fc 	.word	0x200005fc

08008240 <_fstat>:
 8008240:	2258      	movs	r2, #88	@ 0x58
 8008242:	2001      	movs	r0, #1
 8008244:	4b01      	ldr	r3, [pc, #4]	@ (800824c <_fstat+0xc>)
 8008246:	4240      	negs	r0, r0
 8008248:	601a      	str	r2, [r3, #0]
 800824a:	4770      	bx	lr
 800824c:	200005fc 	.word	0x200005fc

08008250 <_getpid>:
 8008250:	2258      	movs	r2, #88	@ 0x58
 8008252:	2001      	movs	r0, #1
 8008254:	4b01      	ldr	r3, [pc, #4]	@ (800825c <_getpid+0xc>)
 8008256:	4240      	negs	r0, r0
 8008258:	601a      	str	r2, [r3, #0]
 800825a:	4770      	bx	lr
 800825c:	200005fc 	.word	0x200005fc

08008260 <_isatty>:
 8008260:	2258      	movs	r2, #88	@ 0x58
 8008262:	4b02      	ldr	r3, [pc, #8]	@ (800826c <_isatty+0xc>)
 8008264:	2000      	movs	r0, #0
 8008266:	601a      	str	r2, [r3, #0]
 8008268:	4770      	bx	lr
 800826a:	46c0      	nop			@ (mov r8, r8)
 800826c:	200005fc 	.word	0x200005fc

08008270 <_kill>:
 8008270:	2258      	movs	r2, #88	@ 0x58
 8008272:	2001      	movs	r0, #1
 8008274:	4b01      	ldr	r3, [pc, #4]	@ (800827c <_kill+0xc>)
 8008276:	4240      	negs	r0, r0
 8008278:	601a      	str	r2, [r3, #0]
 800827a:	4770      	bx	lr
 800827c:	200005fc 	.word	0x200005fc

08008280 <_lseek>:
 8008280:	2258      	movs	r2, #88	@ 0x58
 8008282:	2001      	movs	r0, #1
 8008284:	4b01      	ldr	r3, [pc, #4]	@ (800828c <_lseek+0xc>)
 8008286:	4240      	negs	r0, r0
 8008288:	601a      	str	r2, [r3, #0]
 800828a:	4770      	bx	lr
 800828c:	200005fc 	.word	0x200005fc

08008290 <_read>:
 8008290:	2258      	movs	r2, #88	@ 0x58
 8008292:	2001      	movs	r0, #1
 8008294:	4b01      	ldr	r3, [pc, #4]	@ (800829c <_read+0xc>)
 8008296:	4240      	negs	r0, r0
 8008298:	601a      	str	r2, [r3, #0]
 800829a:	4770      	bx	lr
 800829c:	200005fc 	.word	0x200005fc

080082a0 <_sbrk>:
 80082a0:	4a05      	ldr	r2, [pc, #20]	@ (80082b8 <_sbrk+0x18>)
 80082a2:	0003      	movs	r3, r0
 80082a4:	6811      	ldr	r1, [r2, #0]
 80082a6:	2900      	cmp	r1, #0
 80082a8:	d101      	bne.n	80082ae <_sbrk+0xe>
 80082aa:	4904      	ldr	r1, [pc, #16]	@ (80082bc <_sbrk+0x1c>)
 80082ac:	6011      	str	r1, [r2, #0]
 80082ae:	6810      	ldr	r0, [r2, #0]
 80082b0:	18c3      	adds	r3, r0, r3
 80082b2:	6013      	str	r3, [r2, #0]
 80082b4:	4770      	bx	lr
 80082b6:	46c0      	nop			@ (mov r8, r8)
 80082b8:	2000060c 	.word	0x2000060c
 80082bc:	20000610 	.word	0x20000610

080082c0 <_exit>:
 80082c0:	e7fe      	b.n	80082c0 <_exit>
	...

080082c4 <_init>:
 80082c4:	b5f8      	push	{r3, r4, r5, r6, r7, lr}
 80082c6:	46c0      	nop			@ (mov r8, r8)
 80082c8:	bcf8      	pop	{r3, r4, r5, r6, r7}
 80082ca:	bc08      	pop	{r3}
 80082cc:	469e      	mov	lr, r3
 80082ce:	4770      	bx	lr

080082d0 <_fini>:
 80082d0:	b5f8      	push	{r3, r4, r5, r6, r7, lr}
 80082d2:	46c0      	nop			@ (mov r8, r8)
 80082d4:	bcf8      	pop	{r3, r4, r5, r6, r7}
 80082d6:	bc08      	pop	{r3}
 80082d8:	469e      	mov	lr, r3
 80082da:	4770      	bx	lr
